
out.elf:     file format elf32-tradlittlemips


Disassembly of section .reset:

bd007000 <_reset>:
bd007000:	0f401c02 	jal	bd007008 <_startup>
bd007004:	00000000 	nop

bd007008 <_startup>:
bd007008:	401a6000 	mfc0	k0,c0_status
bd00700c:	7f5a04c0 	ext	k0,k0,0x13,0x1
bd007010:	13400005 	beqz	k0,bd007028 <_no_nmi>
bd007014:	00000000 	nop
bd007018:	3c1a9d01 	lui	k0,0x9d01
bd00701c:	275a4ac8 	addiu	k0,k0,19144
bd007020:	03400008 	jr	k0
bd007024:	00000000 	nop

bd007028 <_no_nmi>:
bd007028:	3c1da001 	lui	sp,0xa001
bd00702c:	27bdfff0 	addiu	sp,sp,-16
bd007030:	3c1ca000 	lui	gp,0xa000
bd007034:	279c7ff0 	addiu	gp,gp,32752
bd007038:	3c089d01 	lui	t0,0x9d01
bd00703c:	25084b80 	addiu	t0,t0,19328
bd007040:	0100f809 	jalr	t0
bd007044:	00000000 	nop
bd007048:	3c089d01 	lui	t0,0x9d01
bd00704c:	250836f4 	addiu	t0,t0,14068
bd007050:	0100f809 	jalr	t0
bd007054:	00000000 	nop
bd007058:	3c090000 	lui	t1,0x0
bd00705c:	25290000 	addiu	t1,t1,0
bd007060:	11200010 	beqz	t1,bd0070a4 <_ramfunc_done>
bd007064:	00000000 	nop
bd007068:	3c090001 	lui	t1,0x1
bd00706c:	25290000 	addiu	t1,t1,0
bd007070:	3c0abf88 	lui	t2,0xbf88
bd007074:	254a2010 	addiu	t2,t2,8208
bd007078:	ad490000 	sw	t1,0(t2)
bd00707c:	3c090001 	lui	t1,0x1
bd007080:	25290000 	addiu	t1,t1,0
bd007084:	3c0abf88 	lui	t2,0xbf88
bd007088:	254a2020 	addiu	t2,t2,8224
bd00708c:	ad490000 	sw	t1,0(t2)
bd007090:	3c090001 	lui	t1,0x1
bd007094:	25290000 	addiu	t1,t1,0
bd007098:	3c0abf88 	lui	t2,0xbf88
bd00709c:	254a2030 	addiu	t2,t2,8240
bd0070a0:	ad490000 	sw	t1,0(t2)

bd0070a4 <_ramfunc_done>:
bd0070a4:	40804800 	mtc0	zero,c0_count
bd0070a8:	240affff 	li	t2,-1
bd0070ac:	408a5800 	mtc0	t2,c0_compare
bd0070b0:	3c080040 	lui	t0,0x40
bd0070b4:	400a6000 	mfc0	t2,c0_status
bd0070b8:	010a5025 	or	t2,t0,t2
bd0070bc:	408a6000 	mtc0	t2,c0_status
bd0070c0:	3c099d00 	lui	t1,0x9d00
bd0070c4:	25296000 	addiu	t1,t1,24576
bd0070c8:	000000c0 	ehb
bd0070cc:	40897801 	mtc0	t1,c0_ebase
bd0070d0:	3c090000 	lui	t1,0x0
bd0070d4:	25290001 	addiu	t1,t1,1
bd0070d8:	240a0000 	li	t2,0
bd0070dc:	7d2a4944 	ins	t2,t1,0x5,0x5
bd0070e0:	408a6001 	mtc0	t2,c0_intctl
bd0070e4:	3c090080 	lui	t1,0x80
bd0070e8:	40896800 	mtc0	t1,c0_cause
bd0070ec:	40088000 	mfc0	t0,c0_config
bd0070f0:	7d090580 	ext	t1,t0,0x16,0x1
bd0070f4:	00094c40 	sll	t1,t1,0x11
bd0070f8:	40086000 	mfc0	t0,c0_status
bd0070fc:	3c010058 	lui	at,0x58
bd007100:	01014024 	and	t0,t0,at
bd007104:	01284025 	or	t0,t1,t0
bd007108:	40886000 	mtc0	t0,c0_status
bd00710c:	000000c0 	ehb
bd007110:	3c089d01 	lui	t0,0x9d01
bd007114:	25084b88 	addiu	t0,t0,19336
bd007118:	0100f809 	jalr	t0
bd00711c:	00000000 	nop
bd007120:	40086000 	mfc0	t0,c0_status
bd007124:	3c01ffbf 	lui	at,0xffbf
bd007128:	3421ffff 	ori	at,at,0xffff
bd00712c:	01014024 	and	t0,t0,at
bd007130:	40886000 	mtc0	t0,c0_status
bd007134:	30840000 	andi	a0,a0,0x0
bd007138:	30a50000 	andi	a1,a1,0x0
bd00713c:	3c089d01 	lui	t0,0x9d01
bd007140:	25083e10 	addiu	t0,t0,15888
bd007144:	01000008 	jr	t0
bd007148:	00000000 	nop

Disassembly of section .bev_excpt:

bfc07380 <_bev_exception>:
bfc07380:	3c1a9d01 	lui	k0,0x9d01
bfc07384:	275a3f54 	addiu	k0,k0,16212
bfc07388:	03400008 	jr	k0
bfc0738c:	00000000 	nop

Disassembly of section .app_excpt:

9d006180 <_gen_exception>:
9d006180:	3c1a9d01 	lui	k0,0x9d01
9d006184:	275a2334 	addiu	k0,k0,9012
9d006188:	03400008 	jr	k0
9d00618c:	00000000 	nop

Disassembly of section .vector_0:

9d006200 <__vector_dispatch_0>:
9d006200:	0b404ff9 	j	9d013fe4 <_DefaultInterrupt>
9d006204:	00000000 	nop

Disassembly of section .vector_1:

9d006220 <__vector_dispatch_1>:
9d006220:	0b404ff9 	j	9d013fe4 <_DefaultInterrupt>
9d006224:	00000000 	nop

Disassembly of section .vector_2:

9d006240 <__vector_dispatch_2>:
9d006240:	0b404ff9 	j	9d013fe4 <_DefaultInterrupt>
9d006244:	00000000 	nop

Disassembly of section .vector_3:

9d006260 <__vector_dispatch_3>:
9d006260:	0b404ff9 	j	9d013fe4 <_DefaultInterrupt>
9d006264:	00000000 	nop

Disassembly of section .vector_4:

9d006280 <__vector_dispatch_4>:
9d006280:	0b401fc0 	j	9d007f00 <PositionController>
9d006284:	00000000 	nop

Disassembly of section .vector_5:

9d0062a0 <__vector_dispatch_5>:
9d0062a0:	0b404ff9 	j	9d013fe4 <_DefaultInterrupt>
9d0062a4:	00000000 	nop

Disassembly of section .vector_6:

9d0062c0 <__vector_dispatch_6>:
9d0062c0:	0b404ff9 	j	9d013fe4 <_DefaultInterrupt>
9d0062c4:	00000000 	nop

Disassembly of section .vector_7:

9d0062e0 <__vector_dispatch_7>:
9d0062e0:	0b404ff9 	j	9d013fe4 <_DefaultInterrupt>
9d0062e4:	00000000 	nop

Disassembly of section .vector_8:

9d006300 <__vector_dispatch_8>:
9d006300:	0b401d6a 	j	9d0075a8 <Controller>
9d006304:	00000000 	nop

Disassembly of section .vector_9:

9d006320 <__vector_dispatch_9>:
9d006320:	0b404ff9 	j	9d013fe4 <_DefaultInterrupt>
9d006324:	00000000 	nop

Disassembly of section .vector_10:

9d006340 <__vector_dispatch_10>:
9d006340:	0b404ff9 	j	9d013fe4 <_DefaultInterrupt>
9d006344:	00000000 	nop

Disassembly of section .vector_11:

9d006360 <__vector_dispatch_11>:
9d006360:	0b404ff9 	j	9d013fe4 <_DefaultInterrupt>
9d006364:	00000000 	nop

Disassembly of section .vector_12:

9d006380 <__vector_dispatch_12>:
9d006380:	0b404ff9 	j	9d013fe4 <_DefaultInterrupt>
9d006384:	00000000 	nop

Disassembly of section .vector_13:

9d0063a0 <__vector_dispatch_13>:
9d0063a0:	0b404ff9 	j	9d013fe4 <_DefaultInterrupt>
9d0063a4:	00000000 	nop

Disassembly of section .vector_14:

9d0063c0 <__vector_dispatch_14>:
9d0063c0:	0b404ff9 	j	9d013fe4 <_DefaultInterrupt>
9d0063c4:	00000000 	nop

Disassembly of section .vector_15:

9d0063e0 <__vector_dispatch_15>:
9d0063e0:	0b404ff9 	j	9d013fe4 <_DefaultInterrupt>
9d0063e4:	00000000 	nop

Disassembly of section .vector_16:

9d006400 <__vector_dispatch_16>:
9d006400:	0b404ff9 	j	9d013fe4 <_DefaultInterrupt>
9d006404:	00000000 	nop

Disassembly of section .vector_17:

9d006420 <__vector_dispatch_17>:
9d006420:	0b404ff9 	j	9d013fe4 <_DefaultInterrupt>
9d006424:	00000000 	nop

Disassembly of section .vector_18:

9d006440 <__vector_dispatch_18>:
9d006440:	0b404ff9 	j	9d013fe4 <_DefaultInterrupt>
9d006444:	00000000 	nop

Disassembly of section .vector_19:

9d006460 <__vector_dispatch_19>:
9d006460:	0b404ff9 	j	9d013fe4 <_DefaultInterrupt>
9d006464:	00000000 	nop

Disassembly of section .vector_20:

9d006480 <__vector_dispatch_20>:
9d006480:	0b404ff9 	j	9d013fe4 <_DefaultInterrupt>
9d006484:	00000000 	nop

Disassembly of section .vector_21:

9d0064a0 <__vector_dispatch_21>:
9d0064a0:	0b404ff9 	j	9d013fe4 <_DefaultInterrupt>
9d0064a4:	00000000 	nop

Disassembly of section .vector_22:

9d0064c0 <__vector_dispatch_22>:
9d0064c0:	0b404ff9 	j	9d013fe4 <_DefaultInterrupt>
9d0064c4:	00000000 	nop

Disassembly of section .vector_23:

9d0064e0 <__vector_dispatch_23>:
9d0064e0:	0b404ff9 	j	9d013fe4 <_DefaultInterrupt>
9d0064e4:	00000000 	nop

Disassembly of section .vector_24:

9d006500 <__vector_dispatch_24>:
9d006500:	0b404ff9 	j	9d013fe4 <_DefaultInterrupt>
9d006504:	00000000 	nop

Disassembly of section .vector_25:

9d006520 <__vector_dispatch_25>:
9d006520:	0b404ff9 	j	9d013fe4 <_DefaultInterrupt>
9d006524:	00000000 	nop

Disassembly of section .vector_26:

9d006540 <__vector_dispatch_26>:
9d006540:	0b404ff9 	j	9d013fe4 <_DefaultInterrupt>
9d006544:	00000000 	nop

Disassembly of section .vector_27:

9d006560 <__vector_dispatch_27>:
9d006560:	0b404ff9 	j	9d013fe4 <_DefaultInterrupt>
9d006564:	00000000 	nop

Disassembly of section .vector_28:

9d006580 <__vector_dispatch_28>:
9d006580:	0b404ff9 	j	9d013fe4 <_DefaultInterrupt>
9d006584:	00000000 	nop

Disassembly of section .vector_29:

9d0065a0 <__vector_dispatch_29>:
9d0065a0:	0b404ff9 	j	9d013fe4 <_DefaultInterrupt>
9d0065a4:	00000000 	nop

Disassembly of section .vector_30:

9d0065c0 <__vector_dispatch_30>:
9d0065c0:	0b404ff9 	j	9d013fe4 <_DefaultInterrupt>
9d0065c4:	00000000 	nop

Disassembly of section .vector_31:

9d0065e0 <__vector_dispatch_31>:
9d0065e0:	0b404ff9 	j	9d013fe4 <_DefaultInterrupt>
9d0065e4:	00000000 	nop

Disassembly of section .vector_32:

9d006600 <__vector_dispatch_32>:
9d006600:	0b404ff9 	j	9d013fe4 <_DefaultInterrupt>
9d006604:	00000000 	nop

Disassembly of section .vector_33:

9d006620 <__vector_dispatch_33>:
9d006620:	0b404ff9 	j	9d013fe4 <_DefaultInterrupt>
9d006624:	00000000 	nop

Disassembly of section .vector_34:

9d006640 <__vector_dispatch_34>:
9d006640:	0b404ff9 	j	9d013fe4 <_DefaultInterrupt>
9d006644:	00000000 	nop

Disassembly of section .vector_35:

9d006660 <__vector_dispatch_35>:
9d006660:	0b404ff9 	j	9d013fe4 <_DefaultInterrupt>
9d006664:	00000000 	nop

Disassembly of section .vector_36:

9d006680 <__vector_dispatch_36>:
9d006680:	0b404ff9 	j	9d013fe4 <_DefaultInterrupt>
9d006684:	00000000 	nop

Disassembly of section .vector_37:

9d0066a0 <__vector_dispatch_37>:
9d0066a0:	0b403a57 	j	9d00e95c <U2ISR>
9d0066a4:	00000000 	nop

Disassembly of section .vector_38:

9d0066c0 <__vector_dispatch_38>:
9d0066c0:	0b404ff9 	j	9d013fe4 <_DefaultInterrupt>
9d0066c4:	00000000 	nop

Disassembly of section .vector_39:

9d0066e0 <__vector_dispatch_39>:
9d0066e0:	0b404ff9 	j	9d013fe4 <_DefaultInterrupt>
9d0066e4:	00000000 	nop

Disassembly of section .vector_40:

9d006700 <__vector_dispatch_40>:
9d006700:	0b404ff9 	j	9d013fe4 <_DefaultInterrupt>
9d006704:	00000000 	nop

Disassembly of section .vector_41:

9d006720 <__vector_dispatch_41>:
9d006720:	0b404ff9 	j	9d013fe4 <_DefaultInterrupt>
9d006724:	00000000 	nop

Disassembly of section .vector_42:

9d006740 <__vector_dispatch_42>:
9d006740:	0b404ff9 	j	9d013fe4 <_DefaultInterrupt>
9d006744:	00000000 	nop

Disassembly of section .vector_43:

9d006760 <__vector_dispatch_43>:
9d006760:	0b404ff9 	j	9d013fe4 <_DefaultInterrupt>
9d006764:	00000000 	nop

Disassembly of section .rodata:

9d007490 <.rodata>:
9d007490:	00000000 	nop
9d007494:	41f00000 	0x41f00000
9d007498:	00464e49 	0x464e49
9d00749c:	00666e69 	0x666e69
9d0074a0:	004e414e 	0x4e414e
9d0074a4:	006e616e 	0x6e616e
9d0074a8:	00000000 	nop
9d0074ac:	3ff00000 	0x3ff00000
9d0074b0:	00000000 	nop
9d0074b4:	40240000 	0x40240000
9d0074b8:	00000000 	nop
9d0074bc:	43500000 	c0	0x1500000
9d0074c0:	00000000 	nop
9d0074c4:	40140000 	mfc0	s4,c0_index
9d0074c8:	6c696e28 	0x6c696e28
9d0074cc:	00000029 	0x29
9d0074d0:	00000025 	move	zero,zero
9d0074d4:	00666e69 	0x666e69
9d0074d8:	006e616e 	0x6e616e
9d0074dc:	69666e69 	0x69666e69
9d0074e0:	7974696e 	0x7974696e
9d0074e4:	00000000 	nop
9d0074e8:	006e616e 	0x6e616e
9d0074ec:	00000000 	nop
9d0074f0:	ffffffff 	sdc3	$31,-1(ra)
9d0074f4:	7fefffff 	0x7fefffff
9d0074f8:	00000000 	nop
9d0074fc:	00100000 	sll	zero,s0,0x0
9d007500:	00000000 	nop
9d007504:	41cdcd65 	0x41cdcd65
9d007508:	00000000 	nop
9d00750c:	3ff00000 	0x3ff00000
9d007510:	00000000 	nop
9d007514:	3fd00000 	0x3fd00000
9d007518:	00000000 	nop
9d00751c:	3fe80000 	0x3fe80000
9d007520:	00000000 	nop
9d007524:	3fe00000 	0x3fe00000
9d007528:	00000000 	nop
9d00752c:	43400000 	c0	0x1400000
9d007530:	00000000 	nop
9d007534:	fff00000 	sdc3	$16,0(ra)
9d007538:	ffffffff 	sdc3	$31,-1(ra)
9d00753c:	7ff7ffff 	0x7ff7ffff
9d007540:	00000000 	nop
9d007544:	7ff00000 	ext	s0,ra,0x0,0x1
9d007548:	00000000 	nop
9d00754c:	3fb00000 	0x3fb00000
9d007550:	00000000 	nop
9d007554:	c08ff000 	ll	t7,-4096(a0)
9d007558:	00000000 	nop
9d00755c:	3ff00000 	0x3ff00000
9d007560:	00000000 	nop
9d007564:	3fe00000 	0x3fe00000
9d007568:	30773b76 	andi	s7,v1,0x3b76
9d00756c:	7fde42d1 	pick.ph	t0,s8,s8
9d007570:	00000000 	nop
9d007574:	43e00000 	c0	0x1e00000
9d007578:	00000000 	nop
9d00757c:	c3e00000 	ll	zero,0(ra)
9d007580:	f0000000 	0xf0000000
9d007584:	341fffff 	li	ra,0xffff
9d007588:	00000000 	nop
9d00758c:	07f00000 	bltzal	ra,9d007590 <__vector_dispatch_43+0xe30>
9d007590:	00000000 	nop
9d007594:	7fe00000 	ext	zero,ra,0x0,0x1
9d007598:	00000000 	nop
9d00759c:	03600000 	0x3600000
9d0075a0:	00000000 	nop
9d0075a4:	41f00000 	0x41f00000

Disassembly of section ._debug_exception:

bfc00480 <__DbgExecReturn>:
bfc00480:	409bf800 	mtc0	k1,c0_desave
bfc00484:	000000c0 	ehb
bfc00488:	3c1b9d01 	lui	k1,0x9d01
bfc0048c:	277b40bc 	addiu	k1,k1,16572
bfc00490:	13600002 	beqz	k1,bfc0049c <__DbgExecReturn+0x1c>
bfc00494:	00000000 	nop
bfc00498:	409bc000 	mtc0	k1,c0_depc
bfc0049c:	401bf800 	mfc0	k1,c0_desave
bfc004a0:	000000c0 	ehb
bfc004a4:	4200001f 	deret
bfc004a8:	00000000 	nop

Disassembly of section .text:

9d0075a8 <Controller>:
void sendDataToPython(int *refArray, int *actualArray, int length);

/**
 * Timer 2 ISR - Current Control Loop (5 kHz)
 */
void __ISR(_TIMER_2_VECTOR, IPL5SOFT) Controller(void) {
9d0075a8:	415de800 	rdpgpr	sp,sp
9d0075ac:	401a7000 	mfc0	k0,c0_epc
9d0075b0:	401b6000 	mfc0	k1,c0_status
9d0075b4:	27bdff70 	addiu	sp,sp,-144
9d0075b8:	afba008c 	sw	k0,140(sp)
9d0075bc:	401a6002 	mfc0	k0,c0_srsctl
9d0075c0:	afbb0088 	sw	k1,136(sp)
9d0075c4:	afba0084 	sw	k0,132(sp)
9d0075c8:	7c1b7844 	ins	k1,zero,0x1,0xf
9d0075cc:	377b1400 	ori	k1,k1,0x1400
9d0075d0:	409b6000 	mtc0	k1,c0_status
9d0075d4:	afbf0074 	sw	ra,116(sp)
9d0075d8:	afbe0070 	sw	s8,112(sp)
9d0075dc:	afb9006c 	sw	t9,108(sp)
9d0075e0:	afb80068 	sw	t8,104(sp)
9d0075e4:	afb10064 	sw	s1,100(sp)
9d0075e8:	afb00060 	sw	s0,96(sp)
9d0075ec:	afaf005c 	sw	t7,92(sp)
9d0075f0:	afae0058 	sw	t6,88(sp)
9d0075f4:	afad0054 	sw	t5,84(sp)
9d0075f8:	afac0050 	sw	t4,80(sp)
9d0075fc:	afab004c 	sw	t3,76(sp)
9d007600:	afaa0048 	sw	t2,72(sp)
9d007604:	afa90044 	sw	t1,68(sp)
9d007608:	afa80040 	sw	t0,64(sp)
9d00760c:	afa7003c 	sw	a3,60(sp)
9d007610:	afa60038 	sw	a2,56(sp)
9d007614:	afa50034 	sw	a1,52(sp)
9d007618:	afa40030 	sw	a0,48(sp)
9d00761c:	afa3002c 	sw	v1,44(sp)
9d007620:	afa20028 	sw	v0,40(sp)
9d007624:	afa10024 	sw	at,36(sp)
9d007628:	00001012 	mflo	v0
9d00762c:	afa2007c 	sw	v0,124(sp)
9d007630:	00001810 	mfhi	v1
9d007634:	afa30078 	sw	v1,120(sp)
9d007638:	03a0f025 	move	s8,sp
    static int counter = 0;
    int actualCurrent = 0;
9d00763c:	afc00010 	sw	zero,16(s8)
    static int refCurrent = -200;
    // float test_current = INA219_read_current();
    // char debug_msg[100];
    // sprintf(debug_msg, "Manual current test: %f\r\n", test_current);
    // NU32DIP_WriteUART1(debug_msg);
    switch (get_mode()) {
9d007640:	0f404f7b 	jal	9d013dec <get_mode>
9d007644:	00000000 	nop
9d007648:	2c430005 	sltiu	v1,v0,5
9d00764c:	106001fe 	beqz	v1,9d007e48 <__jend_Controller_4+0x7c4>
9d007650:	00000000 	nop
9d007654:	00021880 	sll	v1,v0,0x2
9d007658:	3c029d00 	lui	v0,0x9d00
9d00765c:	24427670 	addiu	v0,v0,30320
9d007660:	00621021 	addu	v0,v1,v0
9d007664:	8c420000 	lw	v0,0(v0)
9d007668:	00400008 	jr	v0
9d00766c:	00000000 	nop

9d007670 <__jump_Controller_4>:
9d007670:	9d007684 9d0076a4 9d00777c 9d007a40     .v...v..|w..@z..
9d007680:	9d007c44                                D|..

9d007684 <__jend_Controller_4>:
        case IDLE:
            OC1RS = 0;
9d007684:	3c02bf80 	lui	v0,0xbf80
9d007688:	ac403020 	sw	zero,12320(v0)
            LATBbits.LATB2 = 0; // Set direction to 0
9d00768c:	3c03bf88 	lui	v1,0xbf88
9d007690:	94626130 	lhu	v0,24880(v1)
9d007694:	7c021084 	ins	v0,zero,0x2,0x1
9d007698:	a4626130 	sh	v0,24880(v1)
            break;
9d00769c:	100001ee 	b	9d007e58 <__jend_Controller_4+0x7d4>
9d0076a0:	00000000 	nop
        
        case PWM:
            OC1RS = (PR3 + 1) * (abs(pwmDuty) / 100.0);
9d0076a4:	3c02bf80 	lui	v0,0xbf80
9d0076a8:	8c420a20 	lw	v0,2592(v0)
9d0076ac:	24420001 	addiu	v0,v0,1
9d0076b0:	00402025 	move	a0,v0
9d0076b4:	0f405073 	jal	9d0141cc <__floatunsidf>
9d0076b8:	00000000 	nop
9d0076bc:	00408025 	move	s0,v0
9d0076c0:	00608825 	move	s1,v1
9d0076c4:	8f828030 	lw	v0,-32720(gp)
9d0076c8:	00402025 	move	a0,v0
9d0076cc:	0f404d7b 	jal	9d0135ec <__fixsfsi>
9d0076d0:	00000000 	nop
9d0076d4:	00021fc3 	sra	v1,v0,0x1f
9d0076d8:	00621026 	xor	v0,v1,v0
9d0076dc:	00431023 	subu	v0,v0,v1
9d0076e0:	00402025 	move	a0,v0
9d0076e4:	0f404e18 	jal	9d013860 <__floatsidf>
9d0076e8:	00000000 	nop
9d0076ec:	00402025 	move	a0,v0
9d0076f0:	00602825 	move	a1,v1
9d0076f4:	3c029d01 	lui	v0,0x9d01
9d0076f8:	8c461880 	lw	a2,6272(v0)
9d0076fc:	8c471884 	lw	a3,6276(v0)
9d007700:	0f4033cc 	jal	9d00cf30 <__divdf3>
9d007704:	00000000 	nop
9d007708:	00403025 	move	a2,v0
9d00770c:	00603825 	move	a3,v1
9d007710:	02002025 	move	a0,s0
9d007714:	02202825 	move	a1,s1
9d007718:	0f403d0b 	jal	9d00f42c <__muldf3>
9d00771c:	00000000 	nop
9d007720:	00402025 	move	a0,v0
9d007724:	00602825 	move	a1,v1
9d007728:	0f404cd1 	jal	9d013344 <__fixunsdfsi>
9d00772c:	00000000 	nop
9d007730:	00401825 	move	v1,v0
9d007734:	3c02bf80 	lui	v0,0xbf80
9d007738:	ac433020 	sw	v1,12320(v0)
            LATBbits.LATB2 = (pwmDuty >= 0) ? 1 : 0;
9d00773c:	8f828030 	lw	v0,-32720(gp)
9d007740:	24100001 	li	s0,1
9d007744:	00002825 	move	a1,zero
9d007748:	00402025 	move	a0,v0
9d00774c:	0f404bcc 	jal	9d012f30 <__eqsf2>
9d007750:	00000000 	nop
9d007754:	04410002 	bgez	v0,9d007760 <__jend_Controller_4+0xdc>
9d007758:	00000000 	nop
9d00775c:	00008025 	move	s0,zero
9d007760:	320400ff 	andi	a0,s0,0xff
9d007764:	3c03bf88 	lui	v1,0xbf88
9d007768:	94626130 	lhu	v0,24880(v1)
9d00776c:	7c821084 	ins	v0,a0,0x2,0x1
9d007770:	a4626130 	sh	v0,24880(v1)
            break;
9d007774:	100001b8 	b	9d007e58 <__jend_Controller_4+0x7d4>
9d007778:	00000000 	nop
        
        case ITEST:
            if (counter % 25 == 0) { // Toggle reference at 0, 25, 50, 75 samples
9d00777c:	8f848054 	lw	a0,-32684(gp)
9d007780:	3c0251eb 	lui	v0,0x51eb
9d007784:	3442851f 	ori	v0,v0,0x851f
9d007788:	00820018 	mult	a0,v0
9d00778c:	00001010 	mfhi	v0
9d007790:	000218c3 	sra	v1,v0,0x3
9d007794:	000417c3 	sra	v0,a0,0x1f
9d007798:	00621823 	subu	v1,v1,v0
9d00779c:	00601025 	move	v0,v1
9d0077a0:	00021040 	sll	v0,v0,0x1
9d0077a4:	00431021 	addu	v0,v0,v1
9d0077a8:	000210c0 	sll	v0,v0,0x3
9d0077ac:	00431021 	addu	v0,v0,v1
9d0077b0:	00821823 	subu	v1,a0,v0
9d0077b4:	14600004 	bnez	v1,9d0077c8 <__jend_Controller_4+0x144>
9d0077b8:	00000000 	nop
                refCurrent = -refCurrent;
9d0077bc:	8f82801c 	lw	v0,-32740(gp)
9d0077c0:	00021023 	negu	v0,v0
9d0077c4:	af82801c 	sw	v0,-32740(gp)
            }
            
            actualCurrent = INA219_read_current();
9d0077c8:	0f4041e7 	jal	9d01079c <INA219_read_current>
9d0077cc:	00000000 	nop
9d0077d0:	00402025 	move	a0,v0
9d0077d4:	0f404d7b 	jal	9d0135ec <__fixsfsi>
9d0077d8:	00000000 	nop
9d0077dc:	afc20010 	sw	v0,16(s8)
            float error = refCurrent - actualCurrent;
9d0077e0:	8f83801c 	lw	v1,-32740(gp)
9d0077e4:	8fc20010 	lw	v0,16(s8)
9d0077e8:	00621023 	subu	v0,v1,v0
9d0077ec:	00402025 	move	a0,v0
9d0077f0:	0f404f41 	jal	9d013d04 <__floatsisf>
9d0077f4:	00000000 	nop
9d0077f8:	afc20014 	sw	v0,20(s8)
            integral = 0;
9d0077fc:	af808040 	sw	zero,-32704(gp)
            integral += error;
9d007800:	8f828040 	lw	v0,-32704(gp)
9d007804:	00402025 	move	a0,v0
9d007808:	0f404f41 	jal	9d013d04 <__floatsisf>
9d00780c:	00000000 	nop
9d007810:	8fc50014 	lw	a1,20(s8)
9d007814:	00402025 	move	a0,v0
9d007818:	0f40412c 	jal	9d0104b0 <__addsf3>
9d00781c:	00000000 	nop
9d007820:	00402025 	move	a0,v0
9d007824:	0f404d7b 	jal	9d0135ec <__fixsfsi>
9d007828:	00000000 	nop
9d00782c:	af828040 	sw	v0,-32704(gp)
            pwmDuty = (kp_mA * error) + (ki_mA * integral);
9d007830:	8f828010 	lw	v0,-32752(gp)
9d007834:	8fc50014 	lw	a1,20(s8)
9d007838:	00402025 	move	a0,v0
9d00783c:	0f40425d 	jal	9d010974 <__mulsf3>
9d007840:	00000000 	nop
9d007844:	00408025 	move	s0,v0
9d007848:	8f828040 	lw	v0,-32704(gp)
9d00784c:	00402025 	move	a0,v0
9d007850:	0f404f41 	jal	9d013d04 <__floatsisf>
9d007854:	00000000 	nop
9d007858:	00401825 	move	v1,v0
9d00785c:	8f828014 	lw	v0,-32748(gp)
9d007860:	00402825 	move	a1,v0
9d007864:	00602025 	move	a0,v1
9d007868:	0f40425d 	jal	9d010974 <__mulsf3>
9d00786c:	00000000 	nop
9d007870:	00402825 	move	a1,v0
9d007874:	02002025 	move	a0,s0
9d007878:	0f40412c 	jal	9d0104b0 <__addsf3>
9d00787c:	00000000 	nop
9d007880:	af828030 	sw	v0,-32720(gp)

            // Apply saturation limits
            if (pwmDuty > 100) pwmDuty = 100;
9d007884:	8f838030 	lw	v1,-32720(gp)
9d007888:	3c029d01 	lui	v0,0x9d01
9d00788c:	8c451888 	lw	a1,6280(v0)
9d007890:	00602025 	move	a0,v1
9d007894:	0f404bcc 	jal	9d012f30 <__eqsf2>
9d007898:	00000000 	nop
9d00789c:	18400006 	blez	v0,9d0078b8 <__jend_Controller_4+0x234>
9d0078a0:	00000000 	nop
9d0078a4:	3c029d01 	lui	v0,0x9d01
9d0078a8:	8c421888 	lw	v0,6280(v0)
9d0078ac:	af828030 	sw	v0,-32720(gp)
9d0078b0:	1000000c 	b	9d0078e4 <__jend_Controller_4+0x260>
9d0078b4:	00000000 	nop
            else if (pwmDuty < -100) pwmDuty = -100;
9d0078b8:	8f838030 	lw	v1,-32720(gp)
9d0078bc:	3c029d01 	lui	v0,0x9d01
9d0078c0:	8c45188c 	lw	a1,6284(v0)
9d0078c4:	00602025 	move	a0,v1
9d0078c8:	0f404bf3 	jal	9d012fcc <fpcmplt>
9d0078cc:	00000000 	nop
9d0078d0:	04410004 	bgez	v0,9d0078e4 <__jend_Controller_4+0x260>
9d0078d4:	00000000 	nop
9d0078d8:	3c029d01 	lui	v0,0x9d01
9d0078dc:	8c42188c 	lw	v0,6284(v0)
9d0078e0:	af828030 	sw	v0,-32720(gp)
            
            OC1RS = (PR3 + 1) * (abs(pwmDuty) / 100.0);
9d0078e4:	3c02bf80 	lui	v0,0xbf80
9d0078e8:	8c420a20 	lw	v0,2592(v0)
9d0078ec:	24420001 	addiu	v0,v0,1
9d0078f0:	00402025 	move	a0,v0
9d0078f4:	0f405073 	jal	9d0141cc <__floatunsidf>
9d0078f8:	00000000 	nop
9d0078fc:	00408025 	move	s0,v0
9d007900:	00608825 	move	s1,v1
9d007904:	8f828030 	lw	v0,-32720(gp)
9d007908:	00402025 	move	a0,v0
9d00790c:	0f404d7b 	jal	9d0135ec <__fixsfsi>
9d007910:	00000000 	nop
9d007914:	00021fc3 	sra	v1,v0,0x1f
9d007918:	00621026 	xor	v0,v1,v0
9d00791c:	00431023 	subu	v0,v0,v1
9d007920:	00402025 	move	a0,v0
9d007924:	0f404e18 	jal	9d013860 <__floatsidf>
9d007928:	00000000 	nop
9d00792c:	00402025 	move	a0,v0
9d007930:	00602825 	move	a1,v1
9d007934:	3c029d01 	lui	v0,0x9d01
9d007938:	8c461880 	lw	a2,6272(v0)
9d00793c:	8c471884 	lw	a3,6276(v0)
9d007940:	0f4033cc 	jal	9d00cf30 <__divdf3>
9d007944:	00000000 	nop
9d007948:	00403025 	move	a2,v0
9d00794c:	00603825 	move	a3,v1
9d007950:	02002025 	move	a0,s0
9d007954:	02202825 	move	a1,s1
9d007958:	0f403d0b 	jal	9d00f42c <__muldf3>
9d00795c:	00000000 	nop
9d007960:	00402025 	move	a0,v0
9d007964:	00602825 	move	a1,v1
9d007968:	0f404cd1 	jal	9d013344 <__fixunsdfsi>
9d00796c:	00000000 	nop
9d007970:	00401825 	move	v1,v0
9d007974:	3c02bf80 	lui	v0,0xbf80
9d007978:	ac433020 	sw	v1,12320(v0)
            LATBbits.LATB2 = (pwmDuty >= 0) ? 1 : 0;
9d00797c:	8f828030 	lw	v0,-32720(gp)
9d007980:	24100001 	li	s0,1
9d007984:	00002825 	move	a1,zero
9d007988:	00402025 	move	a0,v0
9d00798c:	0f404bcc 	jal	9d012f30 <__eqsf2>
9d007990:	00000000 	nop
9d007994:	04410002 	bgez	v0,9d0079a0 <__jend_Controller_4+0x31c>
9d007998:	00000000 	nop
9d00799c:	00008025 	move	s0,zero
9d0079a0:	320400ff 	andi	a0,s0,0xff
9d0079a4:	3c03bf88 	lui	v1,0xbf88
9d0079a8:	94626130 	lhu	v0,24880(v1)
9d0079ac:	7c821084 	ins	v0,a0,0x2,0x1
9d0079b0:	a4626130 	sh	v0,24880(v1)

            refCurrentArray[counter] = refCurrent;
9d0079b4:	8f848054 	lw	a0,-32684(gp)
9d0079b8:	8f83801c 	lw	v1,-32740(gp)
9d0079bc:	3c02a000 	lui	v0,0xa000
9d0079c0:	00042080 	sll	a0,a0,0x2
9d0079c4:	2442224c 	addiu	v0,v0,8780
9d0079c8:	00821021 	addu	v0,a0,v0
9d0079cc:	ac430000 	sw	v1,0(v0)
            actualCurrentArray[counter] = actualCurrent;
9d0079d0:	8f838054 	lw	v1,-32684(gp)
9d0079d4:	3c02a000 	lui	v0,0xa000
9d0079d8:	00031880 	sll	v1,v1,0x2
9d0079dc:	244220bc 	addiu	v0,v0,8380
9d0079e0:	00621021 	addu	v0,v1,v0
9d0079e4:	8fc30010 	lw	v1,16(s8)
9d0079e8:	ac430000 	sw	v1,0(v0)
            
            counter++;
9d0079ec:	8f828054 	lw	v0,-32684(gp)
9d0079f0:	24420001 	addiu	v0,v0,1
9d0079f4:	af828054 	sw	v0,-32684(gp)
            if (counter >= 100) {
9d0079f8:	8f828054 	lw	v0,-32684(gp)
9d0079fc:	28420064 	slti	v0,v0,100
9d007a00:	14400114 	bnez	v0,9d007e54 <__jend_Controller_4+0x7d0>
9d007a04:	00000000 	nop
                set_mode(IDLE);
9d007a08:	00002025 	move	a0,zero
9d007a0c:	0f404f6f 	jal	9d013dbc <set_mode>
9d007a10:	00000000 	nop
                sendDataToPython(refCurrentArray, actualCurrentArray, 100);
9d007a14:	24060064 	li	a2,100
9d007a18:	3c02a000 	lui	v0,0xa000
9d007a1c:	244520bc 	addiu	a1,v0,8380
9d007a20:	3c02a000 	lui	v0,0xa000
9d007a24:	2444224c 	addiu	a0,v0,8780
9d007a28:	0f402432 	jal	9d0090c8 <sendDataToPython>
9d007a2c:	00000000 	nop
                counter = 0;
9d007a30:	af808054 	sw	zero,-32684(gp)
                integral = 0;
9d007a34:	af808040 	sw	zero,-32704(gp)
            }
            break;
9d007a38:	10000106 	b	9d007e54 <__jend_Controller_4+0x7d0>
9d007a3c:	00000000 	nop
        case HOLD:{
            
            actualCurrent = -INA219_read_current();
9d007a40:	0f4041e7 	jal	9d01079c <INA219_read_current>
9d007a44:	00000000 	nop
9d007a48:	00401825 	move	v1,v0
9d007a4c:	3c028000 	lui	v0,0x8000
9d007a50:	00621026 	xor	v0,v1,v0
9d007a54:	00402025 	move	a0,v0
9d007a58:	0f404d7b 	jal	9d0135ec <__fixsfsi>
9d007a5c:	00000000 	nop
9d007a60:	afc20010 	sw	v0,16(s8)
            float hold_error = refCurrentFromPosition - actualCurrent;
9d007a64:	8f908048 	lw	s0,-32696(gp)
9d007a68:	8fc40010 	lw	a0,16(s8)
9d007a6c:	0f404f41 	jal	9d013d04 <__floatsisf>
9d007a70:	00000000 	nop
9d007a74:	00402825 	move	a1,v0
9d007a78:	02002025 	move	a0,s0
9d007a7c:	0f40412a 	jal	9d0104a8 <__subsf3>
9d007a80:	00000000 	nop
9d007a84:	afc20018 	sw	v0,24(s8)
            // char msg[100];
            // sprintf(msg, "hold_error = %f refCurrentFromPosition = %f actualCurrent = %f\r\n", hold_error, refCurrentFromPosition, actualCurrent);
            // NU32DIP_WriteUART1(msg);

            integral += hold_error;
9d007a88:	8f828040 	lw	v0,-32704(gp)
9d007a8c:	00402025 	move	a0,v0
9d007a90:	0f404f41 	jal	9d013d04 <__floatsisf>
9d007a94:	00000000 	nop
9d007a98:	8fc50018 	lw	a1,24(s8)
9d007a9c:	00402025 	move	a0,v0
9d007aa0:	0f40412c 	jal	9d0104b0 <__addsf3>
9d007aa4:	00000000 	nop
9d007aa8:	00402025 	move	a0,v0
9d007aac:	0f404d7b 	jal	9d0135ec <__fixsfsi>
9d007ab0:	00000000 	nop
9d007ab4:	af828040 	sw	v0,-32704(gp)
        
            pwmDuty = ((kp_mA * hold_error) + (ki_mA * integral));
9d007ab8:	8f828010 	lw	v0,-32752(gp)
9d007abc:	8fc50018 	lw	a1,24(s8)
9d007ac0:	00402025 	move	a0,v0
9d007ac4:	0f40425d 	jal	9d010974 <__mulsf3>
9d007ac8:	00000000 	nop
9d007acc:	00408025 	move	s0,v0
9d007ad0:	8f828040 	lw	v0,-32704(gp)
9d007ad4:	00402025 	move	a0,v0
9d007ad8:	0f404f41 	jal	9d013d04 <__floatsisf>
9d007adc:	00000000 	nop
9d007ae0:	00401825 	move	v1,v0
9d007ae4:	8f828014 	lw	v0,-32748(gp)
9d007ae8:	00402825 	move	a1,v0
9d007aec:	00602025 	move	a0,v1
9d007af0:	0f40425d 	jal	9d010974 <__mulsf3>
9d007af4:	00000000 	nop
9d007af8:	00402825 	move	a1,v0
9d007afc:	02002025 	move	a0,s0
9d007b00:	0f40412c 	jal	9d0104b0 <__addsf3>
9d007b04:	00000000 	nop
9d007b08:	af828030 	sw	v0,-32720(gp)
        // NU32DIP_WriteUART1(msg);
            // sprintf(msg,"pwmDuty = %d \n\r", pwmDuty);
            // NU32DIP_WriteUART1(msg);
        
            // Apply saturation limits
            if (pwmDuty > 100) pwmDuty = 100;
9d007b0c:	8f838030 	lw	v1,-32720(gp)
9d007b10:	3c029d01 	lui	v0,0x9d01
9d007b14:	8c451888 	lw	a1,6280(v0)
9d007b18:	00602025 	move	a0,v1
9d007b1c:	0f404bcc 	jal	9d012f30 <__eqsf2>
9d007b20:	00000000 	nop
9d007b24:	18400006 	blez	v0,9d007b40 <__jend_Controller_4+0x4bc>
9d007b28:	00000000 	nop
9d007b2c:	3c029d01 	lui	v0,0x9d01
9d007b30:	8c421888 	lw	v0,6280(v0)
9d007b34:	af828030 	sw	v0,-32720(gp)
9d007b38:	1000000c 	b	9d007b6c <__jend_Controller_4+0x4e8>
9d007b3c:	00000000 	nop
            else if (pwmDuty < -100) pwmDuty = -100;
9d007b40:	8f838030 	lw	v1,-32720(gp)
9d007b44:	3c029d01 	lui	v0,0x9d01
9d007b48:	8c45188c 	lw	a1,6284(v0)
9d007b4c:	00602025 	move	a0,v1
9d007b50:	0f404bf3 	jal	9d012fcc <fpcmplt>
9d007b54:	00000000 	nop
9d007b58:	04410004 	bgez	v0,9d007b6c <__jend_Controller_4+0x4e8>
9d007b5c:	00000000 	nop
9d007b60:	3c029d01 	lui	v0,0x9d01
9d007b64:	8c42188c 	lw	v0,6284(v0)
9d007b68:	af828030 	sw	v0,-32720(gp)

            
        
            OC1RS = (PR3 + 1) * (abs(pwmDuty) / 100.0);
9d007b6c:	3c02bf80 	lui	v0,0xbf80
9d007b70:	8c420a20 	lw	v0,2592(v0)
9d007b74:	24420001 	addiu	v0,v0,1
9d007b78:	00402025 	move	a0,v0
9d007b7c:	0f405073 	jal	9d0141cc <__floatunsidf>
9d007b80:	00000000 	nop
9d007b84:	00408025 	move	s0,v0
9d007b88:	00608825 	move	s1,v1
9d007b8c:	8f828030 	lw	v0,-32720(gp)
9d007b90:	00402025 	move	a0,v0
9d007b94:	0f404d7b 	jal	9d0135ec <__fixsfsi>
9d007b98:	00000000 	nop
9d007b9c:	00021fc3 	sra	v1,v0,0x1f
9d007ba0:	00621026 	xor	v0,v1,v0
9d007ba4:	00431023 	subu	v0,v0,v1
9d007ba8:	00402025 	move	a0,v0
9d007bac:	0f404e18 	jal	9d013860 <__floatsidf>
9d007bb0:	00000000 	nop
9d007bb4:	00402025 	move	a0,v0
9d007bb8:	00602825 	move	a1,v1
9d007bbc:	3c029d01 	lui	v0,0x9d01
9d007bc0:	8c461880 	lw	a2,6272(v0)
9d007bc4:	8c471884 	lw	a3,6276(v0)
9d007bc8:	0f4033cc 	jal	9d00cf30 <__divdf3>
9d007bcc:	00000000 	nop
9d007bd0:	00403025 	move	a2,v0
9d007bd4:	00603825 	move	a3,v1
9d007bd8:	02002025 	move	a0,s0
9d007bdc:	02202825 	move	a1,s1
9d007be0:	0f403d0b 	jal	9d00f42c <__muldf3>
9d007be4:	00000000 	nop
9d007be8:	00402025 	move	a0,v0
9d007bec:	00602825 	move	a1,v1
9d007bf0:	0f404cd1 	jal	9d013344 <__fixunsdfsi>
9d007bf4:	00000000 	nop
9d007bf8:	00401825 	move	v1,v0
9d007bfc:	3c02bf80 	lui	v0,0xbf80
9d007c00:	ac433020 	sw	v1,12320(v0)
            LATBbits.LATB2 = (pwmDuty >= 0) ? 1 : 0;
9d007c04:	8f828030 	lw	v0,-32720(gp)
9d007c08:	24100001 	li	s0,1
9d007c0c:	00002825 	move	a1,zero
9d007c10:	00402025 	move	a0,v0
9d007c14:	0f404bcc 	jal	9d012f30 <__eqsf2>
9d007c18:	00000000 	nop
9d007c1c:	04410002 	bgez	v0,9d007c28 <__jend_Controller_4+0x5a4>
9d007c20:	00000000 	nop
9d007c24:	00008025 	move	s0,zero
9d007c28:	320400ff 	andi	a0,s0,0xff
9d007c2c:	3c03bf88 	lui	v1,0xbf88
9d007c30:	94626130 	lhu	v0,24880(v1)
9d007c34:	7c821084 	ins	v0,a0,0x2,0x1
9d007c38:	a4626130 	sh	v0,24880(v1)
            break;
9d007c3c:	10000086 	b	9d007e58 <__jend_Controller_4+0x7d4>
9d007c40:	00000000 	nop
        }
        case TRACK: {
            actualCurrent = -INA219_read_current();
9d007c44:	0f4041e7 	jal	9d01079c <INA219_read_current>
9d007c48:	00000000 	nop
9d007c4c:	00401825 	move	v1,v0
9d007c50:	3c028000 	lui	v0,0x8000
9d007c54:	00621026 	xor	v0,v1,v0
9d007c58:	00402025 	move	a0,v0
9d007c5c:	0f404d7b 	jal	9d0135ec <__fixsfsi>
9d007c60:	00000000 	nop
9d007c64:	afc20010 	sw	v0,16(s8)
            float track_error = refCurrentFromPosition - actualCurrent;
9d007c68:	8f908048 	lw	s0,-32696(gp)
9d007c6c:	8fc40010 	lw	a0,16(s8)
9d007c70:	0f404f41 	jal	9d013d04 <__floatsisf>
9d007c74:	00000000 	nop
9d007c78:	00402825 	move	a1,v0
9d007c7c:	02002025 	move	a0,s0
9d007c80:	0f40412a 	jal	9d0104a8 <__subsf3>
9d007c84:	00000000 	nop
9d007c88:	afc2001c 	sw	v0,28(s8)
        
            integral += track_error;
9d007c8c:	8f828040 	lw	v0,-32704(gp)
9d007c90:	00402025 	move	a0,v0
9d007c94:	0f404f41 	jal	9d013d04 <__floatsisf>
9d007c98:	00000000 	nop
9d007c9c:	8fc5001c 	lw	a1,28(s8)
9d007ca0:	00402025 	move	a0,v0
9d007ca4:	0f40412c 	jal	9d0104b0 <__addsf3>
9d007ca8:	00000000 	nop
9d007cac:	00402025 	move	a0,v0
9d007cb0:	0f404d7b 	jal	9d0135ec <__fixsfsi>
9d007cb4:	00000000 	nop
9d007cb8:	af828040 	sw	v0,-32704(gp)
            pwmDuty = ((kp_mA * track_error) + (ki_mA * integral));
9d007cbc:	8f828010 	lw	v0,-32752(gp)
9d007cc0:	8fc5001c 	lw	a1,28(s8)
9d007cc4:	00402025 	move	a0,v0
9d007cc8:	0f40425d 	jal	9d010974 <__mulsf3>
9d007ccc:	00000000 	nop
9d007cd0:	00408025 	move	s0,v0
9d007cd4:	8f828040 	lw	v0,-32704(gp)
9d007cd8:	00402025 	move	a0,v0
9d007cdc:	0f404f41 	jal	9d013d04 <__floatsisf>
9d007ce0:	00000000 	nop
9d007ce4:	00401825 	move	v1,v0
9d007ce8:	8f828014 	lw	v0,-32748(gp)
9d007cec:	00402825 	move	a1,v0
9d007cf0:	00602025 	move	a0,v1
9d007cf4:	0f40425d 	jal	9d010974 <__mulsf3>
9d007cf8:	00000000 	nop
9d007cfc:	00402825 	move	a1,v0
9d007d00:	02002025 	move	a0,s0
9d007d04:	0f40412c 	jal	9d0104b0 <__addsf3>
9d007d08:	00000000 	nop
9d007d0c:	af828030 	sw	v0,-32720(gp)
        
            if (pwmDuty > 100) pwmDuty = 100;
9d007d10:	8f838030 	lw	v1,-32720(gp)
9d007d14:	3c029d01 	lui	v0,0x9d01
9d007d18:	8c451888 	lw	a1,6280(v0)
9d007d1c:	00602025 	move	a0,v1
9d007d20:	0f404bcc 	jal	9d012f30 <__eqsf2>
9d007d24:	00000000 	nop
9d007d28:	18400006 	blez	v0,9d007d44 <__jend_Controller_4+0x6c0>
9d007d2c:	00000000 	nop
9d007d30:	3c029d01 	lui	v0,0x9d01
9d007d34:	8c421888 	lw	v0,6280(v0)
9d007d38:	af828030 	sw	v0,-32720(gp)
9d007d3c:	1000000c 	b	9d007d70 <__jend_Controller_4+0x6ec>
9d007d40:	00000000 	nop
            else if (pwmDuty < -100) pwmDuty = -100;
9d007d44:	8f838030 	lw	v1,-32720(gp)
9d007d48:	3c029d01 	lui	v0,0x9d01
9d007d4c:	8c45188c 	lw	a1,6284(v0)
9d007d50:	00602025 	move	a0,v1
9d007d54:	0f404bf3 	jal	9d012fcc <fpcmplt>
9d007d58:	00000000 	nop
9d007d5c:	04410004 	bgez	v0,9d007d70 <__jend_Controller_4+0x6ec>
9d007d60:	00000000 	nop
9d007d64:	3c029d01 	lui	v0,0x9d01
9d007d68:	8c42188c 	lw	v0,6284(v0)
9d007d6c:	af828030 	sw	v0,-32720(gp)
        
            OC1RS = (PR3 + 1) * (abs(pwmDuty) / 100.0);
9d007d70:	3c02bf80 	lui	v0,0xbf80
9d007d74:	8c420a20 	lw	v0,2592(v0)
9d007d78:	24420001 	addiu	v0,v0,1
9d007d7c:	00402025 	move	a0,v0
9d007d80:	0f405073 	jal	9d0141cc <__floatunsidf>
9d007d84:	00000000 	nop
9d007d88:	00408025 	move	s0,v0
9d007d8c:	00608825 	move	s1,v1
9d007d90:	8f828030 	lw	v0,-32720(gp)
9d007d94:	00402025 	move	a0,v0
9d007d98:	0f404d7b 	jal	9d0135ec <__fixsfsi>
9d007d9c:	00000000 	nop
9d007da0:	00021fc3 	sra	v1,v0,0x1f
9d007da4:	00621026 	xor	v0,v1,v0
9d007da8:	00431023 	subu	v0,v0,v1
9d007dac:	00402025 	move	a0,v0
9d007db0:	0f404e18 	jal	9d013860 <__floatsidf>
9d007db4:	00000000 	nop
9d007db8:	00402025 	move	a0,v0
9d007dbc:	00602825 	move	a1,v1
9d007dc0:	3c029d01 	lui	v0,0x9d01
9d007dc4:	8c461880 	lw	a2,6272(v0)
9d007dc8:	8c471884 	lw	a3,6276(v0)
9d007dcc:	0f4033cc 	jal	9d00cf30 <__divdf3>
9d007dd0:	00000000 	nop
9d007dd4:	00403025 	move	a2,v0
9d007dd8:	00603825 	move	a3,v1
9d007ddc:	02002025 	move	a0,s0
9d007de0:	02202825 	move	a1,s1
9d007de4:	0f403d0b 	jal	9d00f42c <__muldf3>
9d007de8:	00000000 	nop
9d007dec:	00402025 	move	a0,v0
9d007df0:	00602825 	move	a1,v1
9d007df4:	0f404cd1 	jal	9d013344 <__fixunsdfsi>
9d007df8:	00000000 	nop
9d007dfc:	00401825 	move	v1,v0
9d007e00:	3c02bf80 	lui	v0,0xbf80
9d007e04:	ac433020 	sw	v1,12320(v0)
            LATBbits.LATB2 = (pwmDuty >= 0) ? 1 : 0;
9d007e08:	8f828030 	lw	v0,-32720(gp)
9d007e0c:	24100001 	li	s0,1
9d007e10:	00002825 	move	a1,zero
9d007e14:	00402025 	move	a0,v0
9d007e18:	0f404bcc 	jal	9d012f30 <__eqsf2>
9d007e1c:	00000000 	nop
9d007e20:	04410002 	bgez	v0,9d007e2c <__jend_Controller_4+0x7a8>
9d007e24:	00000000 	nop
9d007e28:	00008025 	move	s0,zero
9d007e2c:	320400ff 	andi	a0,s0,0xff
9d007e30:	3c03bf88 	lui	v1,0xbf88
9d007e34:	94626130 	lhu	v0,24880(v1)
9d007e38:	7c821084 	ins	v0,a0,0x2,0x1
9d007e3c:	a4626130 	sh	v0,24880(v1)
            break;
9d007e40:	10000005 	b	9d007e58 <__jend_Controller_4+0x7d4>
9d007e44:	00000000 	nop
        }
        

        default:
        
            break;
9d007e48:	00000000 	nop
9d007e4c:	10000002 	b	9d007e58 <__jend_Controller_4+0x7d4>
9d007e50:	00000000 	nop
            break;
9d007e54:	00000000 	nop
    }
    
    IFS0bits.T2IF = 0; // Clear interrupt flag
9d007e58:	3c03bf88 	lui	v1,0xbf88
9d007e5c:	8c621030 	lw	v0,4144(v1)
9d007e60:	7c024a44 	ins	v0,zero,0x9,0x1
9d007e64:	ac621030 	sw	v0,4144(v1)
}
9d007e68:	00000000 	nop
9d007e6c:	03c0e825 	move	sp,s8
9d007e70:	8fa2007c 	lw	v0,124(sp)
9d007e74:	00400013 	mtlo	v0
9d007e78:	8fa30078 	lw	v1,120(sp)
9d007e7c:	00600011 	mthi	v1
9d007e80:	8fbf0074 	lw	ra,116(sp)
9d007e84:	8fbe0070 	lw	s8,112(sp)
9d007e88:	8fb9006c 	lw	t9,108(sp)
9d007e8c:	8fb80068 	lw	t8,104(sp)
9d007e90:	8fb10064 	lw	s1,100(sp)
9d007e94:	8fb00060 	lw	s0,96(sp)
9d007e98:	8faf005c 	lw	t7,92(sp)
9d007e9c:	8fae0058 	lw	t6,88(sp)
9d007ea0:	8fad0054 	lw	t5,84(sp)
9d007ea4:	8fac0050 	lw	t4,80(sp)
9d007ea8:	8fab004c 	lw	t3,76(sp)
9d007eac:	8faa0048 	lw	t2,72(sp)
9d007eb0:	8fa90044 	lw	t1,68(sp)
9d007eb4:	8fa80040 	lw	t0,64(sp)
9d007eb8:	8fa7003c 	lw	a3,60(sp)
9d007ebc:	8fa60038 	lw	a2,56(sp)
9d007ec0:	8fa50034 	lw	a1,52(sp)
9d007ec4:	8fa40030 	lw	a0,48(sp)
9d007ec8:	8fa3002c 	lw	v1,44(sp)
9d007ecc:	8fa20028 	lw	v0,40(sp)
9d007ed0:	8fa10024 	lw	at,36(sp)
9d007ed4:	41606000 	di
9d007ed8:	000000c0 	ehb
9d007edc:	8fba008c 	lw	k0,140(sp)
9d007ee0:	8fbb0088 	lw	k1,136(sp)
9d007ee4:	409a7000 	mtc0	k0,c0_epc
9d007ee8:	8fba0084 	lw	k0,132(sp)
9d007eec:	27bd0090 	addiu	sp,sp,144
9d007ef0:	409a6002 	mtc0	k0,c0_srsctl
9d007ef4:	41dde800 	wrpgpr	sp,sp
9d007ef8:	409b6000 	mtc0	k1,c0_status
9d007efc:	42000018 	eret

9d007f00 <PositionController>:

/**
 * Timer 1 ISR - position Control Loop (200 Hz)
 */
void __ISR(_TIMER_1_VECTOR, IPL6SOFT) PositionController(void)
{
9d007f00:	415de800 	rdpgpr	sp,sp
9d007f04:	401a7000 	mfc0	k0,c0_epc
9d007f08:	401b6000 	mfc0	k1,c0_status
9d007f0c:	27bdff08 	addiu	sp,sp,-248
9d007f10:	afba00f4 	sw	k0,244(sp)
9d007f14:	401a6002 	mfc0	k0,c0_srsctl
9d007f18:	afbb00f0 	sw	k1,240(sp)
9d007f1c:	afba00ec 	sw	k0,236(sp)
9d007f20:	7c1b7844 	ins	k1,zero,0x1,0xf
9d007f24:	377b1800 	ori	k1,k1,0x1800
9d007f28:	409b6000 	mtc0	k1,c0_status
9d007f2c:	afbf00dc 	sw	ra,220(sp)
9d007f30:	afbe00d8 	sw	s8,216(sp)
9d007f34:	afb900d4 	sw	t9,212(sp)
9d007f38:	afb800d0 	sw	t8,208(sp)
9d007f3c:	afb000cc 	sw	s0,204(sp)
9d007f40:	afaf00c8 	sw	t7,200(sp)
9d007f44:	afae00c4 	sw	t6,196(sp)
9d007f48:	afad00c0 	sw	t5,192(sp)
9d007f4c:	afac00bc 	sw	t4,188(sp)
9d007f50:	afab00b8 	sw	t3,184(sp)
9d007f54:	afaa00b4 	sw	t2,180(sp)
9d007f58:	afa900b0 	sw	t1,176(sp)
9d007f5c:	afa800ac 	sw	t0,172(sp)
9d007f60:	afa700a8 	sw	a3,168(sp)
9d007f64:	afa600a4 	sw	a2,164(sp)
9d007f68:	afa500a0 	sw	a1,160(sp)
9d007f6c:	afa4009c 	sw	a0,156(sp)
9d007f70:	afa30098 	sw	v1,152(sp)
9d007f74:	afa20094 	sw	v0,148(sp)
9d007f78:	afa10090 	sw	at,144(sp)
9d007f7c:	00001012 	mflo	v0
9d007f80:	afa200e4 	sw	v0,228(sp)
9d007f84:	00001810 	mfhi	v1
9d007f88:	afa300e0 	sw	v1,224(sp)
9d007f8c:	03a0f025 	move	s8,sp
    // if (get_mode() != 0){
    //     char msg[50];
    //     sprintf(msg,"Mode = %d\n\r", get_mode());
    //     NU32DIP_WriteUART1(msg);
    // }
    mode_t the_mode = get_mode();
9d007f90:	0f404f7b 	jal	9d013dec <get_mode>
9d007f94:	00000000 	nop
9d007f98:	afc20014 	sw	v0,20(s8)

    
    switch (the_mode)
9d007f9c:	8fc30014 	lw	v1,20(s8)
9d007fa0:	24020003 	li	v0,3
9d007fa4:	10620007 	beq	v1,v0,9d007fc4 <PositionController+0xc4>
9d007fa8:	00000000 	nop
9d007fac:	8fc30014 	lw	v1,20(s8)
9d007fb0:	24020004 	li	v0,4
9d007fb4:	10620097 	beq	v1,v0,9d008214 <PositionController+0x314>
9d007fb8:	00000000 	nop
9d007fbc:	1000014d 	b	9d0084f4 <PositionController+0x5f4>
9d007fc0:	00000000 	nop
    {
    case HOLD:
        {   
            WriteUART2("a");
9d007fc4:	3c029d01 	lui	v0,0x9d01
9d007fc8:	24441778 	addiu	a0,v0,6008
9d007fcc:	0f403abf 	jal	9d00eafc <WriteUART2>
9d007fd0:	00000000 	nop
            while (!get_encoder_flag()){};
9d007fd4:	00000000 	nop
9d007fd8:	0f403a39 	jal	9d00e8e4 <get_encoder_flag>
9d007fdc:	00000000 	nop
9d007fe0:	1040fffd 	beqz	v0,9d007fd8 <PositionController+0xd8>
9d007fe4:	00000000 	nop
            set_encoder_flag(0);
9d007fe8:	00002025 	move	a0,zero
9d007fec:	0f403a42 	jal	9d00e908 <set_encoder_flag>
9d007ff0:	00000000 	nop

            // sprintf(msg,"AFTER\n\r");
            // NU32DIP_WriteUART1(msg);

            float actualAngle = 360.0 * ((float)get_encoder_count() / (334.0 * 4.0));
9d007ff4:	0f403a4e 	jal	9d00e938 <get_encoder_count>
9d007ff8:	00000000 	nop
9d007ffc:	00402025 	move	a0,v0
9d008000:	0f404f41 	jal	9d013d04 <__floatsisf>
9d008004:	00000000 	nop
9d008008:	00402025 	move	a0,v0
9d00800c:	0f404aac 	jal	9d012ab0 <__extendsfdf2>
9d008010:	00000000 	nop
9d008014:	00402025 	move	a0,v0
9d008018:	00602825 	move	a1,v1
9d00801c:	3c029d01 	lui	v0,0x9d01
9d008020:	8c461890 	lw	a2,6288(v0)
9d008024:	8c471894 	lw	a3,6292(v0)
9d008028:	0f4033cc 	jal	9d00cf30 <__divdf3>
9d00802c:	00000000 	nop
9d008030:	00402025 	move	a0,v0
9d008034:	00602825 	move	a1,v1
9d008038:	3c029d01 	lui	v0,0x9d01
9d00803c:	8c461898 	lw	a2,6296(v0)
9d008040:	8c47189c 	lw	a3,6300(v0)
9d008044:	0f403d0b 	jal	9d00f42c <__muldf3>
9d008048:	00000000 	nop
9d00804c:	00402025 	move	a0,v0
9d008050:	00602825 	move	a1,v1
9d008054:	0f404818 	jal	9d012060 <__truncdfsf2>
9d008058:	00000000 	nop
9d00805c:	afc20018 	sw	v0,24(s8)
            // PID Controller
            float errorAng = desired_deg - actualAngle;
9d008060:	8f82803c 	lw	v0,-32708(gp)
9d008064:	8fc50018 	lw	a1,24(s8)
9d008068:	00402025 	move	a0,v0
9d00806c:	0f40412a 	jal	9d0104a8 <__subsf3>
9d008070:	00000000 	nop
9d008074:	afc20010 	sw	v0,16(s8)

            

            if (!errorAng){
9d008078:	00002825 	move	a1,zero
9d00807c:	8fc40010 	lw	a0,16(s8)
9d008080:	0f404bcc 	jal	9d012f30 <__eqsf2>
9d008084:	00000000 	nop
9d008088:	14400003 	bnez	v0,9d008098 <PositionController+0x198>
9d00808c:	00000000 	nop
                errorAng = 0;
9d008090:	00001025 	move	v0,zero
9d008094:	afc20010 	sw	v0,16(s8)
            }

            
            static int integralAngle = 0;
            integralAngle += errorAng;
9d008098:	8f828058 	lw	v0,-32680(gp)
9d00809c:	00402025 	move	a0,v0
9d0080a0:	0f404f41 	jal	9d013d04 <__floatsisf>
9d0080a4:	00000000 	nop
9d0080a8:	8fc50010 	lw	a1,16(s8)
9d0080ac:	00402025 	move	a0,v0
9d0080b0:	0f40412c 	jal	9d0104b0 <__addsf3>
9d0080b4:	00000000 	nop
9d0080b8:	00402025 	move	a0,v0
9d0080bc:	0f404d7b 	jal	9d0135ec <__fixsfsi>
9d0080c0:	00000000 	nop
9d0080c4:	af828058 	sw	v0,-32680(gp)

            if (integralAngle > 5000) integralAngle = 5000;
9d0080c8:	8f828058 	lw	v0,-32680(gp)
9d0080cc:	28421389 	slti	v0,v0,5001
9d0080d0:	14400005 	bnez	v0,9d0080e8 <PositionController+0x1e8>
9d0080d4:	00000000 	nop
9d0080d8:	24021388 	li	v0,5000
9d0080dc:	af828058 	sw	v0,-32680(gp)
9d0080e0:	10000007 	b	9d008100 <PositionController+0x200>
9d0080e4:	00000000 	nop
            else if (integralAngle < -5000) integralAngle = -5000;
9d0080e8:	8f828058 	lw	v0,-32680(gp)
9d0080ec:	2842ec78 	slti	v0,v0,-5000
9d0080f0:	10400003 	beqz	v0,9d008100 <PositionController+0x200>
9d0080f4:	00000000 	nop
9d0080f8:	2402ec78 	li	v0,-5000
9d0080fc:	af828058 	sw	v0,-32680(gp)


            refCurrentFromPosition = (kp_deg * errorAng) +
9d008100:	8f828018 	lw	v0,-32744(gp)
9d008104:	8fc50010 	lw	a1,16(s8)
9d008108:	00402025 	move	a0,v0
9d00810c:	0f40425d 	jal	9d010974 <__mulsf3>
9d008110:	00000000 	nop
9d008114:	00408025 	move	s0,v0
                            (ki_deg * integralAngle) +
9d008118:	8f828058 	lw	v0,-32680(gp)
9d00811c:	00402025 	move	a0,v0
9d008120:	0f404f41 	jal	9d013d04 <__floatsisf>
9d008124:	00000000 	nop
9d008128:	00401825 	move	v1,v0
9d00812c:	8f828034 	lw	v0,-32716(gp)
9d008130:	00402825 	move	a1,v0
9d008134:	00602025 	move	a0,v1
9d008138:	0f40425d 	jal	9d010974 <__mulsf3>
9d00813c:	00000000 	nop
            refCurrentFromPosition = (kp_deg * errorAng) +
9d008140:	00402825 	move	a1,v0
9d008144:	02002025 	move	a0,s0
9d008148:	0f40412c 	jal	9d0104b0 <__addsf3>
9d00814c:	00000000 	nop
9d008150:	00408025 	move	s0,v0
                            (kd_deg * (errorAng - prevError));
9d008154:	8f828044 	lw	v0,-32700(gp)
9d008158:	00402825 	move	a1,v0
9d00815c:	8fc40010 	lw	a0,16(s8)
9d008160:	0f40412a 	jal	9d0104a8 <__subsf3>
9d008164:	00000000 	nop
9d008168:	00401825 	move	v1,v0
9d00816c:	8f828038 	lw	v0,-32712(gp)
9d008170:	00402825 	move	a1,v0
9d008174:	00602025 	move	a0,v1
9d008178:	0f40425d 	jal	9d010974 <__mulsf3>
9d00817c:	00000000 	nop
                            (ki_deg * integralAngle) +
9d008180:	00402825 	move	a1,v0
9d008184:	02002025 	move	a0,s0
9d008188:	0f40412c 	jal	9d0104b0 <__addsf3>
9d00818c:	00000000 	nop
            refCurrentFromPosition = (kp_deg * errorAng) +
9d008190:	af828048 	sw	v0,-32696(gp)
            float cap = 500;
9d008194:	3c029d01 	lui	v0,0x9d01
9d008198:	8c4218a0 	lw	v0,6304(v0)
9d00819c:	afc2001c 	sw	v0,28(s8)
            if (refCurrentFromPosition > cap)
9d0081a0:	8f828048 	lw	v0,-32696(gp)
9d0081a4:	00402825 	move	a1,v0
9d0081a8:	8fc4001c 	lw	a0,28(s8)
9d0081ac:	0f404bf3 	jal	9d012fcc <fpcmplt>
9d0081b0:	00000000 	nop
9d0081b4:	04410005 	bgez	v0,9d0081cc <PositionController+0x2cc>
9d0081b8:	00000000 	nop
            {
                refCurrentFromPosition = cap; // upper bound
9d0081bc:	8fc2001c 	lw	v0,28(s8)
9d0081c0:	af828048 	sw	v0,-32696(gp)
9d0081c4:	1000000f 	b	9d008204 <PositionController+0x304>
9d0081c8:	00000000 	nop
            }
            else if (refCurrentFromPosition < -cap)
9d0081cc:	8fc3001c 	lw	v1,28(s8)
9d0081d0:	3c028000 	lui	v0,0x8000
9d0081d4:	00621026 	xor	v0,v1,v0
9d0081d8:	8f838048 	lw	v1,-32696(gp)
9d0081dc:	00602825 	move	a1,v1
9d0081e0:	00402025 	move	a0,v0
9d0081e4:	0f404bcc 	jal	9d012f30 <__eqsf2>
9d0081e8:	00000000 	nop
9d0081ec:	18400005 	blez	v0,9d008204 <PositionController+0x304>
9d0081f0:	00000000 	nop
            {
                refCurrentFromPosition = -cap; // lower bound
9d0081f4:	8fc3001c 	lw	v1,28(s8)
9d0081f8:	3c028000 	lui	v0,0x8000
9d0081fc:	00621026 	xor	v0,v1,v0
9d008200:	af828048 	sw	v0,-32696(gp)
            }
            
            prevError = errorAng;
9d008204:	8fc20010 	lw	v0,16(s8)
9d008208:	af828044 	sw	v0,-32700(gp)
            break;
9d00820c:	100000bc 	b	9d008500 <PositionController+0x600>
9d008210:	00000000 	nop
            
        }
    case TRACK: {
        if (trajectory_index < trajectory_length) {
9d008214:	8f838050 	lw	v1,-32688(gp)
9d008218:	8f82804c 	lw	v0,-32692(gp)
9d00821c:	0062102a 	slt	v0,v1,v0
9d008220:	1040000d 	beqz	v0,9d008258 <PositionController+0x358>
9d008224:	00000000 	nop
            desired_deg = trajectory[trajectory_index]; // Set desired position
9d008228:	8f838050 	lw	v1,-32688(gp)
9d00822c:	3c02a000 	lui	v0,0xa000
9d008230:	00031880 	sll	v1,v1,0x2
9d008234:	244200b8 	addiu	v0,v0,184
9d008238:	00621021 	addu	v0,v1,v0
9d00823c:	8c420000 	lw	v0,0(v0)
9d008240:	af82803c 	sw	v0,-32708(gp)
            trajectory_index++;
9d008244:	8f828050 	lw	v0,-32688(gp)
9d008248:	24420001 	addiu	v0,v0,1
9d00824c:	af828050 	sw	v0,-32688(gp)
9d008250:	10000015 	b	9d0082a8 <PositionController+0x3a8>
9d008254:	00000000 	nop
        } else {
            WriteUART2("b");
9d008258:	3c029d01 	lui	v0,0x9d01
9d00825c:	2444177c 	addiu	a0,v0,6012
9d008260:	0f403abf 	jal	9d00eafc <WriteUART2>
9d008264:	00000000 	nop
            set_mode(HOLD);  // Hold the last position
9d008268:	24040003 	li	a0,3
9d00826c:	0f404f6f 	jal	9d013dbc <set_mode>
9d008270:	00000000 	nop
            char debug_msg[100];
            sprintf(debug_msg, "Completed trajectory, trajectory_index reset, new mode: %d\n\r", get_mode());
9d008274:	0f404f7b 	jal	9d013dec <get_mode>
9d008278:	00000000 	nop
9d00827c:	27c3002c 	addiu	v1,s8,44
9d008280:	00403025 	move	a2,v0
9d008284:	3c029d01 	lui	v0,0x9d01
9d008288:	24451780 	addiu	a1,v0,6016
9d00828c:	00602025 	move	a0,v1
9d008290:	0f4051ca 	jal	9d014728 <_dsprintf_deEfFgGnu>
9d008294:	00000000 	nop
            NU32DIP_WriteUART1(debug_msg);
9d008298:	27c2002c 	addiu	v0,s8,44
9d00829c:	00402025 	move	a0,v0
9d0082a0:	0f403e6a 	jal	9d00f9a8 <NU32DIP_WriteUART1>
9d0082a4:	00000000 	nop
            // sendDataToPython(trajectory, actualTrajectory, trajectory_length);
        }
    
        // Encoder reading and PID calculations remain the same
        WriteUART2("a");
9d0082a8:	3c029d01 	lui	v0,0x9d01
9d0082ac:	24441778 	addiu	a0,v0,6008
9d0082b0:	0f403abf 	jal	9d00eafc <WriteUART2>
9d0082b4:	00000000 	nop
        while (!get_encoder_flag()){};
9d0082b8:	00000000 	nop
9d0082bc:	0f403a39 	jal	9d00e8e4 <get_encoder_flag>
9d0082c0:	00000000 	nop
9d0082c4:	1040fffd 	beqz	v0,9d0082bc <PositionController+0x3bc>
9d0082c8:	00000000 	nop
        set_encoder_flag(0);
9d0082cc:	00002025 	move	a0,zero
9d0082d0:	0f403a42 	jal	9d00e908 <set_encoder_flag>
9d0082d4:	00000000 	nop
        
        float actualAngle = 360.0 * ((float)get_encoder_count() / (334.0 * 4.0));
9d0082d8:	0f403a4e 	jal	9d00e938 <get_encoder_count>
9d0082dc:	00000000 	nop
9d0082e0:	00402025 	move	a0,v0
9d0082e4:	0f404f41 	jal	9d013d04 <__floatsisf>
9d0082e8:	00000000 	nop
9d0082ec:	00402025 	move	a0,v0
9d0082f0:	0f404aac 	jal	9d012ab0 <__extendsfdf2>
9d0082f4:	00000000 	nop
9d0082f8:	00402025 	move	a0,v0
9d0082fc:	00602825 	move	a1,v1
9d008300:	3c029d01 	lui	v0,0x9d01
9d008304:	8c461890 	lw	a2,6288(v0)
9d008308:	8c471894 	lw	a3,6292(v0)
9d00830c:	0f4033cc 	jal	9d00cf30 <__divdf3>
9d008310:	00000000 	nop
9d008314:	00402025 	move	a0,v0
9d008318:	00602825 	move	a1,v1
9d00831c:	3c029d01 	lui	v0,0x9d01
9d008320:	8c461898 	lw	a2,6296(v0)
9d008324:	8c47189c 	lw	a3,6300(v0)
9d008328:	0f403d0b 	jal	9d00f42c <__muldf3>
9d00832c:	00000000 	nop
9d008330:	00402025 	move	a0,v0
9d008334:	00602825 	move	a1,v1
9d008338:	0f404818 	jal	9d012060 <__truncdfsf2>
9d00833c:	00000000 	nop
9d008340:	afc20020 	sw	v0,32(s8)
        actualTrajectory[trajectory_index] = actualAngle;
9d008344:	8f838050 	lw	v1,-32688(gp)
9d008348:	3c02a000 	lui	v0,0xa000
9d00834c:	00031880 	sll	v1,v1,0x2
9d008350:	24421058 	addiu	v0,v0,4184
9d008354:	00621021 	addu	v0,v1,v0
9d008358:	8fc30020 	lw	v1,32(s8)
9d00835c:	ac430000 	sw	v1,0(v0)
        float errorAng = desired_deg - actualAngle;
9d008360:	8f82803c 	lw	v0,-32708(gp)
9d008364:	8fc50020 	lw	a1,32(s8)
9d008368:	00402025 	move	a0,v0
9d00836c:	0f40412a 	jal	9d0104a8 <__subsf3>
9d008370:	00000000 	nop
9d008374:	afc20024 	sw	v0,36(s8)
    
        static int integralAngle = 0;
        integralAngle += errorAng;
9d008378:	8f82805c 	lw	v0,-32676(gp)
9d00837c:	00402025 	move	a0,v0
9d008380:	0f404f41 	jal	9d013d04 <__floatsisf>
9d008384:	00000000 	nop
9d008388:	8fc50024 	lw	a1,36(s8)
9d00838c:	00402025 	move	a0,v0
9d008390:	0f40412c 	jal	9d0104b0 <__addsf3>
9d008394:	00000000 	nop
9d008398:	00402025 	move	a0,v0
9d00839c:	0f404d7b 	jal	9d0135ec <__fixsfsi>
9d0083a0:	00000000 	nop
9d0083a4:	af82805c 	sw	v0,-32676(gp)
        if (integralAngle > 5000) integralAngle = 5000;
9d0083a8:	8f82805c 	lw	v0,-32676(gp)
9d0083ac:	28421389 	slti	v0,v0,5001
9d0083b0:	14400005 	bnez	v0,9d0083c8 <PositionController+0x4c8>
9d0083b4:	00000000 	nop
9d0083b8:	24021388 	li	v0,5000
9d0083bc:	af82805c 	sw	v0,-32676(gp)
9d0083c0:	10000007 	b	9d0083e0 <PositionController+0x4e0>
9d0083c4:	00000000 	nop
        else if (integralAngle < -5000) integralAngle = -5000;
9d0083c8:	8f82805c 	lw	v0,-32676(gp)
9d0083cc:	2842ec78 	slti	v0,v0,-5000
9d0083d0:	10400003 	beqz	v0,9d0083e0 <PositionController+0x4e0>
9d0083d4:	00000000 	nop
9d0083d8:	2402ec78 	li	v0,-5000
9d0083dc:	af82805c 	sw	v0,-32676(gp)
    
        refCurrentFromPosition = (kp_deg * errorAng) +
9d0083e0:	8f828018 	lw	v0,-32744(gp)
9d0083e4:	8fc50024 	lw	a1,36(s8)
9d0083e8:	00402025 	move	a0,v0
9d0083ec:	0f40425d 	jal	9d010974 <__mulsf3>
9d0083f0:	00000000 	nop
9d0083f4:	00408025 	move	s0,v0
                                    (ki_deg * integralAngle) +
9d0083f8:	8f82805c 	lw	v0,-32676(gp)
9d0083fc:	00402025 	move	a0,v0
9d008400:	0f404f41 	jal	9d013d04 <__floatsisf>
9d008404:	00000000 	nop
9d008408:	00401825 	move	v1,v0
9d00840c:	8f828034 	lw	v0,-32716(gp)
9d008410:	00402825 	move	a1,v0
9d008414:	00602025 	move	a0,v1
9d008418:	0f40425d 	jal	9d010974 <__mulsf3>
9d00841c:	00000000 	nop
        refCurrentFromPosition = (kp_deg * errorAng) +
9d008420:	00402825 	move	a1,v0
9d008424:	02002025 	move	a0,s0
9d008428:	0f40412c 	jal	9d0104b0 <__addsf3>
9d00842c:	00000000 	nop
9d008430:	00408025 	move	s0,v0
                                    (kd_deg * (errorAng - prevError));
9d008434:	8f828044 	lw	v0,-32700(gp)
9d008438:	00402825 	move	a1,v0
9d00843c:	8fc40024 	lw	a0,36(s8)
9d008440:	0f40412a 	jal	9d0104a8 <__subsf3>
9d008444:	00000000 	nop
9d008448:	00401825 	move	v1,v0
9d00844c:	8f828038 	lw	v0,-32712(gp)
9d008450:	00402825 	move	a1,v0
9d008454:	00602025 	move	a0,v1
9d008458:	0f40425d 	jal	9d010974 <__mulsf3>
9d00845c:	00000000 	nop
                                    (ki_deg * integralAngle) +
9d008460:	00402825 	move	a1,v0
9d008464:	02002025 	move	a0,s0
9d008468:	0f40412c 	jal	9d0104b0 <__addsf3>
9d00846c:	00000000 	nop
        refCurrentFromPosition = (kp_deg * errorAng) +
9d008470:	af828048 	sw	v0,-32696(gp)
    
        float cap = 500;
9d008474:	3c029d01 	lui	v0,0x9d01
9d008478:	8c4218a0 	lw	v0,6304(v0)
9d00847c:	afc20028 	sw	v0,40(s8)
        if (refCurrentFromPosition > cap) refCurrentFromPosition = cap;
9d008480:	8f828048 	lw	v0,-32696(gp)
9d008484:	00402825 	move	a1,v0
9d008488:	8fc40028 	lw	a0,40(s8)
9d00848c:	0f404bf3 	jal	9d012fcc <fpcmplt>
9d008490:	00000000 	nop
9d008494:	04410005 	bgez	v0,9d0084ac <PositionController+0x5ac>
9d008498:	00000000 	nop
9d00849c:	8fc20028 	lw	v0,40(s8)
9d0084a0:	af828048 	sw	v0,-32696(gp)
9d0084a4:	1000000f 	b	9d0084e4 <PositionController+0x5e4>
9d0084a8:	00000000 	nop
        else if (refCurrentFromPosition < -cap) refCurrentFromPosition = -cap;
9d0084ac:	8fc30028 	lw	v1,40(s8)
9d0084b0:	3c028000 	lui	v0,0x8000
9d0084b4:	00621026 	xor	v0,v1,v0
9d0084b8:	8f838048 	lw	v1,-32696(gp)
9d0084bc:	00602825 	move	a1,v1
9d0084c0:	00402025 	move	a0,v0
9d0084c4:	0f404bcc 	jal	9d012f30 <__eqsf2>
9d0084c8:	00000000 	nop
9d0084cc:	18400005 	blez	v0,9d0084e4 <PositionController+0x5e4>
9d0084d0:	00000000 	nop
9d0084d4:	8fc30028 	lw	v1,40(s8)
9d0084d8:	3c028000 	lui	v0,0x8000
9d0084dc:	00621026 	xor	v0,v1,v0
9d0084e0:	af828048 	sw	v0,-32696(gp)

            
        //     set_mode(IDLE);
        // }
    
        prevError = errorAng;
9d0084e4:	8fc20024 	lw	v0,36(s8)
9d0084e8:	af828044 	sw	v0,-32700(gp)
        break;
9d0084ec:	10000004 	b	9d008500 <PositionController+0x600>
9d0084f0:	00000000 	nop
    }
        
    default:
        prevError = 0;
9d0084f4:	00001025 	move	v0,zero
9d0084f8:	af828044 	sw	v0,-32700(gp)
        break;
9d0084fc:	00000000 	nop
    }
    IFS0bits.T1IF = 0;
9d008500:	3c03bf88 	lui	v1,0xbf88
9d008504:	8c621030 	lw	v0,4144(v1)
9d008508:	7c022104 	ins	v0,zero,0x4,0x1
9d00850c:	ac621030 	sw	v0,4144(v1)
}
9d008510:	00000000 	nop
9d008514:	03c0e825 	move	sp,s8
9d008518:	8fa200e4 	lw	v0,228(sp)
9d00851c:	00400013 	mtlo	v0
9d008520:	8fa300e0 	lw	v1,224(sp)
9d008524:	00600011 	mthi	v1
9d008528:	8fbf00dc 	lw	ra,220(sp)
9d00852c:	8fbe00d8 	lw	s8,216(sp)
9d008530:	8fb900d4 	lw	t9,212(sp)
9d008534:	8fb800d0 	lw	t8,208(sp)
9d008538:	8fb000cc 	lw	s0,204(sp)
9d00853c:	8faf00c8 	lw	t7,200(sp)
9d008540:	8fae00c4 	lw	t6,196(sp)
9d008544:	8fad00c0 	lw	t5,192(sp)
9d008548:	8fac00bc 	lw	t4,188(sp)
9d00854c:	8fab00b8 	lw	t3,184(sp)
9d008550:	8faa00b4 	lw	t2,180(sp)
9d008554:	8fa900b0 	lw	t1,176(sp)
9d008558:	8fa800ac 	lw	t0,172(sp)
9d00855c:	8fa700a8 	lw	a3,168(sp)
9d008560:	8fa600a4 	lw	a2,164(sp)
9d008564:	8fa500a0 	lw	a1,160(sp)
9d008568:	8fa4009c 	lw	a0,156(sp)
9d00856c:	8fa30098 	lw	v1,152(sp)
9d008570:	8fa20094 	lw	v0,148(sp)
9d008574:	8fa10090 	lw	at,144(sp)
9d008578:	41606000 	di
9d00857c:	000000c0 	ehb
9d008580:	8fba00f4 	lw	k0,244(sp)
9d008584:	8fbb00f0 	lw	k1,240(sp)
9d008588:	409a7000 	mtc0	k0,c0_epc
9d00858c:	8fba00ec 	lw	k0,236(sp)
9d008590:	27bd00f8 	addiu	sp,sp,248
9d008594:	409a6002 	mtc0	k0,c0_srsctl
9d008598:	41dde800 	wrpgpr	sp,sp
9d00859c:	409b6000 	mtc0	k1,c0_status
9d0085a0:	42000018 	eret

9d0085a4 <timer1init>:

/**
 * Initialize Timer1 for Position Control ISR (200 Hz)
 */
void timer1init()
{
9d0085a4:	27bdfff0 	addiu	sp,sp,-16
9d0085a8:	afbe000c 	sw	s8,12(sp)
9d0085ac:	03a0f025 	move	s8,sp
    T1CONbits.ON = 0;
9d0085b0:	3c03bf80 	lui	v1,0xbf80
9d0085b4:	94620600 	lhu	v0,1536(v1)
9d0085b8:	7c027bc4 	ins	v0,zero,0xf,0x1
9d0085bc:	a4620600 	sh	v0,1536(v1)
    T1CONbits.TCS = 0;  
9d0085c0:	3c03bf80 	lui	v1,0xbf80
9d0085c4:	94620600 	lhu	v0,1536(v1)
9d0085c8:	7c020844 	ins	v0,zero,0x1,0x1
9d0085cc:	a4620600 	sh	v0,1536(v1)
    T1CONbits.TCKPS = 2;
9d0085d0:	3c03bf80 	lui	v1,0xbf80
9d0085d4:	94620600 	lhu	v0,1536(v1)
9d0085d8:	24040002 	li	a0,2
9d0085dc:	7c822904 	ins	v0,a0,0x4,0x2
9d0085e0:	a4620600 	sh	v0,1536(v1)
    int prescaler = 64;
9d0085e4:	24020040 	li	v0,64
9d0085e8:	afc20000 	sw	v0,0(s8)
    PR1 = (NU32DIP_SYS_FREQ / (200 * prescaler)) - 1;
9d0085ec:	8fc30000 	lw	v1,0(s8)
9d0085f0:	00601025 	move	v0,v1
9d0085f4:	00021040 	sll	v0,v0,0x1
9d0085f8:	00431021 	addu	v0,v0,v1
9d0085fc:	000210c0 	sll	v0,v0,0x3
9d008600:	00431021 	addu	v0,v0,v1
9d008604:	000210c0 	sll	v0,v0,0x3
9d008608:	00401825 	move	v1,v0
9d00860c:	3c0202dc 	lui	v0,0x2dc
9d008610:	34426c00 	ori	v0,v0,0x6c00
9d008614:	0043001b 	divu	zero,v0,v1
9d008618:	006001f4 	teq	v1,zero,0x7
9d00861c:	00001010 	mfhi	v0
9d008620:	00001012 	mflo	v0
9d008624:	2443ffff 	addiu	v1,v0,-1
9d008628:	3c02bf80 	lui	v0,0xbf80
9d00862c:	ac430620 	sw	v1,1568(v0)
    IFS0bits.T1IF = 0;
9d008630:	3c03bf88 	lui	v1,0xbf88
9d008634:	8c621030 	lw	v0,4144(v1)
9d008638:	7c022104 	ins	v0,zero,0x4,0x1
9d00863c:	ac621030 	sw	v0,4144(v1)
    IEC0bits.T1IE = 1;
9d008640:	3c03bf88 	lui	v1,0xbf88
9d008644:	8c621060 	lw	v0,4192(v1)
9d008648:	24040001 	li	a0,1
9d00864c:	7c822104 	ins	v0,a0,0x4,0x1
9d008650:	ac621060 	sw	v0,4192(v1)
    IPC1bits.T1IP = 6;
9d008654:	3c03bf88 	lui	v1,0xbf88
9d008658:	8c6210a0 	lw	v0,4256(v1)
9d00865c:	24040006 	li	a0,6
9d008660:	7c822084 	ins	v0,a0,0x2,0x3
9d008664:	ac6210a0 	sw	v0,4256(v1)
    IPC1bits.T1IS = 0;
9d008668:	3c03bf88 	lui	v1,0xbf88
9d00866c:	8c6210a0 	lw	v0,4256(v1)
9d008670:	7c020804 	ins	v0,zero,0x0,0x2
9d008674:	ac6210a0 	sw	v0,4256(v1)
    T1CONbits.ON = 1;
9d008678:	3c03bf80 	lui	v1,0xbf80
9d00867c:	94620600 	lhu	v0,1536(v1)
9d008680:	24040001 	li	a0,1
9d008684:	7c827bc4 	ins	v0,a0,0xf,0x1
9d008688:	a4620600 	sh	v0,1536(v1)
}
9d00868c:	00000000 	nop
9d008690:	03c0e825 	move	sp,s8
9d008694:	8fbe000c 	lw	s8,12(sp)
9d008698:	27bd0010 	addiu	sp,sp,16
9d00869c:	03e00008 	jr	ra
9d0086a0:	00000000 	nop

9d0086a4 <main>:

/**
 * Main function
 */
int main() {
9d0086a4:	27bdfeb0 	addiu	sp,sp,-336
9d0086a8:	afbf014c 	sw	ra,332(sp)
9d0086ac:	afbe0148 	sw	s8,328(sp)
9d0086b0:	afb30144 	sw	s3,324(sp)
9d0086b4:	afb20140 	sw	s2,320(sp)
9d0086b8:	afb1013c 	sw	s1,316(sp)
9d0086bc:	afb00138 	sw	s0,312(sp)
9d0086c0:	03a0f025 	move	s8,sp
    char buffer[BUF_SIZE];

    NU32DIP_Startup();
9d0086c4:	0f403dd6 	jal	9d00f758 <NU32DIP_Startup>
9d0086c8:	00000000 	nop
    UART2_Startup();
9d0086cc:	0f403ade 	jal	9d00eb78 <UART2_Startup>
9d0086d0:	00000000 	nop
    INA219_Startup();
9d0086d4:	0f4041c8 	jal	9d010720 <INA219_Startup>
9d0086d8:	00000000 	nop

    set_mode(IDLE);
9d0086dc:	00002025 	move	a0,zero
9d0086e0:	0f404f6f 	jal	9d013dbc <set_mode>
9d0086e4:	00000000 	nop
    NU32DIP_GREEN = 1;
9d0086e8:	3c03bf88 	lui	v1,0xbf88
9d0086ec:	94626130 	lhu	v0,24880(v1)
9d0086f0:	24040001 	li	a0,1
9d0086f4:	7c822104 	ins	v0,a0,0x4,0x1
9d0086f8:	a4626130 	sh	v0,24880(v1)
    NU32DIP_YELLOW = 1;
9d0086fc:	3c03bf88 	lui	v1,0xbf88
9d008700:	94626130 	lhu	v0,24880(v1)
9d008704:	24040001 	li	a0,1
9d008708:	7c822944 	ins	v0,a0,0x5,0x1
9d00870c:	a4626130 	sh	v0,24880(v1)

    __builtin_disable_interrupts();
9d008710:	41626000 	di	v0
9d008714:	000000c0 	ehb
9d008718:	00000000 	nop
    startPWM();
9d00871c:	0f4023e0 	jal	9d008f80 <startPWM>
9d008720:	00000000 	nop
    timer2init();
9d008724:	0f4023a7 	jal	9d008e9c <timer2init>
9d008728:	00000000 	nop
    timer1init();
9d00872c:	0f402169 	jal	9d0085a4 <timer1init>
9d008730:	00000000 	nop
    initHBridgeDir();
9d008734:	0f402421 	jal	9d009084 <initHBridgeDir>
9d008738:	00000000 	nop
    __builtin_enable_interrupts();
9d00873c:	41626020 	ei	v0

    while (1) {
        NU32DIP_ReadUART1(buffer, BUF_SIZE);
9d008740:	27c20038 	addiu	v0,s8,56
9d008744:	240500c8 	li	a1,200
9d008748:	00402025 	move	a0,v0
9d00874c:	0f403e30 	jal	9d00f8c0 <NU32DIP_ReadUART1>
9d008750:	00000000 	nop
        NU32DIP_YELLOW = 1;
9d008754:	3c03bf88 	lui	v1,0xbf88
9d008758:	94626130 	lhu	v0,24880(v1)
9d00875c:	24040001 	li	a0,1
9d008760:	7c822944 	ins	v0,a0,0x5,0x1
9d008764:	a4626130 	sh	v0,24880(v1)

        switch (buffer[0]) {
9d008768:	83c20038 	lb	v0,56(s8)
9d00876c:	2442ff9f 	addiu	v0,v0,-97
9d008770:	2c430012 	sltiu	v1,v0,18
9d008774:	106001c0 	beqz	v1,9d008e78 <__jend_main_99+0xb8>
9d008778:	00000000 	nop
9d00877c:	00021880 	sll	v1,v0,0x2
9d008780:	3c029d01 	lui	v0,0x9d01
9d008784:	24428798 	addiu	v0,v0,-30824
9d008788:	00621021 	addu	v0,v1,v0
9d00878c:	8c420000 	lw	v0,0(v0)
9d008790:	00400008 	jr	v0
9d008794:	00000000 	nop

9d008798 <__jump_main_74>:
9d008798:	9d0087e0 9d00882c 9d00887c 9d0088f0     ....,...|.......
9d0087a8:	9d0089d4 9d0089ec 9d008a6c 9d008aa8     ........l.......
9d0087b8:	9d008b10 9d008b54 9d008bdc 9d008bf0     ....T...........
9d0087c8:	9d008e78 9d008e78 9d008c74 9d008d54     x...x...t...T...
9d0087d8:	9d008d68 9d008d7c                       h...|...

9d0087e0 <__jend_main_74>:
            case 'a': { // Read ADC (raw counts)
                signed short adcval = readINA219(0x04);
9d0087e0:	24040004 	li	a0,4
9d0087e4:	0f40422d 	jal	9d0108b4 <readINA219>
9d0087e8:	00000000 	nop
9d0087ec:	a7c20024 	sh	v0,36(s8)
                char m[50];
                sprintf(m, "%hu\r\n", adcval);
9d0087f0:	87c20024 	lh	v0,36(s8)
9d0087f4:	27c30104 	addiu	v1,s8,260
9d0087f8:	00403025 	move	a2,v0
9d0087fc:	3c029d01 	lui	v0,0x9d01
9d008800:	244517c0 	addiu	a1,v0,6080
9d008804:	00602025 	move	a0,v1
9d008808:	0f4051ca 	jal	9d014728 <_dsprintf_deEfFgGnu>
9d00880c:	00000000 	nop
                NU32DIP_WriteUART1(m);
9d008810:	27c20104 	addiu	v0,s8,260
9d008814:	00402025 	move	a0,v0
9d008818:	0f403e6a 	jal	9d00f9a8 <NU32DIP_WriteUART1>
9d00881c:	00000000 	nop
                break;
9d008820:	00000000 	nop
9d008824:	1000019b 	b	9d008e94 <__jend_main_99+0xd4>
9d008828:	00000000 	nop
            }
            case 'b': { // Read current sensor (mA)
                float adcval = INA219_read_current();
9d00882c:	0f4041e7 	jal	9d01079c <INA219_read_current>
9d008830:	00000000 	nop
9d008834:	afc20028 	sw	v0,40(s8)
                char m[50];
                sprintf(m, "%f\r\n", adcval);
9d008838:	8fc40028 	lw	a0,40(s8)
9d00883c:	0f404aac 	jal	9d012ab0 <__extendsfdf2>
9d008840:	00000000 	nop
9d008844:	27c40104 	addiu	a0,s8,260
9d008848:	00403025 	move	a2,v0
9d00884c:	00603825 	move	a3,v1
9d008850:	3c029d01 	lui	v0,0x9d01
9d008854:	244517c8 	addiu	a1,v0,6088
9d008858:	0f4051ca 	jal	9d014728 <_dsprintf_deEfFgGnu>
9d00885c:	00000000 	nop
                NU32DIP_WriteUART1(m);
9d008860:	27c20104 	addiu	v0,s8,260
9d008864:	00402025 	move	a0,v0
9d008868:	0f403e6a 	jal	9d00f9a8 <NU32DIP_WriteUART1>
9d00886c:	00000000 	nop
                break;
9d008870:	00000000 	nop
9d008874:	10000187 	b	9d008e94 <__jend_main_99+0xd4>
9d008878:	00000000 	nop
            }
            case 'c': { // Read encoder count
                WriteUART2("a");
9d00887c:	3c029d01 	lui	v0,0x9d01
9d008880:	24441778 	addiu	a0,v0,6008
9d008884:	0f403abf 	jal	9d00eafc <WriteUART2>
9d008888:	00000000 	nop
                while (!get_encoder_flag()) {}
9d00888c:	00000000 	nop
9d008890:	0f403a39 	jal	9d00e8e4 <get_encoder_flag>
9d008894:	00000000 	nop
9d008898:	1040fffd 	beqz	v0,9d008890 <__jend_main_74+0xb0>
9d00889c:	00000000 	nop
                set_encoder_flag(0);
9d0088a0:	00002025 	move	a0,zero
9d0088a4:	0f403a42 	jal	9d00e908 <set_encoder_flag>
9d0088a8:	00000000 	nop
                char m[50];
                int p = get_encoder_count();
9d0088ac:	0f403a4e 	jal	9d00e938 <get_encoder_count>
9d0088b0:	00000000 	nop
9d0088b4:	afc2002c 	sw	v0,44(s8)
                sprintf(m, "%d\r\n", p);
9d0088b8:	27c30104 	addiu	v1,s8,260
9d0088bc:	8fc6002c 	lw	a2,44(s8)
9d0088c0:	3c029d01 	lui	v0,0x9d01
9d0088c4:	244517d0 	addiu	a1,v0,6096
9d0088c8:	00602025 	move	a0,v1
9d0088cc:	0f4051ca 	jal	9d014728 <_dsprintf_deEfFgGnu>
9d0088d0:	00000000 	nop
                NU32DIP_WriteUART1(m);
9d0088d4:	27c20104 	addiu	v0,s8,260
9d0088d8:	00402025 	move	a0,v0
9d0088dc:	0f403e6a 	jal	9d00f9a8 <NU32DIP_WriteUART1>
9d0088e0:	00000000 	nop
                break;
9d0088e4:	00000000 	nop
9d0088e8:	1000016a 	b	9d008e94 <__jend_main_99+0xd4>
9d0088ec:	00000000 	nop
            }
            case 'd': { // Read encoder degrees
                WriteUART2("a");
9d0088f0:	3c029d01 	lui	v0,0x9d01
9d0088f4:	24441778 	addiu	a0,v0,6008
9d0088f8:	0f403abf 	jal	9d00eafc <WriteUART2>
9d0088fc:	00000000 	nop
                while (!get_encoder_flag()) {}
9d008900:	00000000 	nop
9d008904:	0f403a39 	jal	9d00e8e4 <get_encoder_flag>
9d008908:	00000000 	nop
9d00890c:	1040fffd 	beqz	v0,9d008904 <__jend_main_74+0x124>
9d008910:	00000000 	nop
                set_encoder_flag(0);
9d008914:	00002025 	move	a0,zero
9d008918:	0f403a42 	jal	9d00e908 <set_encoder_flag>
9d00891c:	00000000 	nop
                char m[50];
                int p = get_encoder_count();
9d008920:	0f403a4e 	jal	9d00e938 <get_encoder_count>
9d008924:	00000000 	nop
9d008928:	afc20030 	sw	v0,48(s8)
                float deg = 360.0 * ((float)p / (334.0 * 4.0));
9d00892c:	8fc40030 	lw	a0,48(s8)
9d008930:	0f404f41 	jal	9d013d04 <__floatsisf>
9d008934:	00000000 	nop
9d008938:	00402025 	move	a0,v0
9d00893c:	0f404aac 	jal	9d012ab0 <__extendsfdf2>
9d008940:	00000000 	nop
9d008944:	00402025 	move	a0,v0
9d008948:	00602825 	move	a1,v1
9d00894c:	3c029d01 	lui	v0,0x9d01
9d008950:	8c461890 	lw	a2,6288(v0)
9d008954:	8c471894 	lw	a3,6292(v0)
9d008958:	0f4033cc 	jal	9d00cf30 <__divdf3>
9d00895c:	00000000 	nop
9d008960:	00402025 	move	a0,v0
9d008964:	00602825 	move	a1,v1
9d008968:	3c029d01 	lui	v0,0x9d01
9d00896c:	8c461898 	lw	a2,6296(v0)
9d008970:	8c47189c 	lw	a3,6300(v0)
9d008974:	0f403d0b 	jal	9d00f42c <__muldf3>
9d008978:	00000000 	nop
9d00897c:	00402025 	move	a0,v0
9d008980:	00602825 	move	a1,v1
9d008984:	0f404818 	jal	9d012060 <__truncdfsf2>
9d008988:	00000000 	nop
9d00898c:	afc20034 	sw	v0,52(s8)
                sprintf(m, "%f\r\n", deg);
9d008990:	8fc40034 	lw	a0,52(s8)
9d008994:	0f404aac 	jal	9d012ab0 <__extendsfdf2>
9d008998:	00000000 	nop
9d00899c:	27c40104 	addiu	a0,s8,260
9d0089a0:	00403025 	move	a2,v0
9d0089a4:	00603825 	move	a3,v1
9d0089a8:	3c029d01 	lui	v0,0x9d01
9d0089ac:	244517c8 	addiu	a1,v0,6088
9d0089b0:	0f4051ca 	jal	9d014728 <_dsprintf_deEfFgGnu>
9d0089b4:	00000000 	nop
                NU32DIP_WriteUART1(m);
9d0089b8:	27c20104 	addiu	v0,s8,260
9d0089bc:	00402025 	move	a0,v0
9d0089c0:	0f403e6a 	jal	9d00f9a8 <NU32DIP_WriteUART1>
9d0089c4:	00000000 	nop
                break;
9d0089c8:	00000000 	nop
9d0089cc:	10000131 	b	9d008e94 <__jend_main_99+0xd4>
9d0089d0:	00000000 	nop
            }
            case 'e': { // Reset encoder
                WriteUART2("b");
9d0089d4:	3c029d01 	lui	v0,0x9d01
9d0089d8:	2444177c 	addiu	a0,v0,6012
9d0089dc:	0f403abf 	jal	9d00eafc <WriteUART2>
9d0089e0:	00000000 	nop
                break;
9d0089e4:	1000012b 	b	9d008e94 <__jend_main_99+0xd4>
9d0089e8:	00000000 	nop
            }
            case 'f': { // Set PWM duty cycle
                NU32DIP_ReadUART1(buffer, BUF_SIZE);
9d0089ec:	27c20038 	addiu	v0,s8,56
9d0089f0:	240500c8 	li	a1,200
9d0089f4:	00402025 	move	a0,v0
9d0089f8:	0f403e30 	jal	9d00f8c0 <NU32DIP_ReadUART1>
9d0089fc:	00000000 	nop
                int n;
                sscanf(buffer, "%d", &n);
9d008a00:	27c20100 	addiu	v0,s8,256
9d008a04:	27c30038 	addiu	v1,s8,56
9d008a08:	00403025 	move	a2,v0
9d008a0c:	3c029d01 	lui	v0,0x9d01
9d008a10:	244517d8 	addiu	a1,v0,6104
9d008a14:	00602025 	move	a0,v1
9d008a18:	0f4051d4 	jal	9d014750 <_dsscanf_deEfFgGn>
9d008a1c:	00000000 	nop
                if (n >= -100 && n <= 100) {
9d008a20:	8fc20100 	lw	v0,256(s8)
9d008a24:	2842ff9c 	slti	v0,v0,-100
9d008a28:	14400119 	bnez	v0,9d008e90 <__jend_main_99+0xd0>
9d008a2c:	00000000 	nop
9d008a30:	8fc20100 	lw	v0,256(s8)
9d008a34:	28420065 	slti	v0,v0,101
9d008a38:	10400115 	beqz	v0,9d008e90 <__jend_main_99+0xd0>
9d008a3c:	00000000 	nop
                    pwmDuty = n;
9d008a40:	8fc20100 	lw	v0,256(s8)
9d008a44:	00402025 	move	a0,v0
9d008a48:	0f404f41 	jal	9d013d04 <__floatsisf>
9d008a4c:	00000000 	nop
9d008a50:	af828030 	sw	v0,-32720(gp)
                    set_mode(PWM);
9d008a54:	24040001 	li	a0,1
9d008a58:	0f404f6f 	jal	9d013dbc <set_mode>
9d008a5c:	00000000 	nop
                }
                break;
9d008a60:	00000000 	nop
9d008a64:	1000010a 	b	9d008e90 <__jend_main_99+0xd0>
9d008a68:	00000000 	nop
            }
            case 'g': { // Set current gains
                NU32DIP_ReadUART1(buffer, BUF_SIZE);
9d008a6c:	27c20038 	addiu	v0,s8,56
9d008a70:	240500c8 	li	a1,200
9d008a74:	00402025 	move	a0,v0
9d008a78:	0f403e30 	jal	9d00f8c0 <NU32DIP_ReadUART1>
9d008a7c:	00000000 	nop
                sscanf(buffer, "%f %f", &kp_mA, &ki_mA);
9d008a80:	27c30038 	addiu	v1,s8,56
9d008a84:	27878014 	addiu	a3,gp,-32748
9d008a88:	27868010 	addiu	a2,gp,-32752
9d008a8c:	3c029d01 	lui	v0,0x9d01
9d008a90:	244517dc 	addiu	a1,v0,6108
9d008a94:	00602025 	move	a0,v1
9d008a98:	0f4051d4 	jal	9d014750 <_dsscanf_deEfFgGn>
9d008a9c:	00000000 	nop
                break;
9d008aa0:	100000fc 	b	9d008e94 <__jend_main_99+0xd4>
9d008aa4:	00000000 	nop
            }
            case 'h': { // Get current gains
                char m[50];
                sprintf(m, "%f %f\r\n", kp_mA, ki_mA);
9d008aa8:	8f828010 	lw	v0,-32752(gp)
9d008aac:	00402025 	move	a0,v0
9d008ab0:	0f404aac 	jal	9d012ab0 <__extendsfdf2>
9d008ab4:	00000000 	nop
9d008ab8:	00408025 	move	s0,v0
9d008abc:	00608825 	move	s1,v1
9d008ac0:	8f828014 	lw	v0,-32748(gp)
9d008ac4:	00402025 	move	a0,v0
9d008ac8:	0f404aac 	jal	9d012ab0 <__extendsfdf2>
9d008acc:	00000000 	nop
9d008ad0:	27c40104 	addiu	a0,s8,260
9d008ad4:	afa20010 	sw	v0,16(sp)
9d008ad8:	afa30014 	sw	v1,20(sp)
9d008adc:	02003025 	move	a2,s0
9d008ae0:	02203825 	move	a3,s1
9d008ae4:	3c029d01 	lui	v0,0x9d01
9d008ae8:	244517e4 	addiu	a1,v0,6116
9d008aec:	0f4051ca 	jal	9d014728 <_dsprintf_deEfFgGnu>
9d008af0:	00000000 	nop
                NU32DIP_WriteUART1(m);
9d008af4:	27c20104 	addiu	v0,s8,260
9d008af8:	00402025 	move	a0,v0
9d008afc:	0f403e6a 	jal	9d00f9a8 <NU32DIP_WriteUART1>
9d008b00:	00000000 	nop
                break;
9d008b04:	00000000 	nop
9d008b08:	100000e2 	b	9d008e94 <__jend_main_99+0xd4>
9d008b0c:	00000000 	nop
            }
            case 'i': { // Set Position Gains
                NU32DIP_ReadUART1(buffer, BUF_SIZE);
9d008b10:	27c20038 	addiu	v0,s8,56
9d008b14:	240500c8 	li	a1,200
9d008b18:	00402025 	move	a0,v0
9d008b1c:	0f403e30 	jal	9d00f8c0 <NU32DIP_ReadUART1>
9d008b20:	00000000 	nop
                sscanf(buffer, "%f %f %f", &kp_deg, &ki_deg, &kd_deg);
9d008b24:	27c30038 	addiu	v1,s8,56
9d008b28:	27828038 	addiu	v0,gp,-32712
9d008b2c:	afa20010 	sw	v0,16(sp)
9d008b30:	27878034 	addiu	a3,gp,-32716
9d008b34:	27868018 	addiu	a2,gp,-32744
9d008b38:	3c029d01 	lui	v0,0x9d01
9d008b3c:	244517ec 	addiu	a1,v0,6124
9d008b40:	00602025 	move	a0,v1
9d008b44:	0f4051d4 	jal	9d014750 <_dsscanf_deEfFgGn>
9d008b48:	00000000 	nop
                break;
9d008b4c:	100000d1 	b	9d008e94 <__jend_main_99+0xd4>
9d008b50:	00000000 	nop
            }
            case 'j': { // Get Position Gains
                char m[50];
                sprintf(m, "%f %f %f\r\n", kp_deg, ki_deg, kd_deg);
9d008b54:	8f828018 	lw	v0,-32744(gp)
9d008b58:	00402025 	move	a0,v0
9d008b5c:	0f404aac 	jal	9d012ab0 <__extendsfdf2>
9d008b60:	00000000 	nop
9d008b64:	00409025 	move	s2,v0
9d008b68:	00609825 	move	s3,v1
9d008b6c:	8f828034 	lw	v0,-32716(gp)
9d008b70:	00402025 	move	a0,v0
9d008b74:	0f404aac 	jal	9d012ab0 <__extendsfdf2>
9d008b78:	00000000 	nop
9d008b7c:	00408025 	move	s0,v0
9d008b80:	00608825 	move	s1,v1
9d008b84:	8f828038 	lw	v0,-32712(gp)
9d008b88:	00402025 	move	a0,v0
9d008b8c:	0f404aac 	jal	9d012ab0 <__extendsfdf2>
9d008b90:	00000000 	nop
9d008b94:	27c40104 	addiu	a0,s8,260
9d008b98:	afa20018 	sw	v0,24(sp)
9d008b9c:	afa3001c 	sw	v1,28(sp)
9d008ba0:	afb00010 	sw	s0,16(sp)
9d008ba4:	afb10014 	sw	s1,20(sp)
9d008ba8:	02403025 	move	a2,s2
9d008bac:	02603825 	move	a3,s3
9d008bb0:	3c029d01 	lui	v0,0x9d01
9d008bb4:	244517f8 	addiu	a1,v0,6136
9d008bb8:	0f4051ca 	jal	9d014728 <_dsprintf_deEfFgGnu>
9d008bbc:	00000000 	nop
                NU32DIP_WriteUART1(m);
9d008bc0:	27c20104 	addiu	v0,s8,260
9d008bc4:	00402025 	move	a0,v0
9d008bc8:	0f403e6a 	jal	9d00f9a8 <NU32DIP_WriteUART1>
9d008bcc:	00000000 	nop
                break;
9d008bd0:	00000000 	nop
9d008bd4:	100000af 	b	9d008e94 <__jend_main_99+0xd4>
9d008bd8:	00000000 	nop
            }
            case 'k': // Test ITEST mode
                set_mode(ITEST);
9d008bdc:	24040002 	li	a0,2
9d008be0:	0f404f6f 	jal	9d013dbc <set_mode>
9d008be4:	00000000 	nop
                break;
9d008be8:	100000aa 	b	9d008e94 <__jend_main_99+0xd4>
9d008bec:	00000000 	nop
            case 'l': { // Go to target angle
                NU32DIP_ReadUART1(buffer, BUF_SIZE);
9d008bf0:	27c20038 	addiu	v0,s8,56
9d008bf4:	240500c8 	li	a1,200
9d008bf8:	00402025 	move	a0,v0
9d008bfc:	0f403e30 	jal	9d00f8c0 <NU32DIP_ReadUART1>
9d008c00:	00000000 	nop
                sscanf(buffer, "%f", &desired_deg);
9d008c04:	27c30038 	addiu	v1,s8,56
9d008c08:	2786803c 	addiu	a2,gp,-32708
9d008c0c:	3c029d01 	lui	v0,0x9d01
9d008c10:	24451804 	addiu	a1,v0,6148
9d008c14:	00602025 	move	a0,v1
9d008c18:	0f4051d4 	jal	9d014750 <_dsscanf_deEfFgGn>
9d008c1c:	00000000 	nop
                set_mode(HOLD);
9d008c20:	24040003 	li	a0,3
9d008c24:	0f404f6f 	jal	9d013dbc <set_mode>
9d008c28:	00000000 	nop
                char msg[50];
                sprintf(msg, "Mode: HOLD, Target Angle: %.2f deg\n", desired_deg);
9d008c2c:	8f82803c 	lw	v0,-32708(gp)
9d008c30:	00402025 	move	a0,v0
9d008c34:	0f404aac 	jal	9d012ab0 <__extendsfdf2>
9d008c38:	00000000 	nop
9d008c3c:	27c40104 	addiu	a0,s8,260
9d008c40:	00403025 	move	a2,v0
9d008c44:	00603825 	move	a3,v1
9d008c48:	3c029d01 	lui	v0,0x9d01
9d008c4c:	24451808 	addiu	a1,v0,6152
9d008c50:	0f4051ca 	jal	9d014728 <_dsprintf_deEfFgGnu>
9d008c54:	00000000 	nop
                NU32DIP_WriteUART1(msg);
9d008c58:	27c20104 	addiu	v0,s8,260
9d008c5c:	00402025 	move	a0,v0
9d008c60:	0f403e6a 	jal	9d00f9a8 <NU32DIP_WriteUART1>
9d008c64:	00000000 	nop
                break;
9d008c68:	00000000 	nop
9d008c6c:	10000089 	b	9d008e94 <__jend_main_99+0xd4>
9d008c70:	00000000 	nop
            }

            
            case 'o': { // Execute trajectory
                trajectory_index = 0;
9d008c74:	af808050 	sw	zero,-32688(gp)
                NU32DIP_ReadUART1(buffer, BUF_SIZE);
9d008c78:	27c20038 	addiu	v0,s8,56
9d008c7c:	240500c8 	li	a1,200
9d008c80:	00402025 	move	a0,v0
9d008c84:	0f403e30 	jal	9d00f8c0 <NU32DIP_ReadUART1>
9d008c88:	00000000 	nop
                sscanf(buffer, "%d", &trajectory_length);
9d008c8c:	27c30038 	addiu	v1,s8,56
9d008c90:	2786804c 	addiu	a2,gp,-32692
9d008c94:	3c029d01 	lui	v0,0x9d01
9d008c98:	244517d8 	addiu	a1,v0,6104
9d008c9c:	00602025 	move	a0,v1
9d008ca0:	0f4051d4 	jal	9d014750 <_dsscanf_deEfFgGn>
9d008ca4:	00000000 	nop

                if (trajectory_length > MAX_TRAJECTORY_SAMPLES){
9d008ca8:	8f82804c 	lw	v0,-32692(gp)
9d008cac:	284203e9 	slti	v0,v0,1001
9d008cb0:	14400007 	bnez	v0,9d008cd0 <__jend_main_74+0x4f0>
9d008cb4:	00000000 	nop
                    NU32DIP_WriteUART1("ERROR: Trajectory too long.\r\n");
9d008cb8:	3c029d01 	lui	v0,0x9d01
9d008cbc:	2444182c 	addiu	a0,v0,6188
9d008cc0:	0f403e6a 	jal	9d00f9a8 <NU32DIP_WriteUART1>
9d008cc4:	00000000 	nop
                    break;
9d008cc8:	10000072 	b	9d008e94 <__jend_main_99+0xd4>
9d008ccc:	00000000 	nop
                }

                for(int i = 0; i < trajectory_length; i++){
9d008cd0:	afc00020 	sw	zero,32(s8)
9d008cd4:	10000015 	b	9d008d2c <__jend_main_74+0x54c>
9d008cd8:	00000000 	nop
                    NU32DIP_ReadUART1(buffer, BUF_SIZE);
9d008cdc:	27c20038 	addiu	v0,s8,56
9d008ce0:	240500c8 	li	a1,200
9d008ce4:	00402025 	move	a0,v0
9d008ce8:	0f403e30 	jal	9d00f8c0 <NU32DIP_ReadUART1>
9d008cec:	00000000 	nop
                    sscanf(buffer, "%f", &trajectory[i]);
9d008cf0:	8fc20020 	lw	v0,32(s8)
9d008cf4:	00021880 	sll	v1,v0,0x2
9d008cf8:	3c02a000 	lui	v0,0xa000
9d008cfc:	244200b8 	addiu	v0,v0,184
9d008d00:	00621021 	addu	v0,v1,v0
9d008d04:	27c30038 	addiu	v1,s8,56
9d008d08:	00403025 	move	a2,v0
9d008d0c:	3c029d01 	lui	v0,0x9d01
9d008d10:	24451804 	addiu	a1,v0,6148
9d008d14:	00602025 	move	a0,v1
9d008d18:	0f4051d4 	jal	9d014750 <_dsscanf_deEfFgGn>
9d008d1c:	00000000 	nop
                for(int i = 0; i < trajectory_length; i++){
9d008d20:	8fc20020 	lw	v0,32(s8)
9d008d24:	24420001 	addiu	v0,v0,1
9d008d28:	afc20020 	sw	v0,32(s8)
9d008d2c:	8f82804c 	lw	v0,-32692(gp)
9d008d30:	8fc30020 	lw	v1,32(s8)
9d008d34:	0062102a 	slt	v0,v1,v0
9d008d38:	1440ffe8 	bnez	v0,9d008cdc <__jend_main_74+0x4fc>
9d008d3c:	00000000 	nop
                // char message[50]; 
                // sprintf(message, "Trajectory = %d.\r\n", trajectory_length);
                // NU32DIP_WriteUART1(message);  // Send formatted string


                set_mode(TRACK);
9d008d40:	24040004 	li	a0,4
9d008d44:	0f404f6f 	jal	9d013dbc <set_mode>
9d008d48:	00000000 	nop
                // NU32DIP_WriteUART1("Tracking trajectory.\r\n");
                break;
9d008d4c:	10000051 	b	9d008e94 <__jend_main_99+0xd4>
9d008d50:	00000000 	nop
            }
            
            case 'p': // Unpower motor
                set_mode(IDLE);
9d008d54:	00002025 	move	a0,zero
9d008d58:	0f404f6f 	jal	9d013dbc <set_mode>
9d008d5c:	00000000 	nop
                break;
9d008d60:	1000004c 	b	9d008e94 <__jend_main_99+0xd4>
9d008d64:	00000000 	nop
            case 'q': // Quit
                set_mode(IDLE);
9d008d68:	00002025 	move	a0,zero
9d008d6c:	0f404f6f 	jal	9d013dbc <set_mode>
9d008d70:	00000000 	nop
                break;
9d008d74:	10000047 	b	9d008e94 <__jend_main_99+0xd4>
9d008d78:	00000000 	nop
            case 'r': { // Read mode
                char m[50];
                switch (get_mode()) {
9d008d7c:	0f404f7b 	jal	9d013dec <get_mode>
9d008d80:	00000000 	nop
9d008d84:	2c430005 	sltiu	v1,v0,5
9d008d88:	10600034 	beqz	v1,9d008e5c <__jend_main_99+0x9c>
9d008d8c:	00000000 	nop
9d008d90:	00021880 	sll	v1,v0,0x2
9d008d94:	3c029d01 	lui	v0,0x9d01
9d008d98:	24428dac 	addiu	v0,v0,-29268
9d008d9c:	00621021 	addu	v0,v1,v0
9d008da0:	8c420000 	lw	v0,0(v0)
9d008da4:	00400008 	jr	v0
9d008da8:	00000000 	nop

9d008dac <__jump_main_99>:
9d008dac:	9d008dc0 9d008de0 9d008e00 9d008e20     ............ ...
9d008dbc:	9d008e40                                @...

9d008dc0 <__jend_main_99>:
                    case IDLE: sprintf(m, "IDLE\n"); break;
9d008dc0:	27c30104 	addiu	v1,s8,260
9d008dc4:	3c029d01 	lui	v0,0x9d01
9d008dc8:	2445184c 	addiu	a1,v0,6220
9d008dcc:	00602025 	move	a0,v1
9d008dd0:	0f4051ca 	jal	9d014728 <_dsprintf_deEfFgGnu>
9d008dd4:	00000000 	nop
9d008dd8:	10000020 	b	9d008e5c <__jend_main_99+0x9c>
9d008ddc:	00000000 	nop
                    case PWM: sprintf(m, "PWM\n"); break;
9d008de0:	27c30104 	addiu	v1,s8,260
9d008de4:	3c029d01 	lui	v0,0x9d01
9d008de8:	24451854 	addiu	a1,v0,6228
9d008dec:	00602025 	move	a0,v1
9d008df0:	0f4051ca 	jal	9d014728 <_dsprintf_deEfFgGnu>
9d008df4:	00000000 	nop
9d008df8:	10000018 	b	9d008e5c <__jend_main_99+0x9c>
9d008dfc:	00000000 	nop
                    case ITEST: sprintf(m, "ITEST\n"); break;
9d008e00:	27c30104 	addiu	v1,s8,260
9d008e04:	3c029d01 	lui	v0,0x9d01
9d008e08:	2445185c 	addiu	a1,v0,6236
9d008e0c:	00602025 	move	a0,v1
9d008e10:	0f4051ca 	jal	9d014728 <_dsprintf_deEfFgGnu>
9d008e14:	00000000 	nop
9d008e18:	10000010 	b	9d008e5c <__jend_main_99+0x9c>
9d008e1c:	00000000 	nop
                    case HOLD: sprintf(m, "HOLD\n"); break;
9d008e20:	27c30104 	addiu	v1,s8,260
9d008e24:	3c029d01 	lui	v0,0x9d01
9d008e28:	24451864 	addiu	a1,v0,6244
9d008e2c:	00602025 	move	a0,v1
9d008e30:	0f4051ca 	jal	9d014728 <_dsprintf_deEfFgGnu>
9d008e34:	00000000 	nop
9d008e38:	10000008 	b	9d008e5c <__jend_main_99+0x9c>
9d008e3c:	00000000 	nop
                    case TRACK: sprintf(m, "TRACK\n"); break;
9d008e40:	27c30104 	addiu	v1,s8,260
9d008e44:	3c029d01 	lui	v0,0x9d01
9d008e48:	2445186c 	addiu	a1,v0,6252
9d008e4c:	00602025 	move	a0,v1
9d008e50:	0f4051ca 	jal	9d014728 <_dsprintf_deEfFgGnu>
9d008e54:	00000000 	nop
9d008e58:	00000000 	nop
                }
                NU32DIP_WriteUART1(m);
9d008e5c:	27c20104 	addiu	v0,s8,260
9d008e60:	00402025 	move	a0,v0
9d008e64:	0f403e6a 	jal	9d00f9a8 <NU32DIP_WriteUART1>
9d008e68:	00000000 	nop
                break;
9d008e6c:	00000000 	nop
9d008e70:	10000008 	b	9d008e94 <__jend_main_99+0xd4>
9d008e74:	00000000 	nop
            }
            default:
                NU32DIP_YELLOW = 0; // Error indication
9d008e78:	3c03bf88 	lui	v1,0xbf88
9d008e7c:	94626130 	lhu	v0,24880(v1)
9d008e80:	7c022944 	ins	v0,zero,0x5,0x1
9d008e84:	a4626130 	sh	v0,24880(v1)
                break;
9d008e88:	10000002 	b	9d008e94 <__jend_main_99+0xd4>
9d008e8c:	00000000 	nop
                break;
9d008e90:	00000000 	nop
        NU32DIP_ReadUART1(buffer, BUF_SIZE);
9d008e94:	1000fe2a 	b	9d008740 <main+0x9c>
9d008e98:	00000000 	nop

9d008e9c <timer2init>:
}

/**
 * Initialize Timer2 for Current Control ISR (5 kHz)
 */
void timer2init() {
9d008e9c:	27bdfff0 	addiu	sp,sp,-16
9d008ea0:	afbe000c 	sw	s8,12(sp)
9d008ea4:	03a0f025 	move	s8,sp
    T2CONbits.ON = 0;
9d008ea8:	3c03bf80 	lui	v1,0xbf80
9d008eac:	94620800 	lhu	v0,2048(v1)
9d008eb0:	7c027bc4 	ins	v0,zero,0xf,0x1
9d008eb4:	a4620800 	sh	v0,2048(v1)
    int prescaler = 1;
9d008eb8:	24020001 	li	v0,1
9d008ebc:	afc20000 	sw	v0,0(s8)
    PR2 = (NU32DIP_SYS_FREQ / (5000 * prescaler)) - 1;
9d008ec0:	8fc30000 	lw	v1,0(s8)
9d008ec4:	00601025 	move	v0,v1
9d008ec8:	00021080 	sll	v0,v0,0x2
9d008ecc:	00431021 	addu	v0,v0,v1
9d008ed0:	000210c0 	sll	v0,v0,0x3
9d008ed4:	00431023 	subu	v0,v0,v1
9d008ed8:	00021100 	sll	v0,v0,0x4
9d008edc:	00431021 	addu	v0,v0,v1
9d008ee0:	000210c0 	sll	v0,v0,0x3
9d008ee4:	00401825 	move	v1,v0
9d008ee8:	3c0202dc 	lui	v0,0x2dc
9d008eec:	34426c00 	ori	v0,v0,0x6c00
9d008ef0:	0043001b 	divu	zero,v0,v1
9d008ef4:	006001f4 	teq	v1,zero,0x7
9d008ef8:	00001010 	mfhi	v0
9d008efc:	00001012 	mflo	v0
9d008f00:	2443ffff 	addiu	v1,v0,-1
9d008f04:	3c02bf80 	lui	v0,0xbf80
9d008f08:	ac430820 	sw	v1,2080(v0)
    IFS0bits.T2IF = 0;
9d008f0c:	3c03bf88 	lui	v1,0xbf88
9d008f10:	8c621030 	lw	v0,4144(v1)
9d008f14:	7c024a44 	ins	v0,zero,0x9,0x1
9d008f18:	ac621030 	sw	v0,4144(v1)
    IEC0bits.T2IE = 1;
9d008f1c:	3c03bf88 	lui	v1,0xbf88
9d008f20:	8c621060 	lw	v0,4192(v1)
9d008f24:	24040001 	li	a0,1
9d008f28:	7c824a44 	ins	v0,a0,0x9,0x1
9d008f2c:	ac621060 	sw	v0,4192(v1)
    IPC2bits.T2IP = 5;
9d008f30:	3c03bf88 	lui	v1,0xbf88
9d008f34:	8c6210b0 	lw	v0,4272(v1)
9d008f38:	24040005 	li	a0,5
9d008f3c:	7c822084 	ins	v0,a0,0x2,0x3
9d008f40:	ac6210b0 	sw	v0,4272(v1)
    IPC2bits.T2IS = 0;
9d008f44:	3c03bf88 	lui	v1,0xbf88
9d008f48:	8c6210b0 	lw	v0,4272(v1)
9d008f4c:	7c020804 	ins	v0,zero,0x0,0x2
9d008f50:	ac6210b0 	sw	v0,4272(v1)
    T2CONbits.ON = 1;
9d008f54:	3c03bf80 	lui	v1,0xbf80
9d008f58:	94620800 	lhu	v0,2048(v1)
9d008f5c:	24040001 	li	a0,1
9d008f60:	7c827bc4 	ins	v0,a0,0xf,0x1
9d008f64:	a4620800 	sh	v0,2048(v1)
}
9d008f68:	00000000 	nop
9d008f6c:	03c0e825 	move	sp,s8
9d008f70:	8fbe000c 	lw	s8,12(sp)
9d008f74:	27bd0010 	addiu	sp,sp,16
9d008f78:	03e00008 	jr	ra
9d008f7c:	00000000 	nop

9d008f80 <startPWM>:

/**
 * Initialize PWM output (20 kHz)
 */
void startPWM() {
9d008f80:	27bdfff0 	addiu	sp,sp,-16
9d008f84:	afbe000c 	sw	s8,12(sp)
9d008f88:	03a0f025 	move	s8,sp
    ANSELBbits.ANSB15 = 0;
9d008f8c:	3c03bf88 	lui	v1,0xbf88
9d008f90:	94626100 	lhu	v0,24832(v1)
9d008f94:	7c027bc4 	ins	v0,zero,0xf,0x1
9d008f98:	a4626100 	sh	v0,24832(v1)
    RPB15Rbits.RPB15R = 0b101;
9d008f9c:	3c03bf81 	lui	v1,0xbf81
9d008fa0:	9062fb68 	lbu	v0,-1176(v1)
9d008fa4:	24040005 	li	a0,5
9d008fa8:	7c821804 	ins	v0,a0,0x0,0x4
9d008fac:	a062fb68 	sb	v0,-1176(v1)

    OC1CONbits.OCM = 0b110;
9d008fb0:	3c03bf80 	lui	v1,0xbf80
9d008fb4:	94623000 	lhu	v0,12288(v1)
9d008fb8:	24040006 	li	a0,6
9d008fbc:	7c821004 	ins	v0,a0,0x0,0x3
9d008fc0:	a4623000 	sh	v0,12288(v1)
    OC1CONbits.OCTSEL = 1;
9d008fc4:	3c03bf80 	lui	v1,0xbf80
9d008fc8:	94623000 	lhu	v0,12288(v1)
9d008fcc:	24040001 	li	a0,1
9d008fd0:	7c8218c4 	ins	v0,a0,0x3,0x1
9d008fd4:	a4623000 	sh	v0,12288(v1)
    TMR3 = 0;
9d008fd8:	3c02bf80 	lui	v0,0xbf80
9d008fdc:	ac400a10 	sw	zero,2576(v0)
    OC1RS = 0;
9d008fe0:	3c02bf80 	lui	v0,0xbf80
9d008fe4:	ac403020 	sw	zero,12320(v0)
    OC1R = 0;
9d008fe8:	3c02bf80 	lui	v0,0xbf80
9d008fec:	ac403010 	sw	zero,12304(v0)
    int prescaler = 1;
9d008ff0:	24020001 	li	v0,1
9d008ff4:	afc20000 	sw	v0,0(s8)
    PR3 = (NU32DIP_SYS_FREQ / (20000 * prescaler)) - 1;
9d008ff8:	8fc30000 	lw	v1,0(s8)
9d008ffc:	00601025 	move	v0,v1
9d009000:	00021080 	sll	v0,v0,0x2
9d009004:	00431021 	addu	v0,v0,v1
9d009008:	000210c0 	sll	v0,v0,0x3
9d00900c:	00431023 	subu	v0,v0,v1
9d009010:	00021100 	sll	v0,v0,0x4
9d009014:	00431021 	addu	v0,v0,v1
9d009018:	00021140 	sll	v0,v0,0x5
9d00901c:	00401825 	move	v1,v0
9d009020:	3c0202dc 	lui	v0,0x2dc
9d009024:	34426c00 	ori	v0,v0,0x6c00
9d009028:	0043001b 	divu	zero,v0,v1
9d00902c:	006001f4 	teq	v1,zero,0x7
9d009030:	00001010 	mfhi	v0
9d009034:	00001012 	mflo	v0
9d009038:	2443ffff 	addiu	v1,v0,-1
9d00903c:	3c02bf80 	lui	v0,0xbf80
9d009040:	ac430a20 	sw	v1,2592(v0)
    T3CONbits.ON = 1;
9d009044:	3c03bf80 	lui	v1,0xbf80
9d009048:	94620a00 	lhu	v0,2560(v1)
9d00904c:	24040001 	li	a0,1
9d009050:	7c827bc4 	ins	v0,a0,0xf,0x1
9d009054:	a4620a00 	sh	v0,2560(v1)
    OC1CONbits.ON = 1;
9d009058:	3c03bf80 	lui	v1,0xbf80
9d00905c:	94623000 	lhu	v0,12288(v1)
9d009060:	24040001 	li	a0,1
9d009064:	7c827bc4 	ins	v0,a0,0xf,0x1
9d009068:	a4623000 	sh	v0,12288(v1)
}
9d00906c:	00000000 	nop
9d009070:	03c0e825 	move	sp,s8
9d009074:	8fbe000c 	lw	s8,12(sp)
9d009078:	27bd0010 	addiu	sp,sp,16
9d00907c:	03e00008 	jr	ra
9d009080:	00000000 	nop

9d009084 <initHBridgeDir>:


/**
 * Initialize H-Bridge direction control pin
 */
void initHBridgeDir() {
9d009084:	27bdfff8 	addiu	sp,sp,-8
9d009088:	afbe0004 	sw	s8,4(sp)
9d00908c:	03a0f025 	move	s8,sp
    TRISBbits.TRISB2 = 0;
9d009090:	3c03bf88 	lui	v1,0xbf88
9d009094:	94626110 	lhu	v0,24848(v1)
9d009098:	7c021084 	ins	v0,zero,0x2,0x1
9d00909c:	a4626110 	sh	v0,24848(v1)
    LATBbits.LATB3 = 0;
9d0090a0:	3c03bf88 	lui	v1,0xbf88
9d0090a4:	94626130 	lhu	v0,24880(v1)
9d0090a8:	7c0218c4 	ins	v0,zero,0x3,0x1
9d0090ac:	a4626130 	sh	v0,24880(v1)
}
9d0090b0:	00000000 	nop
9d0090b4:	03c0e825 	move	sp,s8
9d0090b8:	8fbe0004 	lw	s8,4(sp)
9d0090bc:	27bd0008 	addiu	sp,sp,8
9d0090c0:	03e00008 	jr	ra
9d0090c4:	00000000 	nop

9d0090c8 <sendDataToPython>:

/**
 * Send captured data to Python for plotting
 */
void sendDataToPython(int *refArray, int *actualArray, int length) {
9d0090c8:	27bdffb0 	addiu	sp,sp,-80
9d0090cc:	afbf004c 	sw	ra,76(sp)
9d0090d0:	afbe0048 	sw	s8,72(sp)
9d0090d4:	03a0f025 	move	s8,sp
9d0090d8:	afc40050 	sw	a0,80(s8)
9d0090dc:	afc50054 	sw	a1,84(s8)
9d0090e0:	afc60058 	sw	a2,88(s8)
    char buffer[50];
    sprintf(buffer, "%d\n", length);
9d0090e4:	27c30014 	addiu	v1,s8,20
9d0090e8:	8fc60058 	lw	a2,88(s8)
9d0090ec:	3c029d01 	lui	v0,0x9d01
9d0090f0:	24451874 	addiu	a1,v0,6260
9d0090f4:	00602025 	move	a0,v1
9d0090f8:	0f4051ca 	jal	9d014728 <_dsprintf_deEfFgGnu>
9d0090fc:	00000000 	nop
    NU32DIP_WriteUART1(buffer);
9d009100:	27c20014 	addiu	v0,s8,20
9d009104:	00402025 	move	a0,v0
9d009108:	0f403e6a 	jal	9d00f9a8 <NU32DIP_WriteUART1>
9d00910c:	00000000 	nop

    for (int i = 0; i < length; i++) {
9d009110:	afc00010 	sw	zero,16(s8)
9d009114:	1000001a 	b	9d009180 <sendDataToPython+0xb8>
9d009118:	00000000 	nop
        sprintf(buffer, "%d %d\n", refArray[i], actualArray[i]);
9d00911c:	8fc20010 	lw	v0,16(s8)
9d009120:	00021080 	sll	v0,v0,0x2
9d009124:	8fc30050 	lw	v1,80(s8)
9d009128:	00621021 	addu	v0,v1,v0
9d00912c:	8c440000 	lw	a0,0(v0)
9d009130:	8fc20010 	lw	v0,16(s8)
9d009134:	00021080 	sll	v0,v0,0x2
9d009138:	8fc30054 	lw	v1,84(s8)
9d00913c:	00621021 	addu	v0,v1,v0
9d009140:	8c420000 	lw	v0,0(v0)
9d009144:	27c30014 	addiu	v1,s8,20
9d009148:	00403825 	move	a3,v0
9d00914c:	00803025 	move	a2,a0
9d009150:	3c029d01 	lui	v0,0x9d01
9d009154:	24451878 	addiu	a1,v0,6264
9d009158:	00602025 	move	a0,v1
9d00915c:	0f4051ca 	jal	9d014728 <_dsprintf_deEfFgGnu>
9d009160:	00000000 	nop
        NU32DIP_WriteUART1(buffer);
9d009164:	27c20014 	addiu	v0,s8,20
9d009168:	00402025 	move	a0,v0
9d00916c:	0f403e6a 	jal	9d00f9a8 <NU32DIP_WriteUART1>
9d009170:	00000000 	nop
    for (int i = 0; i < length; i++) {
9d009174:	8fc20010 	lw	v0,16(s8)
9d009178:	24420001 	addiu	v0,v0,1
9d00917c:	afc20010 	sw	v0,16(s8)
9d009180:	8fc30010 	lw	v1,16(s8)
9d009184:	8fc20058 	lw	v0,88(s8)
9d009188:	0062102a 	slt	v0,v1,v0
9d00918c:	1440ffe3 	bnez	v0,9d00911c <sendDataToPython+0x54>
9d009190:	00000000 	nop
    }
}
9d009194:	00000000 	nop
9d009198:	03c0e825 	move	sp,s8
9d00919c:	8fbf004c 	lw	ra,76(sp)
9d0091a0:	8fbe0048 	lw	s8,72(sp)
9d0091a4:	27bd0050 	addiu	sp,sp,80
9d0091a8:	03e00008 	jr	ra
9d0091ac:	00000000 	nop

Disassembly of section .text.decfloat:

9d0091b0 <decfloat>:
9d0091b0:	27bdfdb0 	addiu	sp,sp,-592
9d0091b4:	afb30234 	sw	s3,564(sp)
9d0091b8:	afb1022c 	sw	s1,556(sp)
9d0091bc:	afbf024c 	sw	ra,588(sp)
9d0091c0:	afbe0248 	sw	s8,584(sp)
9d0091c4:	afb70244 	sw	s7,580(sp)
9d0091c8:	afb60240 	sw	s6,576(sp)
9d0091cc:	afb5023c 	sw	s5,572(sp)
9d0091d0:	afb40238 	sw	s4,568(sp)
9d0091d4:	afb20230 	sw	s2,560(sp)
9d0091d8:	afb00228 	sw	s0,552(sp)
9d0091dc:	00808825 	move	s1,a0
9d0091e0:	00a01025 	move	v0,a1
9d0091e4:	afa60258 	sw	a2,600(sp)
9d0091e8:	afa7025c 	sw	a3,604(sp)
9d0091ec:	00009825 	move	s3,zero
9d0091f0:	24030030 	li	v1,48
9d0091f4:	1043004a 	beq	v0,v1,9d009320 <decfloat+0x170>
9d0091f8:	2403002e 	li	v1,46
9d0091fc:	1443006b 	bne	v0,v1,9d0093ac <decfloat+0x1fc>
9d009200:	00009025 	move	s2,zero
9d009204:	8e22003c 	lw	v0,60(s1)
9d009208:	8e23004c 	lw	v1,76(s1)
9d00920c:	0043182b 	sltu	v1,v0,v1
9d009210:	10600050 	beqz	v1,9d009354 <decfloat+0x1a4>
9d009214:	24430001 	addiu	v1,v0,1
9d009218:	ae23003c 	sw	v1,60(s1)
9d00921c:	90420000 	lbu	v0,0(v0)
9d009220:	00008025 	move	s0,zero
9d009224:	0000a025 	move	s4,zero
9d009228:	24030030 	li	v1,48
9d00922c:	1043004d 	beq	v0,v1,9d009364 <decfloat+0x1b4>
9d009230:	24120001 	li	s2,1
9d009234:	afa00010 	sw	zero,16(sp)
9d009238:	0000b825 	move	s7,zero
9d00923c:	0000f025 	move	s8,zero
9d009240:	00003025 	move	a2,zero
9d009244:	0000b025 	move	s6,zero
9d009248:	0000a825 	move	s5,zero
9d00924c:	2444ffd0 	addiu	a0,v0,-48
9d009250:	2c85000a 	sltiu	a1,a0,10
9d009254:	54a00058 	bnezl	a1,9d0093b8 <decfloat+0x208>
9d009258:	2405002e 	li	a1,46
9d00925c:	2404002e 	li	a0,46
9d009260:	10440057 	beq	v0,a0,9d0093c0 <decfloat+0x210>
9d009264:	00000000 	nop
9d009268:	03d2800a 	movz	s0,s8,s2
9d00926c:	00d2a00a 	movz	s4,a2,s2
9d009270:	1260030b 	beqz	s3,9d009ea0 <decfloat+0xcf0>
9d009274:	34430020 	ori	v1,v0,0x20
9d009278:	24040065 	li	a0,101
9d00927c:	14640325 	bne	v1,a0,9d009f14 <decfloat+0xd64>
9d009280:	8fa50264 	lw	a1,612(sp)
9d009284:	02202025 	move	a0,s1
9d009288:	0f403fdd 	jal	9d00ff74 <scanexp>
9d00928c:	afa60210 	sw	a2,528(sp)
9d009290:	1440000e 	bnez	v0,9d0092cc <decfloat+0x11c>
9d009294:	8fa60210 	lw	a2,528(sp)
9d009298:	3c048000 	lui	a0,0x8000
9d00929c:	5464000c 	bnel	v1,a0,9d0092d0 <decfloat+0x120>
9d0092a0:	02021021 	addu	v0,s0,v0
9d0092a4:	8fa30264 	lw	v1,612(sp)
9d0092a8:	1060030a 	beqz	v1,9d009ed4 <decfloat+0xd24>
9d0092ac:	00002825 	move	a1,zero
9d0092b0:	8e24004c 	lw	a0,76(s1)
9d0092b4:	10800005 	beqz	a0,9d0092cc <decfloat+0x11c>
9d0092b8:	00001825 	move	v1,zero
9d0092bc:	8e23003c 	lw	v1,60(s1)
9d0092c0:	2463ffff 	addiu	v1,v1,-1
9d0092c4:	ae23003c 	sw	v1,60(s1)
9d0092c8:	00401825 	move	v1,v0
9d0092cc:	02021021 	addu	v0,s0,v0
9d0092d0:	0050202b 	sltu	a0,v0,s0
9d0092d4:	0283a021 	addu	s4,s4,v1
9d0092d8:	00408025 	move	s0,v0
9d0092dc:	0094a021 	addu	s4,a0,s4
9d0092e0:	8fa40260 	lw	a0,608(sp)
9d0092e4:	8fb10010 	lw	s1,16(sp)
9d0092e8:	0f404e18 	jal	9d013860 <__floatsidf>
9d0092ec:	afa60210 	sw	a2,528(sp)
9d0092f0:	00409025 	move	s2,v0
9d0092f4:	00609825 	move	s3,v1
9d0092f8:	16200064 	bnez	s1,9d00948c <decfloat+0x2dc>
9d0092fc:	8fa60210 	lw	a2,528(sp)
9d009300:	00003025 	move	a2,zero
9d009304:	00003825 	move	a3,zero
9d009308:	00402025 	move	a0,v0
9d00930c:	00602825 	move	a1,v1
9d009310:	0f403d0b 	jal	9d00f42c <__muldf3>
9d009314:	00000000 	nop
9d009318:	100002f3 	b	9d009ee8 <decfloat+0xd38>
9d00931c:	8fbf024c 	lw	ra,588(sp)
9d009320:	8e22003c 	lw	v0,60(s1)
9d009324:	8e23004c 	lw	v1,76(s1)
9d009328:	0043182b 	sltu	v1,v0,v1
9d00932c:	10600005 	beqz	v1,9d009344 <decfloat+0x194>
9d009330:	24430001 	addiu	v1,v0,1
9d009334:	ae23003c 	sw	v1,60(s1)
9d009338:	90420000 	lbu	v0,0(v0)
9d00933c:	1000ffac 	b	9d0091f0 <decfloat+0x40>
9d009340:	24130001 	li	s3,1
9d009344:	0f404a27 	jal	9d01289c <__shgetc>
9d009348:	02202025 	move	a0,s1
9d00934c:	1000ffa8 	b	9d0091f0 <decfloat+0x40>
9d009350:	24130001 	li	s3,1
9d009354:	0f404a27 	jal	9d01289c <__shgetc>
9d009358:	02202025 	move	a0,s1
9d00935c:	1000ffb1 	b	9d009224 <decfloat+0x74>
9d009360:	00008025 	move	s0,zero
9d009364:	8e22003c 	lw	v0,60(s1)
9d009368:	8e23004c 	lw	v1,76(s1)
9d00936c:	0043182b 	sltu	v1,v0,v1
9d009370:	1060000a 	beqz	v1,9d00939c <decfloat+0x1ec>
9d009374:	24430001 	addiu	v1,v0,1
9d009378:	ae23003c 	sw	v1,60(s1)
9d00937c:	90420000 	lbu	v0,0(v0)
9d009380:	2604ffff 	addiu	a0,s0,-1
9d009384:	0090182b 	sltu	v1,a0,s0
9d009388:	2694ffff 	addiu	s4,s4,-1
9d00938c:	00808025 	move	s0,a0
9d009390:	0074a021 	addu	s4,v1,s4
9d009394:	1000ffa4 	b	9d009228 <decfloat+0x78>
9d009398:	24130001 	li	s3,1
9d00939c:	0f404a27 	jal	9d01289c <__shgetc>
9d0093a0:	02202025 	move	a0,s1
9d0093a4:	1000fff7 	b	9d009384 <decfloat+0x1d4>
9d0093a8:	2604ffff 	addiu	a0,s0,-1
9d0093ac:	00008025 	move	s0,zero
9d0093b0:	1000ffa0 	b	9d009234 <decfloat+0x84>
9d0093b4:	0000a025 	move	s4,zero
9d0093b8:	1445000d 	bne	v0,a1,9d0093f0 <decfloat+0x240>
9d0093bc:	27c50001 	addiu	a1,s8,1
9d0093c0:	16400030 	bnez	s2,9d009484 <decfloat+0x2d4>
9d0093c4:	24120001 	li	s2,1
9d0093c8:	03c08025 	move	s0,s8
9d0093cc:	00c0a025 	move	s4,a2
9d0093d0:	8e22003c 	lw	v0,60(s1)
9d0093d4:	8e24004c 	lw	a0,76(s1)
9d0093d8:	0044202b 	sltu	a0,v0,a0
9d0093dc:	10800024 	beqz	a0,9d009470 <decfloat+0x2c0>
9d0093e0:	24440001 	addiu	a0,v0,1
9d0093e4:	ae24003c 	sw	a0,60(s1)
9d0093e8:	1000ff98 	b	9d00924c <decfloat+0x9c>
9d0093ec:	90420000 	lbu	v0,0(v0)
9d0093f0:	00be382b 	sltu	a3,a1,s8
9d0093f4:	00a0f025 	move	s8,a1
9d0093f8:	2ac5007d 	slti	a1,s6,125
9d0093fc:	10a00015 	beqz	a1,9d009454 <decfloat+0x2a4>
9d009400:	00e63021 	addu	a2,a3,a2
9d009404:	38420030 	xori	v0,v0,0x30
9d009408:	03c2b80b 	movn	s7,s8,v0
9d00940c:	12a00007 	beqz	s5,9d00942c <decfloat+0x27c>
9d009410:	00161080 	sll	v0,s6,0x2
9d009414:	27a30010 	addiu	v1,sp,16
9d009418:	00622821 	addu	a1,v1,v0
9d00941c:	8ca50000 	lw	a1,0(a1)
9d009420:	2407000a 	li	a3,10
9d009424:	70e51802 	mul	v1,a3,a1
9d009428:	00642021 	addu	a0,v1,a0
9d00942c:	27a30010 	addiu	v1,sp,16
9d009430:	00621021 	addu	v0,v1,v0
9d009434:	ac440000 	sw	a0,0(v0)
9d009438:	26b50001 	addiu	s5,s5,1
9d00943c:	24020009 	li	v0,9
9d009440:	16a2ffe3 	bne	s5,v0,9d0093d0 <decfloat+0x220>
9d009444:	24130001 	li	s3,1
9d009448:	26d60001 	addiu	s6,s6,1
9d00944c:	1000ffe0 	b	9d0093d0 <decfloat+0x220>
9d009450:	0000a825 	move	s5,zero
9d009454:	24040030 	li	a0,48
9d009458:	1044ffdd 	beq	v0,a0,9d0093d0 <decfloat+0x220>
9d00945c:	8fa20200 	lw	v0,512(sp)
9d009460:	2417045c 	li	s7,1116
9d009464:	34420001 	ori	v0,v0,0x1
9d009468:	1000ffd9 	b	9d0093d0 <decfloat+0x220>
9d00946c:	afa20200 	sw	v0,512(sp)
9d009470:	02202025 	move	a0,s1
9d009474:	0f404a27 	jal	9d01289c <__shgetc>
9d009478:	afa60210 	sw	a2,528(sp)
9d00947c:	1000ff73 	b	9d00924c <decfloat+0x9c>
9d009480:	8fa60210 	lw	a2,528(sp)
9d009484:	1000ff7a 	b	9d009270 <decfloat+0xc0>
9d009488:	2402002e 	li	v0,46
9d00948c:	17d00016 	bne	s8,s0,9d0094e8 <decfloat+0x338>
9d009490:	8fa2025c 	lw	v0,604(sp)
9d009494:	14d40015 	bne	a2,s4,9d0094ec <decfloat+0x33c>
9d009498:	8fa3025c 	lw	v1,604(sp)
9d00949c:	1e800014 	bgtz	s4,9d0094f0 <decfloat+0x340>
9d0094a0:	000217c2 	srl	v0,v0,0x1f
9d0094a4:	16800003 	bnez	s4,9d0094b4 <decfloat+0x304>
9d0094a8:	2e02000a 	sltiu	v0,s0,10
9d0094ac:	1040000f 	beqz	v0,9d0094ec <decfloat+0x33c>
9d0094b0:	8fa2025c 	lw	v0,604(sp)
9d0094b4:	8fa20258 	lw	v0,600(sp)
9d0094b8:	2842001f 	slti	v0,v0,31
9d0094bc:	10400005 	beqz	v0,9d0094d4 <decfloat+0x324>
9d0094c0:	00000000 	nop
9d0094c4:	8fa20258 	lw	v0,600(sp)
9d0094c8:	00511006 	srlv	v0,s1,v0
9d0094cc:	54400006 	bnezl	v0,9d0094e8 <decfloat+0x338>
9d0094d0:	8fa2025c 	lw	v0,604(sp)
9d0094d4:	0f405073 	jal	9d0141cc <__floatunsidf>
9d0094d8:	02202025 	move	a0,s1
9d0094dc:	02403025 	move	a2,s2
9d0094e0:	1000ff89 	b	9d009308 <decfloat+0x158>
9d0094e4:	02603825 	move	a3,s3
9d0094e8:	8fa3025c 	lw	v1,604(sp)
9d0094ec:	000217c2 	srl	v0,v0,0x1f
9d0094f0:	00431021 	addu	v0,v0,v1
9d0094f4:	00021043 	sra	v0,v0,0x1
9d0094f8:	00021023 	negu	v0,v0
9d0094fc:	00021fc3 	sra	v1,v0,0x1f
9d009500:	0074202a 	slt	a0,v1,s4
9d009504:	54800006 	bnezl	a0,9d009520 <decfloat+0x370>
9d009508:	3c109d00 	lui	s0,0x9d00
9d00950c:	1683000f 	bne	s4,v1,9d00954c <decfloat+0x39c>
9d009510:	0050102b 	sltu	v0,v0,s0
9d009514:	5040000e 	beqzl	v0,9d009550 <decfloat+0x3a0>
9d009518:	8fa2025c 	lw	v0,604(sp)
9d00951c:	3c109d00 	lui	s0,0x9d00
9d009520:	8e0674f0 	lw	a2,29936(s0)
9d009524:	8e0774f4 	lw	a3,29940(s0)
9d009528:	3c02a000 	lui	v0,0xa000
9d00952c:	24030022 	li	v1,34
9d009530:	ac432404 	sw	v1,9220(v0)
9d009534:	02402025 	move	a0,s2
9d009538:	0f403d0b 	jal	9d00f42c <__muldf3>
9d00953c:	02602825 	move	a1,s3
9d009540:	8e0674f0 	lw	a2,29936(s0)
9d009544:	1000ff70 	b	9d009308 <decfloat+0x158>
9d009548:	8e0774f4 	lw	a3,29940(s0)
9d00954c:	8fa2025c 	lw	v0,604(sp)
9d009550:	2442ff96 	addiu	v0,v0,-106
9d009554:	00021fc3 	sra	v1,v0,0x1f
9d009558:	0283202a 	slt	a0,s4,v1
9d00955c:	54800006 	bnezl	a0,9d009578 <decfloat+0x3c8>
9d009560:	3c109d00 	lui	s0,0x9d00
9d009564:	1474000f 	bne	v1,s4,9d0095a4 <decfloat+0x3f4>
9d009568:	0202102b 	sltu	v0,s0,v0
9d00956c:	1040000d 	beqz	v0,9d0095a4 <decfloat+0x3f4>
9d009570:	00000000 	nop
9d009574:	3c109d00 	lui	s0,0x9d00
9d009578:	8e0674f8 	lw	a2,29944(s0)
9d00957c:	8e0774fc 	lw	a3,29948(s0)
9d009580:	3c02a000 	lui	v0,0xa000
9d009584:	24030022 	li	v1,34
9d009588:	ac432404 	sw	v1,9220(v0)
9d00958c:	02402025 	move	a0,s2
9d009590:	0f403d0b 	jal	9d00f42c <__muldf3>
9d009594:	02602825 	move	a1,s3
9d009598:	8e0674f8 	lw	a2,29944(s0)
9d00959c:	1000ff5a 	b	9d009308 <decfloat+0x158>
9d0095a0:	8e0774fc 	lw	a3,29948(s0)
9d0095a4:	12a00008 	beqz	s5,9d0095c8 <decfloat+0x418>
9d0095a8:	00161080 	sll	v0,s6,0x2
9d0095ac:	27a30010 	addiu	v1,sp,16
9d0095b0:	00621021 	addu	v0,v1,v0
9d0095b4:	2404000a 	li	a0,10
9d0095b8:	2aa30009 	slti	v1,s5,9
9d0095bc:	54600027 	bnezl	v1,9d00965c <decfloat+0x4ac>
9d0095c0:	8c430000 	lw	v1,0(v0)
9d0095c4:	26d60001 	addiu	s6,s6,1
9d0095c8:	2ae20009 	slti	v0,s7,9
9d0095cc:	10400047 	beqz	v0,9d0096ec <decfloat+0x53c>
9d0095d0:	0200a025 	move	s4,s0
9d0095d4:	0217b82a 	slt	s7,s0,s7
9d0095d8:	16e00044 	bnez	s7,9d0096ec <decfloat+0x53c>
9d0095dc:	2a020012 	slti	v0,s0,18
9d0095e0:	10400042 	beqz	v0,9d0096ec <decfloat+0x53c>
9d0095e4:	24020009 	li	v0,9
9d0095e8:	1202ffba 	beq	s0,v0,9d0094d4 <decfloat+0x324>
9d0095ec:	8fb10010 	lw	s1,16(sp)
9d0095f0:	2a020009 	slti	v0,s0,9
9d0095f4:	5040001d 	beqzl	v0,9d00966c <decfloat+0x4bc>
9d0095f8:	2602fff7 	addiu	v0,s0,-9
9d0095fc:	0f405073 	jal	9d0141cc <__floatunsidf>
9d009600:	02202025 	move	a0,s1
9d009604:	00602825 	move	a1,v1
9d009608:	02403025 	move	a2,s2
9d00960c:	02603825 	move	a3,s3
9d009610:	0f403d0b 	jal	9d00f42c <__muldf3>
9d009614:	00402025 	move	a0,v0
9d009618:	00409025 	move	s2,v0
9d00961c:	24020008 	li	v0,8
9d009620:	00508023 	subu	s0,v0,s0
9d009624:	3c029d01 	lui	v0,0x9d01
9d009628:	244245d8 	addiu	v0,v0,17880
9d00962c:	00108080 	sll	s0,s0,0x2
9d009630:	02028021 	addu	s0,s0,v0
9d009634:	8e040000 	lw	a0,0(s0)
9d009638:	0f404e18 	jal	9d013860 <__floatsidf>
9d00963c:	00609825 	move	s3,v1
9d009640:	00403025 	move	a2,v0
9d009644:	00603825 	move	a3,v1
9d009648:	02402025 	move	a0,s2
9d00964c:	0f4033cc 	jal	9d00cf30 <__divdf3>
9d009650:	02602825 	move	a1,s3
9d009654:	10000224 	b	9d009ee8 <decfloat+0xd38>
9d009658:	8fbf024c 	lw	ra,588(sp)
9d00965c:	26b50001 	addiu	s5,s5,1
9d009660:	70641802 	mul	v1,v1,a0
9d009664:	1000ffd4 	b	9d0095b8 <decfloat+0x408>
9d009668:	ac430000 	sw	v1,0(v0)
9d00966c:	00021880 	sll	v1,v0,0x2
9d009670:	00431023 	subu	v0,v0,v1
9d009674:	8fa30258 	lw	v1,600(sp)
9d009678:	00431021 	addu	v0,v0,v1
9d00967c:	2843001f 	slti	v1,v0,31
9d009680:	50600005 	beqzl	v1,9d009698 <decfloat+0x4e8>
9d009684:	2610fff6 	addiu	s0,s0,-10
9d009688:	00511006 	srlv	v0,s1,v0
9d00968c:	54400018 	bnezl	v0,9d0096f0 <decfloat+0x540>
9d009690:	26c3ffff 	addiu	v1,s6,-1
9d009694:	2610fff6 	addiu	s0,s0,-10
9d009698:	3c029d01 	lui	v0,0x9d01
9d00969c:	244245d8 	addiu	v0,v0,17880
9d0096a0:	00108080 	sll	s0,s0,0x2
9d0096a4:	02028021 	addu	s0,s0,v0
9d0096a8:	0f404e18 	jal	9d013860 <__floatsidf>
9d0096ac:	8e040000 	lw	a0,0(s0)
9d0096b0:	02202025 	move	a0,s1
9d0096b4:	0040a025 	move	s4,v0
9d0096b8:	0f405073 	jal	9d0141cc <__floatunsidf>
9d0096bc:	0060a825 	move	s5,v1
9d0096c0:	00402025 	move	a0,v0
9d0096c4:	02403025 	move	a2,s2
9d0096c8:	02603825 	move	a3,s3
9d0096cc:	0f403d0b 	jal	9d00f42c <__muldf3>
9d0096d0:	00602825 	move	a1,v1
9d0096d4:	00403025 	move	a2,v0
9d0096d8:	00603825 	move	a3,v1
9d0096dc:	02802025 	move	a0,s4
9d0096e0:	1000ff0b 	b	9d009310 <decfloat+0x160>
9d0096e4:	02a02825 	move	a1,s5
9d0096e8:	0060b025 	move	s6,v1
9d0096ec:	26c3ffff 	addiu	v1,s6,-1
9d0096f0:	00031080 	sll	v0,v1,0x2
9d0096f4:	27a40010 	addiu	a0,sp,16
9d0096f8:	00821021 	addu	v0,a0,v0
9d0096fc:	8c420000 	lw	v0,0(v0)
9d009700:	1040fff9 	beqz	v0,9d0096e8 <decfloat+0x538>
9d009704:	24090009 	li	t1,9
9d009708:	0209001a 	div	zero,s0,t1
9d00970c:	012001f4 	teq	t1,zero,0x7
9d009710:	00004810 	mfhi	t1
9d009714:	1120001c 	beqz	t1,9d009788 <decfloat+0x5d8>
9d009718:	3c0c0089 	lui	t4,0x89
9d00971c:	06020001 	bltzl	s0,9d009724 <decfloat+0x574>
9d009720:	25290009 	addiu	t1,t1,9
9d009724:	24020008 	li	v0,8
9d009728:	00491023 	subu	v0,v0,t1
9d00972c:	3c039d01 	lui	v1,0x9d01
9d009730:	246345d8 	addiu	v1,v1,17880
9d009734:	00021080 	sll	v0,v0,0x2
9d009738:	00431021 	addu	v0,v0,v1
9d00973c:	8c460000 	lw	a2,0(v0)
9d009740:	3c073b9a 	lui	a3,0x3b9a
9d009744:	27a50010 	addiu	a1,sp,16
9d009748:	00001825 	move	v1,zero
9d00974c:	00005025 	move	t2,zero
9d009750:	00002025 	move	a0,zero
9d009754:	34e7ca00 	ori	a3,a3,0xca00
9d009758:	54960052 	bnel	a0,s6,9d0098a4 <decfloat+0x6f4>
9d00975c:	8ca20000 	lw	v0,0(a1)
9d009760:	10600005 	beqz	v1,9d009778 <decfloat+0x5c8>
9d009764:	00161080 	sll	v0,s6,0x2
9d009768:	27a40010 	addiu	a0,sp,16
9d00976c:	00821021 	addu	v0,a0,v0
9d009770:	ac430000 	sw	v1,0(v0)
9d009774:	26d60001 	addiu	s6,s6,1
9d009778:	0289a023 	subu	s4,s4,t1
9d00977c:	26940009 	addiu	s4,s4,9
9d009780:	01404825 	move	t1,t2
9d009784:	3c0c0089 	lui	t4,0x89
9d009788:	3c103b9a 	lui	s0,0x3b9a
9d00978c:	3c0d3b9a 	lui	t5,0x3b9a
9d009790:	0000b825 	move	s7,zero
9d009794:	240e0012 	li	t6,18
9d009798:	258c705f 	addiu	t4,t4,28767
9d00979c:	3610ca00 	ori	s0,s0,0xca00
9d0097a0:	00008825 	move	s1,zero
9d0097a4:	35adca01 	ori	t5,t5,0xca01
9d0097a8:	2a820012 	slti	v0,s4,18
9d0097ac:	14400050 	bnez	v0,9d0098f0 <decfloat+0x740>
9d0097b0:	26d5ffff 	addiu	s5,s6,-1
9d0097b4:	168e0007 	bne	s4,t6,9d0097d4 <decfloat+0x624>
9d0097b8:	00091080 	sll	v0,t1,0x2
9d0097bc:	27a30010 	addiu	v1,sp,16
9d0097c0:	00621021 	addu	v0,v1,v0
9d0097c4:	8c420000 	lw	v0,0(v0)
9d0097c8:	004c102b 	sltu	v0,v0,t4
9d0097cc:	14400049 	bnez	v0,9d0098f4 <decfloat+0x744>
9d0097d0:	32b5007f 	andi	s5,s5,0x7f
9d0097d4:	3c040089 	lui	a0,0x89
9d0097d8:	3c050f2f 	lui	a1,0xf2f
9d0097dc:	3c063b9a 	lui	a2,0x3b9a
9d0097e0:	240a0012 	li	t2,18
9d0097e4:	2484705f 	addiu	a0,a0,28767
9d0097e8:	24a50a00 	addiu	a1,a1,2560
9d0097ec:	24070001 	li	a3,1
9d0097f0:	240b0009 	li	t3,9
9d0097f4:	34c6ca00 	ori	a2,a2,0xca00
9d0097f8:	11360012 	beq	t1,s6,9d009844 <decfloat+0x694>
9d0097fc:	27a30010 	addiu	v1,sp,16
9d009800:	00091080 	sll	v0,t1,0x2
9d009804:	00621021 	addu	v0,v1,v0
9d009808:	8c420000 	lw	v0,0(v0)
9d00980c:	0044182b 	sltu	v1,v0,a0
9d009810:	1460000c 	bnez	v1,9d009844 <decfloat+0x694>
9d009814:	00000000 	nop
9d009818:	1444000c 	bne	v0,a0,9d00984c <decfloat+0x69c>
9d00981c:	25220001 	addiu	v0,t1,1
9d009820:	3042007f 	andi	v0,v0,0x7f
9d009824:	12c20007 	beq	s6,v0,9d009844 <decfloat+0x694>
9d009828:	00021080 	sll	v0,v0,0x2
9d00982c:	27a30010 	addiu	v1,sp,16
9d009830:	00621021 	addu	v0,v1,v0
9d009834:	8c420000 	lw	v0,0(v0)
9d009838:	0045102b 	sltu	v0,v0,a1
9d00983c:	10400004 	beqz	v0,9d009850 <decfloat+0x6a0>
9d009840:	2a83001c 	slti	v1,s4,28
9d009844:	128a0093 	beq	s4,t2,9d009a94 <decfloat+0x8e4>
9d009848:	00000000 	nop
9d00984c:	2a83001c 	slti	v1,s4,28
9d009850:	01601025 	move	v0,t3
9d009854:	00e3100b 	movn	v0,a3,v1
9d009858:	0047c004 	sllv	t8,a3,v0
9d00985c:	00401825 	move	v1,v0
9d009860:	0046c807 	srav	t9,a2,v0
9d009864:	2718ffff 	addiu	t8,t8,-1
9d009868:	01201025 	move	v0,t1
9d00986c:	00006025 	move	t4,zero
9d009870:	5456006d 	bnel	v0,s6,9d009a28 <decfloat+0x878>
9d009874:	00027080 	sll	t6,v0,0x2
9d009878:	11800008 	beqz	t4,9d00989c <decfloat+0x6ec>
9d00987c:	26c20001 	addiu	v0,s6,1
9d009880:	3042007f 	andi	v0,v0,0x7f
9d009884:	1049007a 	beq	v0,t1,9d009a70 <decfloat+0x8c0>
9d009888:	00164080 	sll	t0,s6,0x2
9d00988c:	27ad0010 	addiu	t5,sp,16
9d009890:	01a84021 	addu	t0,t5,t0
9d009894:	ad0c0000 	sw	t4,0(t0)
9d009898:	0040b025 	move	s6,v0
9d00989c:	1000ffd6 	b	9d0097f8 <decfloat+0x648>
9d0098a0:	02e3b821 	addu	s7,s7,v1
9d0098a4:	248b0001 	addiu	t3,a0,1
9d0098a8:	0046001b 	divu	zero,v0,a2
9d0098ac:	00c001f4 	teq	a2,zero,0x7
9d0098b0:	00001012 	mflo	v0
9d0098b4:	00431021 	addu	v0,v0,v1
9d0098b8:	148a0005 	bne	a0,t2,9d0098d0 <decfloat+0x720>
9d0098bc:	00006010 	mfhi	t4
9d0098c0:	14400003 	bnez	v0,9d0098d0 <decfloat+0x720>
9d0098c4:	00000000 	nop
9d0098c8:	316a007f 	andi	t2,t3,0x7f
9d0098cc:	2694fff7 	addiu	s4,s4,-9
9d0098d0:	00e6001a 	div	zero,a3,a2
9d0098d4:	00c001f4 	teq	a2,zero,0x7
9d0098d8:	aca20000 	sw	v0,0(a1)
9d0098dc:	01602025 	move	a0,t3
9d0098e0:	24a50004 	addiu	a1,a1,4
9d0098e4:	00001012 	mflo	v0
9d0098e8:	1000ff9b 	b	9d009758 <decfloat+0x5a8>
9d0098ec:	704c1802 	mul	v1,v0,t4
9d0098f0:	32b5007f 	andi	s5,s5,0x7f
9d0098f4:	00005025 	move	t2,zero
9d0098f8:	00155880 	sll	t3,s5,0x2
9d0098fc:	27a20010 	addiu	v0,sp,16
9d009900:	004b1021 	addu	v0,v0,t3
9d009904:	8c5e0000 	lw	s8,0(v0)
9d009908:	001e10c2 	srl	v0,s8,0x3
9d00990c:	001ef740 	sll	s8,s8,0x1d
9d009910:	03ca7821 	addu	t7,s8,t2
9d009914:	01fef02b 	sltu	s8,t7,s8
9d009918:	03c2f021 	addu	s8,s8,v0
9d00991c:	17c00003 	bnez	s8,9d00992c <decfloat+0x77c>
9d009920:	01ed102b 	sltu	v0,t7,t5
9d009924:	14400024 	bnez	v0,9d0099b8 <decfloat+0x808>
9d009928:	01e01025 	move	v0,t7
9d00992c:	01e02025 	move	a0,t7
9d009930:	02003025 	move	a2,s0
9d009934:	02203825 	move	a3,s1
9d009938:	03c02825 	move	a1,s8
9d00993c:	afab0220 	sw	t3,544(sp)
9d009940:	afa90218 	sw	t1,536(sp)
9d009944:	0f403b2e 	jal	9d00ecb8 <__udivdi3>
9d009948:	afaf0214 	sw	t7,532(sp)
9d00994c:	8faf0214 	lw	t7,532(sp)
9d009950:	02003025 	move	a2,s0
9d009954:	02203825 	move	a3,s1
9d009958:	01e02025 	move	a0,t7
9d00995c:	03c02825 	move	a1,s8
9d009960:	0f403c1d 	jal	9d00f074 <__umoddi3>
9d009964:	afa20210 	sw	v0,528(sp)
9d009968:	3c030089 	lui	v1,0x89
9d00996c:	8faa0210 	lw	t2,528(sp)
9d009970:	8fa90218 	lw	t1,536(sp)
9d009974:	8fab0220 	lw	t3,544(sp)
9d009978:	346c705f 	ori	t4,v1,0x705f
9d00997c:	3c033b9a 	lui	v1,0x3b9a
9d009980:	240e0012 	li	t6,18
9d009984:	346dca01 	ori	t5,v1,0xca01
9d009988:	27a30010 	addiu	v1,sp,16
9d00998c:	006b5821 	addu	t3,v1,t3
9d009990:	26c3ffff 	addiu	v1,s6,-1
9d009994:	3063007f 	andi	v1,v1,0x7f
9d009998:	14750009 	bne	v1,s5,9d0099c0 <decfloat+0x810>
9d00999c:	ad620000 	sw	v0,0(t3)
9d0099a0:	52a90009 	beql	s5,t1,9d0099c8 <decfloat+0x818>
9d0099a4:	01201825 	move	v1,t1
9d0099a8:	02a2b00a 	movz	s6,s5,v0
9d0099ac:	26b5ffff 	addiu	s5,s5,-1
9d0099b0:	1000ffd1 	b	9d0098f8 <decfloat+0x748>
9d0099b4:	32b5007f 	andi	s5,s5,0x7f
9d0099b8:	1000fff3 	b	9d009988 <decfloat+0x7d8>
9d0099bc:	00005025 	move	t2,zero
9d0099c0:	56a9fffb 	bnel	s5,t1,9d0099b0 <decfloat+0x800>
9d0099c4:	26b5ffff 	addiu	s5,s5,-1
9d0099c8:	5140ff77 	beqzl	t2,9d0097a8 <decfloat+0x5f8>
9d0099cc:	26f7ffe3 	addiu	s7,s7,-29
9d0099d0:	2529ffff 	addiu	t1,t1,-1
9d0099d4:	3129007f 	andi	t1,t1,0x7f
9d0099d8:	16c9000c 	bne	s6,t1,9d009a0c <decfloat+0x85c>
9d0099dc:	2462ffff 	addiu	v0,v1,-1
9d0099e0:	3042007f 	andi	v0,v0,0x7f
9d0099e4:	27a40010 	addiu	a0,sp,16
9d0099e8:	00021080 	sll	v0,v0,0x2
9d0099ec:	00032880 	sll	a1,v1,0x2
9d0099f0:	00821021 	addu	v0,a0,v0
9d0099f4:	00852821 	addu	a1,a0,a1
9d0099f8:	8ca50000 	lw	a1,0(a1)
9d0099fc:	8c440000 	lw	a0,0(v0)
9d009a00:	0060b025 	move	s6,v1
9d009a04:	00852025 	or	a0,a0,a1
9d009a08:	ac440000 	sw	a0,0(v0)
9d009a0c:	00091080 	sll	v0,t1,0x2
9d009a10:	27a30010 	addiu	v1,sp,16
9d009a14:	00621021 	addu	v0,v1,v0
9d009a18:	26940009 	addiu	s4,s4,9
9d009a1c:	ac4a0000 	sw	t2,0(v0)
9d009a20:	1000ff61 	b	9d0097a8 <decfloat+0x5f8>
9d009a24:	26f7ffe3 	addiu	s7,s7,-29
9d009a28:	27a80010 	addiu	t0,sp,16
9d009a2c:	010e6821 	addu	t5,t0,t6
9d009a30:	8dad0000 	lw	t5,0(t5)
9d009a34:	006d7806 	srlv	t7,t5,v1
9d009a38:	01ec6021 	addu	t4,t7,t4
9d009a3c:	14490005 	bne	v0,t1,9d009a54 <decfloat+0x8a4>
9d009a40:	244f0001 	addiu	t7,v0,1
9d009a44:	55800004 	bnezl	t4,9d009a58 <decfloat+0x8a8>
9d009a48:	27a20010 	addiu	v0,sp,16
9d009a4c:	31e9007f 	andi	t1,t7,0x7f
9d009a50:	2694fff7 	addiu	s4,s4,-9
9d009a54:	27a20010 	addiu	v0,sp,16
9d009a58:	004e7021 	addu	t6,v0,t6
9d009a5c:	adcc0000 	sw	t4,0(t6)
9d009a60:	030d6024 	and	t4,t8,t5
9d009a64:	71996002 	mul	t4,t4,t9
9d009a68:	1000ff81 	b	9d009870 <decfloat+0x6c0>
9d009a6c:	31e2007f 	andi	v0,t7,0x7f
9d009a70:	26c2ffff 	addiu	v0,s6,-1
9d009a74:	3042007f 	andi	v0,v0,0x7f
9d009a78:	00021080 	sll	v0,v0,0x2
9d009a7c:	27a80010 	addiu	t0,sp,16
9d009a80:	01021021 	addu	v0,t0,v0
9d009a84:	8c4c0000 	lw	t4,0(v0)
9d009a88:	358c0001 	ori	t4,t4,0x1
9d009a8c:	1000ff83 	b	9d00989c <decfloat+0x6ec>
9d009a90:	ac4c0000 	sw	t4,0(v0)
9d009a94:	15360007 	bne	t1,s6,9d009ab4 <decfloat+0x904>
9d009a98:	25340001 	addiu	s4,t1,1
9d009a9c:	3296007f 	andi	s6,s4,0x7f
9d009aa0:	26c2ffff 	addiu	v0,s6,-1
9d009aa4:	00021080 	sll	v0,v0,0x2
9d009aa8:	27a30010 	addiu	v1,sp,16
9d009aac:	00621021 	addu	v0,v1,v0
9d009ab0:	ac400000 	sw	zero,0(v0)
9d009ab4:	00091080 	sll	v0,t1,0x2
9d009ab8:	27a30010 	addiu	v1,sp,16
9d009abc:	00621021 	addu	v0,v1,v0
9d009ac0:	8c440000 	lw	a0,0(v0)
9d009ac4:	afa90210 	sw	t1,528(sp)
9d009ac8:	0f405073 	jal	9d0141cc <__floatunsidf>
9d009acc:	3294007f 	andi	s4,s4,0x7f
9d009ad0:	00402025 	move	a0,v0
9d009ad4:	00602825 	move	a1,v1
9d009ad8:	00003025 	move	a2,zero
9d009adc:	0f40382f 	jal	9d00e0bc <__adddf3>
9d009ae0:	00003825 	move	a3,zero
9d009ae4:	00402025 	move	a0,v0
9d009ae8:	00602825 	move	a1,v1
9d009aec:	16d40008 	bne	s6,s4,9d009b10 <decfloat+0x960>
9d009af0:	8fa90210 	lw	t1,528(sp)
9d009af4:	26c80001 	addiu	t0,s6,1
9d009af8:	3116007f 	andi	s6,t0,0x7f
9d009afc:	26c3ffff 	addiu	v1,s6,-1
9d009b00:	00031880 	sll	v1,v1,0x2
9d009b04:	27a20010 	addiu	v0,sp,16
9d009b08:	00431821 	addu	v1,v0,v1
9d009b0c:	ac600000 	sw	zero,0(v1)
9d009b10:	3c029d00 	lui	v0,0x9d00
9d009b14:	8c467500 	lw	a2,29952(v0)
9d009b18:	8c477504 	lw	a3,29956(v0)
9d009b1c:	afa90210 	sw	t1,528(sp)
9d009b20:	0f403d0b 	jal	9d00f42c <__muldf3>
9d009b24:	0014a080 	sll	s4,s4,0x2
9d009b28:	00408025 	move	s0,v0
9d009b2c:	27a20010 	addiu	v0,sp,16
9d009b30:	0054a021 	addu	s4,v0,s4
9d009b34:	8e840000 	lw	a0,0(s4)
9d009b38:	0f405073 	jal	9d0141cc <__floatunsidf>
9d009b3c:	00608825 	move	s1,v1
9d009b40:	00402025 	move	a0,v0
9d009b44:	02003025 	move	a2,s0
9d009b48:	02203825 	move	a3,s1
9d009b4c:	0f40382f 	jal	9d00e0bc <__adddf3>
9d009b50:	00602825 	move	a1,v1
9d009b54:	00403025 	move	a2,v0
9d009b58:	00603825 	move	a3,v1
9d009b5c:	02402025 	move	a0,s2
9d009b60:	0f403d0b 	jal	9d00f42c <__muldf3>
9d009b64:	02602825 	move	a1,s3
9d009b68:	0060a825 	move	s5,v1
9d009b6c:	8fa3025c 	lw	v1,604(sp)
9d009b70:	0040a025 	move	s4,v0
9d009b74:	26e20035 	addiu	v0,s7,53
9d009b78:	00431023 	subu	v0,v0,v1
9d009b7c:	8fa30258 	lw	v1,600(sp)
9d009b80:	afa20214 	sw	v0,532(sp)
9d009b84:	0043102a 	slt	v0,v0,v1
9d009b88:	104000b3 	beqz	v0,9d009e58 <decfloat+0xca8>
9d009b8c:	8fa90210 	lw	t1,528(sp)
9d009b90:	8fa20214 	lw	v0,532(sp)
9d009b94:	044200b3 	bltzl	v0,9d009e64 <decfloat+0xcb4>
9d009b98:	24020001 	li	v0,1
9d009b9c:	0040f025 	move	s8,v0
9d009ba0:	24020001 	li	v0,1
9d009ba4:	afa20210 	sw	v0,528(sp)
9d009ba8:	2bc20035 	slti	v0,s8,53
9d009bac:	afa00218 	sw	zero,536(sp)
9d009bb0:	afa0021c 	sw	zero,540(sp)
9d009bb4:	00008025 	move	s0,zero
9d009bb8:	1040002a 	beqz	v0,9d009c64 <decfloat+0xab4>
9d009bbc:	00008825 	move	s1,zero
9d009bc0:	3c029d00 	lui	v0,0x9d00
9d009bc4:	8c507508 	lw	s0,29960(v0)
9d009bc8:	8c51750c 	lw	s1,29964(v0)
9d009bcc:	24060069 	li	a2,105
9d009bd0:	02002025 	move	a0,s0
9d009bd4:	02202825 	move	a1,s1
9d009bd8:	00de3023 	subu	a2,a2,s8
9d009bdc:	0f404858 	jal	9d012160 <scalbn>
9d009be0:	afa90220 	sw	t1,544(sp)
9d009be4:	00402025 	move	a0,v0
9d009be8:	02a03825 	move	a3,s5
9d009bec:	02803025 	move	a2,s4
9d009bf0:	0f40519f 	jal	9d01467c <copysignl>
9d009bf4:	00602825 	move	a1,v1
9d009bf8:	24060035 	li	a2,53
9d009bfc:	02002025 	move	a0,s0
9d009c00:	02202825 	move	a1,s1
9d009c04:	00de3023 	subu	a2,a2,s8
9d009c08:	afa20218 	sw	v0,536(sp)
9d009c0c:	0f404858 	jal	9d012160 <scalbn>
9d009c10:	afa3021c 	sw	v1,540(sp)
9d009c14:	00403025 	move	a2,v0
9d009c18:	02802025 	move	a0,s4
9d009c1c:	02a02825 	move	a1,s5
9d009c20:	0f403f34 	jal	9d00fcd0 <dpfmod>
9d009c24:	00603825 	move	a3,v1
9d009c28:	00403025 	move	a2,v0
9d009c2c:	02802025 	move	a0,s4
9d009c30:	02a02825 	move	a1,s5
9d009c34:	00603825 	move	a3,v1
9d009c38:	00408025 	move	s0,v0
9d009c3c:	0f40382d 	jal	9d00e0b4 <__subdf3>
9d009c40:	00608825 	move	s1,v1
9d009c44:	8fa40218 	lw	a0,536(sp)
9d009c48:	8fa5021c 	lw	a1,540(sp)
9d009c4c:	00403025 	move	a2,v0
9d009c50:	0f40382f 	jal	9d00e0bc <__adddf3>
9d009c54:	00603825 	move	a3,v1
9d009c58:	8fa90220 	lw	t1,544(sp)
9d009c5c:	0040a025 	move	s4,v0
9d009c60:	0060a825 	move	s5,v1
9d009c64:	25220002 	addiu	v0,t1,2
9d009c68:	3042007f 	andi	v0,v0,0x7f
9d009c6c:	10560034 	beq	v0,s6,9d009d40 <decfloat+0xb90>
9d009c70:	27a30010 	addiu	v1,sp,16
9d009c74:	00021080 	sll	v0,v0,0x2
9d009c78:	00621021 	addu	v0,v1,v0
9d009c7c:	8c430000 	lw	v1,0(v0)
9d009c80:	3c021dcd 	lui	v0,0x1dcd
9d009c84:	24426500 	addiu	v0,v0,25856
9d009c88:	0062202b 	sltu	a0,v1,v0
9d009c8c:	10800078 	beqz	a0,9d009e70 <decfloat+0xcc0>
9d009c90:	00000000 	nop
9d009c94:	14600004 	bnez	v1,9d009ca8 <decfloat+0xaf8>
9d009c98:	25290003 	addiu	t1,t1,3
9d009c9c:	3129007f 	andi	t1,t1,0x7f
9d009ca0:	1136000f 	beq	t1,s6,9d009ce0 <decfloat+0xb30>
9d009ca4:	24020035 	li	v0,53
9d009ca8:	3c029d00 	lui	v0,0x9d00
9d009cac:	8c467510 	lw	a2,29968(v0)
9d009cb0:	8c477514 	lw	a3,29972(v0)
9d009cb4:	02402025 	move	a0,s2
9d009cb8:	0f403d0b 	jal	9d00f42c <__muldf3>
9d009cbc:	02602825 	move	a1,s3
9d009cc0:	00403025 	move	a2,v0
9d009cc4:	02002025 	move	a0,s0
9d009cc8:	02202825 	move	a1,s1
9d009ccc:	0f40382f 	jal	9d00e0bc <__adddf3>
9d009cd0:	00603825 	move	a3,v1
9d009cd4:	00408025 	move	s0,v0
9d009cd8:	00608825 	move	s1,v1
9d009cdc:	24020035 	li	v0,53
9d009ce0:	005e1023 	subu	v0,v0,s8
9d009ce4:	28420002 	slti	v0,v0,2
9d009ce8:	14400015 	bnez	v0,9d009d40 <decfloat+0xb90>
9d009cec:	3c029d00 	lui	v0,0x9d00
9d009cf0:	8c527508 	lw	s2,29960(v0)
9d009cf4:	8c53750c 	lw	s3,29964(v0)
9d009cf8:	02002025 	move	a0,s0
9d009cfc:	02403025 	move	a2,s2
9d009d00:	02603825 	move	a3,s3
9d009d04:	0f403f34 	jal	9d00fcd0 <dpfmod>
9d009d08:	02202825 	move	a1,s1
9d009d0c:	00402025 	move	a0,v0
9d009d10:	00003025 	move	a2,zero
9d009d14:	00003825 	move	a3,zero
9d009d18:	0f40462a 	jal	9d0118a8 <__eqdf2>
9d009d1c:	00602825 	move	a1,v1
9d009d20:	14400007 	bnez	v0,9d009d40 <decfloat+0xb90>
9d009d24:	02002025 	move	a0,s0
9d009d28:	02202825 	move	a1,s1
9d009d2c:	02403025 	move	a2,s2
9d009d30:	0f40382f 	jal	9d00e0bc <__adddf3>
9d009d34:	02603825 	move	a3,s3
9d009d38:	00408025 	move	s0,v0
9d009d3c:	00608825 	move	s1,v1
9d009d40:	8fa2025c 	lw	v0,604(sp)
9d009d44:	8fa30258 	lw	v1,600(sp)
9d009d48:	02003025 	move	a2,s0
9d009d4c:	00021023 	negu	v0,v0
9d009d50:	02203825 	move	a3,s1
9d009d54:	02802025 	move	a0,s4
9d009d58:	02a02825 	move	a1,s5
9d009d5c:	0f40382f 	jal	9d00e0bc <__adddf3>
9d009d60:	0043b023 	subu	s6,v0,v1
9d009d64:	8fa60218 	lw	a2,536(sp)
9d009d68:	8fa7021c 	lw	a3,540(sp)
9d009d6c:	00402025 	move	a0,v0
9d009d70:	0f40382d 	jal	9d00e0b4 <__subdf3>
9d009d74:	00602825 	move	a1,v1
9d009d78:	00409025 	move	s2,v0
9d009d7c:	26e20035 	addiu	v0,s7,53
9d009d80:	00609825 	move	s3,v1
9d009d84:	7c42f000 	ext	v0,v0,0x0,0x1f
9d009d88:	26c3ffff 	addiu	v1,s6,-1
9d009d8c:	0043102a 	slt	v0,v0,v1
9d009d90:	1440002c 	bnez	v0,9d009e44 <decfloat+0xc94>
9d009d94:	02e03025 	move	a2,s7
9d009d98:	02402025 	move	a0,s2
9d009d9c:	0f40529d 	jal	9d014a74 <fabsl>
9d009da0:	02602825 	move	a1,s3
9d009da4:	3c049d00 	lui	a0,0x9d00
9d009da8:	8c867528 	lw	a2,29992(a0)
9d009dac:	8c87752c 	lw	a3,29996(a0)
9d009db0:	00602825 	move	a1,v1
9d009db4:	0f40462a 	jal	9d0118a8 <__eqdf2>
9d009db8:	00402025 	move	a0,v0
9d009dbc:	0440000f 	bltz	v0,9d009dfc <decfloat+0xc4c>
9d009dc0:	8fa20210 	lw	v0,528(sp)
9d009dc4:	10400004 	beqz	v0,9d009dd8 <decfloat+0xc28>
9d009dc8:	8fa20214 	lw	v0,532(sp)
9d009dcc:	005ef026 	xor	s8,v0,s8
9d009dd0:	001e102b 	sltu	v0,zero,s8
9d009dd4:	afa20210 	sw	v0,528(sp)
9d009dd8:	3c029d00 	lui	v0,0x9d00
9d009ddc:	8c467520 	lw	a2,29984(v0)
9d009de0:	8c477524 	lw	a3,29988(v0)
9d009de4:	02402025 	move	a0,s2
9d009de8:	0f403d0b 	jal	9d00f42c <__muldf3>
9d009dec:	02602825 	move	a1,s3
9d009df0:	00409025 	move	s2,v0
9d009df4:	00609825 	move	s3,v1
9d009df8:	26f70001 	addiu	s7,s7,1
9d009dfc:	26e20034 	addiu	v0,s7,52
9d009e00:	26d60003 	addiu	s6,s6,3
9d009e04:	0056b02a 	slt	s6,v0,s6
9d009e08:	12c0000b 	beqz	s6,9d009e38 <decfloat+0xc88>
9d009e0c:	3c02a000 	lui	v0,0xa000
9d009e10:	8fa20210 	lw	v0,528(sp)
9d009e14:	1040000a 	beqz	v0,9d009e40 <decfloat+0xc90>
9d009e18:	00003025 	move	a2,zero
9d009e1c:	00003825 	move	a3,zero
9d009e20:	02002025 	move	a0,s0
9d009e24:	0f40462a 	jal	9d0118a8 <__eqdf2>
9d009e28:	02202825 	move	a1,s1
9d009e2c:	10400005 	beqz	v0,9d009e44 <decfloat+0xc94>
9d009e30:	02e03025 	move	a2,s7
9d009e34:	3c02a000 	lui	v0,0xa000
9d009e38:	24030022 	li	v1,34
9d009e3c:	ac432404 	sw	v1,9220(v0)
9d009e40:	02e03025 	move	a2,s7
9d009e44:	02402025 	move	a0,s2
9d009e48:	0f4052a4 	jal	9d014a90 <scalbnl>
9d009e4c:	02602825 	move	a1,s3
9d009e50:	10000025 	b	9d009ee8 <decfloat+0xd38>
9d009e54:	8fbf024c 	lw	ra,588(sp)
9d009e58:	8fbe0258 	lw	s8,600(sp)
9d009e5c:	1000ff52 	b	9d009ba8 <decfloat+0x9f8>
9d009e60:	afa00210 	sw	zero,528(sp)
9d009e64:	afa20210 	sw	v0,528(sp)
9d009e68:	1000ff55 	b	9d009bc0 <decfloat+0xa10>
9d009e6c:	0000f025 	move	s8,zero
9d009e70:	10620005 	beq	v1,v0,9d009e88 <decfloat+0xcd8>
9d009e74:	25290003 	addiu	t1,t1,3
9d009e78:	3c029d00 	lui	v0,0x9d00
9d009e7c:	8c467518 	lw	a2,29976(v0)
9d009e80:	1000ff8c 	b	9d009cb4 <decfloat+0xb04>
9d009e84:	8c47751c 	lw	a3,29980(v0)
9d009e88:	3129007f 	andi	t1,t1,0x7f
9d009e8c:	1536fffa 	bne	t1,s6,9d009e78 <decfloat+0xcc8>
9d009e90:	3c029d00 	lui	v0,0x9d00
9d009e94:	8c467520 	lw	a2,29984(v0)
9d009e98:	1000ff86 	b	9d009cb4 <decfloat+0xb04>
9d009e9c:	8c477524 	lw	a3,29988(v0)
9d009ea0:	04400009 	bltz	v0,9d009ec8 <decfloat+0xd18>
9d009ea4:	3c02a000 	lui	v0,0xa000
9d009ea8:	8e22004c 	lw	v0,76(s1)
9d009eac:	10400004 	beqz	v0,9d009ec0 <decfloat+0xd10>
9d009eb0:	00000000 	nop
9d009eb4:	8e22003c 	lw	v0,60(s1)
9d009eb8:	2442ffff 	addiu	v0,v0,-1
9d009ebc:	ae22003c 	sw	v0,60(s1)
9d009ec0:	1660fd07 	bnez	s3,9d0092e0 <decfloat+0x130>
9d009ec4:	3c02a000 	lui	v0,0xa000
9d009ec8:	24030016 	li	v1,22
9d009ecc:	ac432404 	sw	v1,9220(v0)
9d009ed0:	00002825 	move	a1,zero
9d009ed4:	0f40517e 	jal	9d0145f8 <__shlim>
9d009ed8:	02202025 	move	a0,s1
9d009edc:	00001025 	move	v0,zero
9d009ee0:	00001825 	move	v1,zero
9d009ee4:	8fbf024c 	lw	ra,588(sp)
9d009ee8:	8fbe0248 	lw	s8,584(sp)
9d009eec:	8fb70244 	lw	s7,580(sp)
9d009ef0:	8fb60240 	lw	s6,576(sp)
9d009ef4:	8fb5023c 	lw	s5,572(sp)
9d009ef8:	8fb40238 	lw	s4,568(sp)
9d009efc:	8fb30234 	lw	s3,564(sp)
9d009f00:	8fb20230 	lw	s2,560(sp)
9d009f04:	8fb1022c 	lw	s1,556(sp)
9d009f08:	8fb00228 	lw	s0,552(sp)
9d009f0c:	03e00008 	jr	ra
9d009f10:	27bd0250 	addiu	sp,sp,592
9d009f14:	0441ffe4 	bgez	v0,9d009ea8 <decfloat+0xcf8>
9d009f18:	8fa40260 	lw	a0,608(sp)
9d009f1c:	1000fcf2 	b	9d0092e8 <decfloat+0x138>
9d009f20:	8fb10010 	lw	s1,16(sp)

Disassembly of section .text.__floatscan:

9d009f24 <__floatscan>:
9d009f24:	2ca70003 	sltiu	a3,a1,3
9d009f28:	00001025 	move	v0,zero
9d009f2c:	10e002f8 	beqz	a3,9d00ab10 <__floatscan+0xbec>
9d009f30:	00001825 	move	v1,zero
9d009f34:	3c029d01 	lui	v0,0x9d01
9d009f38:	244245d4 	addiu	v0,v0,17876
9d009f3c:	00a21021 	addu	v0,a1,v0
9d009f40:	80420000 	lb	v0,0(v0)
9d009f44:	27bdff88 	addiu	sp,sp,-120
9d009f48:	00052840 	sll	a1,a1,0x1
9d009f4c:	afa20024 	sw	v0,36(sp)
9d009f50:	3c029d01 	lui	v0,0x9d01
9d009f54:	244245cc 	addiu	v0,v0,17868
9d009f58:	00a22821 	addu	a1,a1,v0
9d009f5c:	84a20000 	lh	v0,0(a1)
9d009f60:	afb60068 	sw	s6,104(sp)
9d009f64:	afb40060 	sw	s4,96(sp)
9d009f68:	afbf0074 	sw	ra,116(sp)
9d009f6c:	afbe0070 	sw	s8,112(sp)
9d009f70:	afb7006c 	sw	s7,108(sp)
9d009f74:	afb50064 	sw	s5,100(sp)
9d009f78:	afb3005c 	sw	s3,92(sp)
9d009f7c:	afb20058 	sw	s2,88(sp)
9d009f80:	afb10054 	sw	s1,84(sp)
9d009f84:	afb00050 	sw	s0,80(sp)
9d009f88:	00c0b025 	move	s6,a2
9d009f8c:	0080a025 	move	s4,a0
9d009f90:	afa20018 	sw	v0,24(sp)
9d009f94:	8e82003c 	lw	v0,60(s4)
9d009f98:	8e83004c 	lw	v1,76(s4)
9d009f9c:	0043182b 	sltu	v1,v0,v1
9d009fa0:	10600036 	beqz	v1,9d00a07c <__floatscan+0x158>
9d009fa4:	24430001 	addiu	v1,v0,1
9d009fa8:	ae83003c 	sw	v1,60(s4)
9d009fac:	90520000 	lbu	s2,0(v0)
9d009fb0:	24020020 	li	v0,32
9d009fb4:	1242fff7 	beq	s2,v0,9d009f94 <__floatscan+0x70>
9d009fb8:	2642fff7 	addiu	v0,s2,-9
9d009fbc:	2c420005 	sltiu	v0,v0,5
9d009fc0:	1440fff4 	bnez	v0,9d009f94 <__floatscan+0x70>
9d009fc4:	2402002b 	li	v0,43
9d009fc8:	12420005 	beq	s2,v0,9d009fe0 <__floatscan+0xbc>
9d009fcc:	00001025 	move	v0,zero
9d009fd0:	2402002d 	li	v0,45
9d009fd4:	1642000b 	bne	s2,v0,9d00a004 <__floatscan+0xe0>
9d009fd8:	24110001 	li	s1,1
9d009fdc:	24020002 	li	v0,2
9d009fe0:	24110001 	li	s1,1
9d009fe4:	02228823 	subu	s1,s1,v0
9d009fe8:	8e83004c 	lw	v1,76(s4)
9d009fec:	8e82003c 	lw	v0,60(s4)
9d009ff0:	0043182b 	sltu	v1,v0,v1
9d009ff4:	10600025 	beqz	v1,9d00a08c <__floatscan+0x168>
9d009ff8:	24430001 	addiu	v1,v0,1
9d009ffc:	ae83003c 	sw	v1,60(s4)
9d00a000:	90520000 	lbu	s2,0(v0)
9d00a004:	3c139d00 	lui	s3,0x9d00
9d00a008:	00008025 	move	s0,zero
9d00a00c:	267374dc 	addiu	s3,s3,29916
9d00a010:	02701821 	addu	v1,s3,s0
9d00a014:	80630000 	lb	v1,0(v1)
9d00a018:	36420020 	ori	v0,s2,0x20
9d00a01c:	1043001f 	beq	v0,v1,9d00a09c <__floatscan+0x178>
9d00a020:	24020003 	li	v0,3
9d00a024:	12020005 	beq	s0,v0,9d00a03c <__floatscan+0x118>
9d00a028:	2e020004 	sltiu	v0,s0,4
9d00a02c:	1440003f 	bnez	v0,9d00a12c <__floatscan+0x208>
9d00a030:	00000000 	nop
9d00a034:	52c000ef 	beqzl	s6,9d00a3f4 <__floatscan+0x4d0>
9d00a038:	8e82004c 	lw	v0,76(s4)
9d00a03c:	8e83004c 	lw	v1,76(s4)
9d00a040:	10600004 	beqz	v1,9d00a054 <__floatscan+0x130>
9d00a044:	00000000 	nop
9d00a048:	8e82003c 	lw	v0,60(s4)
9d00a04c:	2442ffff 	addiu	v0,v0,-1
9d00a050:	ae82003c 	sw	v0,60(s4)
9d00a054:	12c0001f 	beqz	s6,9d00a0d4 <__floatscan+0x1b0>
9d00a058:	24040003 	li	a0,3
9d00a05c:	1204001e 	beq	s0,a0,9d00a0d8 <__floatscan+0x1b4>
9d00a060:	2402ffff 	li	v0,-1
9d00a064:	1060fffd 	beqz	v1,9d00a05c <__floatscan+0x138>
9d00a068:	2610ffff 	addiu	s0,s0,-1
9d00a06c:	8e82003c 	lw	v0,60(s4)
9d00a070:	2442ffff 	addiu	v0,v0,-1
9d00a074:	1000fff9 	b	9d00a05c <__floatscan+0x138>
9d00a078:	ae82003c 	sw	v0,60(s4)
9d00a07c:	0f404a27 	jal	9d01289c <__shgetc>
9d00a080:	02802025 	move	a0,s4
9d00a084:	1000ffca 	b	9d009fb0 <__floatscan+0x8c>
9d00a088:	00409025 	move	s2,v0
9d00a08c:	0f404a27 	jal	9d01289c <__shgetc>
9d00a090:	02802025 	move	a0,s4
9d00a094:	1000ffdb 	b	9d00a004 <__floatscan+0xe0>
9d00a098:	00409025 	move	s2,v0
9d00a09c:	24020007 	li	v0,7
9d00a0a0:	52020009 	beql	s0,v0,9d00a0c8 <__floatscan+0x1a4>
9d00a0a4:	26100001 	addiu	s0,s0,1
9d00a0a8:	8e82003c 	lw	v0,60(s4)
9d00a0ac:	8e83004c 	lw	v1,76(s4)
9d00a0b0:	0043182b 	sltu	v1,v0,v1
9d00a0b4:	10600019 	beqz	v1,9d00a11c <__floatscan+0x1f8>
9d00a0b8:	24430001 	addiu	v1,v0,1
9d00a0bc:	ae83003c 	sw	v1,60(s4)
9d00a0c0:	90520000 	lbu	s2,0(v0)
9d00a0c4:	26100001 	addiu	s0,s0,1
9d00a0c8:	24020008 	li	v0,8
9d00a0cc:	1602ffd1 	bne	s0,v0,9d00a014 <__floatscan+0xf0>
9d00a0d0:	02701821 	addu	v1,s3,s0
9d00a0d4:	2402ffff 	li	v0,-1
9d00a0d8:	12220282 	beq	s1,v0,9d00aae4 <__floatscan+0xbc0>
9d00a0dc:	3c029d00 	lui	v0,0x9d00
9d00a0e0:	3c029d00 	lui	v0,0x9d00
9d00a0e4:	8c437544 	lw	v1,30020(v0)
9d00a0e8:	8c427540 	lw	v0,30016(v0)
9d00a0ec:	8fbf0074 	lw	ra,116(sp)
9d00a0f0:	8fbe0070 	lw	s8,112(sp)
9d00a0f4:	8fb7006c 	lw	s7,108(sp)
9d00a0f8:	8fb60068 	lw	s6,104(sp)
9d00a0fc:	8fb50064 	lw	s5,100(sp)
9d00a100:	8fb40060 	lw	s4,96(sp)
9d00a104:	8fb3005c 	lw	s3,92(sp)
9d00a108:	8fb20058 	lw	s2,88(sp)
9d00a10c:	8fb10054 	lw	s1,84(sp)
9d00a110:	8fb00050 	lw	s0,80(sp)
9d00a114:	03e00008 	jr	ra
9d00a118:	27bd0078 	addiu	sp,sp,120
9d00a11c:	0f404a27 	jal	9d01289c <__shgetc>
9d00a120:	02802025 	move	a0,s4
9d00a124:	1000ffe7 	b	9d00a0c4 <__floatscan+0x1a0>
9d00a128:	00409025 	move	s2,v0
9d00a12c:	160000b0 	bnez	s0,9d00a3f0 <__floatscan+0x4cc>
9d00a130:	3c139d00 	lui	s3,0x9d00
9d00a134:	267374e8 	addiu	s3,s3,29928
9d00a138:	02701821 	addu	v1,s3,s0
9d00a13c:	80630000 	lb	v1,0(v1)
9d00a140:	36420020 	ori	v0,s2,0x20
9d00a144:	1043004b 	beq	v0,v1,9d00a274 <__floatscan+0x350>
9d00a148:	24020002 	li	v0,2
9d00a14c:	160000a8 	bnez	s0,9d00a3f0 <__floatscan+0x4cc>
9d00a150:	8fa20024 	lw	v0,36(sp)
9d00a154:	afa20020 	sw	v0,32(sp)
9d00a158:	24020030 	li	v0,48
9d00a15c:	16420259 	bne	s2,v0,9d00aac4 <__floatscan+0xba0>
9d00a160:	8fa70018 	lw	a3,24(sp)
9d00a164:	8e82003c 	lw	v0,60(s4)
9d00a168:	8e83004c 	lw	v1,76(s4)
9d00a16c:	0043182b 	sltu	v1,v0,v1
9d00a170:	106000a6 	beqz	v1,9d00a40c <__floatscan+0x4e8>
9d00a174:	00000000 	nop
9d00a178:	24430001 	addiu	v1,v0,1
9d00a17c:	ae83003c 	sw	v1,60(s4)
9d00a180:	90420000 	lbu	v0,0(v0)
9d00a184:	34420020 	ori	v0,v0,0x20
9d00a188:	24040078 	li	a0,120
9d00a18c:	14440247 	bne	v0,a0,9d00aaac <__floatscan+0xb88>
9d00a190:	8e83004c 	lw	v1,76(s4)
9d00a194:	8e82003c 	lw	v0,60(s4)
9d00a198:	0043182b 	sltu	v1,v0,v1
9d00a19c:	1060009f 	beqz	v1,9d00a41c <__floatscan+0x4f8>
9d00a1a0:	00000000 	nop
9d00a1a4:	24430001 	addiu	v1,v0,1
9d00a1a8:	ae83003c 	sw	v1,60(s4)
9d00a1ac:	90420000 	lbu	v0,0(v0)
9d00a1b0:	00001825 	move	v1,zero
9d00a1b4:	24040030 	li	a0,48
9d00a1b8:	1044009c 	beq	v0,a0,9d00a42c <__floatscan+0x508>
9d00a1bc:	2404002e 	li	a0,46
9d00a1c0:	104400a8 	beq	v0,a0,9d00a464 <__floatscan+0x540>
9d00a1c4:	0000b825 	move	s7,zero
9d00a1c8:	0000f025 	move	s8,zero
9d00a1cc:	00006825 	move	t5,zero
9d00a1d0:	3c049d00 	lui	a0,0x9d00
9d00a1d4:	8c867508 	lw	a2,29960(a0)
9d00a1d8:	8c87750c 	lw	a3,29964(a0)
9d00a1dc:	0000a825 	move	s5,zero
9d00a1e0:	00005825 	move	t3,zero
9d00a1e4:	afa00030 	sw	zero,48(sp)
9d00a1e8:	afa60028 	sw	a2,40(sp)
9d00a1ec:	afa7002c 	sw	a3,44(sp)
9d00a1f0:	00009025 	move	s2,zero
9d00a1f4:	00009825 	move	s3,zero
9d00a1f8:	afa40034 	sw	a0,52(sp)
9d00a1fc:	244effd0 	addiu	t6,v0,-48
9d00a200:	2dc4000a 	sltiu	a0,t6,10
9d00a204:	148000bd 	bnez	a0,9d00a4fc <__floatscan+0x5d8>
9d00a208:	34440020 	ori	a0,v0,0x20
9d00a20c:	2484ff9f 	addiu	a0,a0,-97
9d00a210:	2c840006 	sltiu	a0,a0,6
9d00a214:	148000b9 	bnez	a0,9d00a4fc <__floatscan+0x5d8>
9d00a218:	2404002e 	li	a0,46
9d00a21c:	104400ba 	beq	v0,a0,9d00a508 <__floatscan+0x5e4>
9d00a220:	00000000 	nop
9d00a224:	54600123 	bnezl	v1,9d00a6b4 <__floatscan+0x790>
9d00a228:	02adb80a 	movz	s7,s5,t5
9d00a22c:	8e82004c 	lw	v0,76(s4)
9d00a230:	1040022f 	beqz	v0,9d00aaf0 <__floatscan+0xbcc>
9d00a234:	00000000 	nop
9d00a238:	12c00117 	beqz	s6,9d00a698 <__floatscan+0x774>
9d00a23c:	8e82003c 	lw	v0,60(s4)
9d00a240:	55a00002 	bnezl	t5,9d00a24c <__floatscan+0x328>
9d00a244:	2442fffd 	addiu	v0,v0,-3
9d00a248:	2442fffe 	addiu	v0,v0,-2
9d00a24c:	ae82003c 	sw	v0,60(s4)
9d00a250:	0f404e18 	jal	9d013860 <__floatsidf>
9d00a254:	02202025 	move	a0,s1
9d00a258:	00003025 	move	a2,zero
9d00a25c:	00003825 	move	a3,zero
9d00a260:	00402025 	move	a0,v0
9d00a264:	0f403d0b 	jal	9d00f42c <__muldf3>
9d00a268:	00602825 	move	a1,v1
9d00a26c:	1000ffa0 	b	9d00a0f0 <__floatscan+0x1cc>
9d00a270:	8fbf0074 	lw	ra,116(sp)
9d00a274:	52020009 	beql	s0,v0,9d00a29c <__floatscan+0x378>
9d00a278:	26100001 	addiu	s0,s0,1
9d00a27c:	8e82003c 	lw	v0,60(s4)
9d00a280:	8e83004c 	lw	v1,76(s4)
9d00a284:	0043182b 	sltu	v1,v0,v1
9d00a288:	10600010 	beqz	v1,9d00a2cc <__floatscan+0x3a8>
9d00a28c:	24430001 	addiu	v1,v0,1
9d00a290:	ae83003c 	sw	v1,60(s4)
9d00a294:	90520000 	lbu	s2,0(v0)
9d00a298:	26100001 	addiu	s0,s0,1
9d00a29c:	24020003 	li	v0,3
9d00a2a0:	1602ffa6 	bne	s0,v0,9d00a13c <__floatscan+0x218>
9d00a2a4:	02701821 	addu	v1,s3,s0
9d00a2a8:	8e83003c 	lw	v1,60(s4)
9d00a2ac:	8e82004c 	lw	v0,76(s4)
9d00a2b0:	0062102b 	sltu	v0,v1,v0
9d00a2b4:	54400009 	bnezl	v0,9d00a2dc <__floatscan+0x3b8>
9d00a2b8:	24620001 	addiu	v0,v1,1
9d00a2bc:	0f404a27 	jal	9d01289c <__shgetc>
9d00a2c0:	02802025 	move	a0,s4
9d00a2c4:	10000008 	b	9d00a2e8 <__floatscan+0x3c4>
9d00a2c8:	38420028 	xori	v0,v0,0x28
9d00a2cc:	0f404a27 	jal	9d01289c <__shgetc>
9d00a2d0:	02802025 	move	a0,s4
9d00a2d4:	1000fff0 	b	9d00a298 <__floatscan+0x374>
9d00a2d8:	00409025 	move	s2,v0
9d00a2dc:	ae82003c 	sw	v0,60(s4)
9d00a2e0:	90620000 	lbu	v0,0(v1)
9d00a2e4:	38420028 	xori	v0,v0,0x28
9d00a2e8:	0002102b 	sltu	v0,zero,v0
9d00a2ec:	1040000b 	beqz	v0,9d00a31c <__floatscan+0x3f8>
9d00a2f0:	24100001 	li	s0,1
9d00a2f4:	8e82004c 	lw	v0,76(s4)
9d00a2f8:	54400005 	bnezl	v0,9d00a310 <__floatscan+0x3ec>
9d00a2fc:	8e82003c 	lw	v0,60(s4)
9d00a300:	3c029d00 	lui	v0,0x9d00
9d00a304:	8c43753c 	lw	v1,30012(v0)
9d00a308:	1000ff78 	b	9d00a0ec <__floatscan+0x1c8>
9d00a30c:	8c427538 	lw	v0,30008(v0)
9d00a310:	2442ffff 	addiu	v0,v0,-1
9d00a314:	1000fffa 	b	9d00a300 <__floatscan+0x3dc>
9d00a318:	ae82003c 	sw	v0,60(s4)
9d00a31c:	8e82003c 	lw	v0,60(s4)
9d00a320:	8e83004c 	lw	v1,76(s4)
9d00a324:	0043182b 	sltu	v1,v0,v1
9d00a328:	10600011 	beqz	v1,9d00a370 <__floatscan+0x44c>
9d00a32c:	00000000 	nop
9d00a330:	24430001 	addiu	v1,v0,1
9d00a334:	ae83003c 	sw	v1,60(s4)
9d00a338:	90420000 	lbu	v0,0(v0)
9d00a33c:	2443ffd0 	addiu	v1,v0,-48
9d00a340:	2c63000a 	sltiu	v1,v1,10
9d00a344:	14600008 	bnez	v1,9d00a368 <__floatscan+0x444>
9d00a348:	00401825 	move	v1,v0
9d00a34c:	7c032944 	ins	v1,zero,0x5,0x1
9d00a350:	2463ffbf 	addiu	v1,v1,-65
9d00a354:	2c63001a 	sltiu	v1,v1,26
9d00a358:	14600003 	bnez	v1,9d00a368 <__floatscan+0x444>
9d00a35c:	2403005f 	li	v1,95
9d00a360:	14430007 	bne	v0,v1,9d00a380 <__floatscan+0x45c>
9d00a364:	24030029 	li	v1,41
9d00a368:	1000ffec 	b	9d00a31c <__floatscan+0x3f8>
9d00a36c:	26100001 	addiu	s0,s0,1
9d00a370:	0f404a27 	jal	9d01289c <__shgetc>
9d00a374:	02802025 	move	a0,s4
9d00a378:	1000fff1 	b	9d00a340 <__floatscan+0x41c>
9d00a37c:	2443ffd0 	addiu	v1,v0,-48
9d00a380:	1043ffe0 	beq	v0,v1,9d00a304 <__floatscan+0x3e0>
9d00a384:	3c029d00 	lui	v0,0x9d00
9d00a388:	8e83004c 	lw	v1,76(s4)
9d00a38c:	10600004 	beqz	v1,9d00a3a0 <__floatscan+0x47c>
9d00a390:	00000000 	nop
9d00a394:	8e82003c 	lw	v0,60(s4)
9d00a398:	2442ffff 	addiu	v0,v0,-1
9d00a39c:	ae82003c 	sw	v0,60(s4)
9d00a3a0:	16c0000f 	bnez	s6,9d00a3e0 <__floatscan+0x4bc>
9d00a3a4:	00000000 	nop
9d00a3a8:	3c02a000 	lui	v0,0xa000
9d00a3ac:	24030016 	li	v1,22
9d00a3b0:	ac432404 	sw	v1,9220(v0)
9d00a3b4:	00002825 	move	a1,zero
9d00a3b8:	0f40517e 	jal	9d0145f8 <__shlim>
9d00a3bc:	02802025 	move	a0,s4
9d00a3c0:	00001025 	move	v0,zero
9d00a3c4:	1000ff49 	b	9d00a0ec <__floatscan+0x1c8>
9d00a3c8:	00001825 	move	v1,zero
9d00a3cc:	10600004 	beqz	v1,9d00a3e0 <__floatscan+0x4bc>
9d00a3d0:	2610ffff 	addiu	s0,s0,-1
9d00a3d4:	8e82003c 	lw	v0,60(s4)
9d00a3d8:	2442ffff 	addiu	v0,v0,-1
9d00a3dc:	ae82003c 	sw	v0,60(s4)
9d00a3e0:	1600fffa 	bnez	s0,9d00a3cc <__floatscan+0x4a8>
9d00a3e4:	3c029d00 	lui	v0,0x9d00
9d00a3e8:	1000ffc7 	b	9d00a308 <__floatscan+0x3e4>
9d00a3ec:	8c43753c 	lw	v1,30012(v0)
9d00a3f0:	8e82004c 	lw	v0,76(s4)
9d00a3f4:	5040ffed 	beqzl	v0,9d00a3ac <__floatscan+0x488>
9d00a3f8:	3c02a000 	lui	v0,0xa000
9d00a3fc:	8e82003c 	lw	v0,60(s4)
9d00a400:	2442ffff 	addiu	v0,v0,-1
9d00a404:	1000ffe8 	b	9d00a3a8 <__floatscan+0x484>
9d00a408:	ae82003c 	sw	v0,60(s4)
9d00a40c:	0f404a27 	jal	9d01289c <__shgetc>
9d00a410:	02802025 	move	a0,s4
9d00a414:	1000ff5c 	b	9d00a188 <__floatscan+0x264>
9d00a418:	34420020 	ori	v0,v0,0x20
9d00a41c:	0f404a27 	jal	9d01289c <__shgetc>
9d00a420:	02802025 	move	a0,s4
9d00a424:	1000ff63 	b	9d00a1b4 <__floatscan+0x290>
9d00a428:	00001825 	move	v1,zero
9d00a42c:	8e82003c 	lw	v0,60(s4)
9d00a430:	8e83004c 	lw	v1,76(s4)
9d00a434:	0043182b 	sltu	v1,v0,v1
9d00a438:	10600006 	beqz	v1,9d00a454 <__floatscan+0x530>
9d00a43c:	00000000 	nop
9d00a440:	24430001 	addiu	v1,v0,1
9d00a444:	ae83003c 	sw	v1,60(s4)
9d00a448:	90420000 	lbu	v0,0(v0)
9d00a44c:	1000ff59 	b	9d00a1b4 <__floatscan+0x290>
9d00a450:	24030001 	li	v1,1
9d00a454:	0f404a27 	jal	9d01289c <__shgetc>
9d00a458:	02802025 	move	a0,s4
9d00a45c:	1000ff55 	b	9d00a1b4 <__floatscan+0x290>
9d00a460:	24030001 	li	v1,1
9d00a464:	8e82003c 	lw	v0,60(s4)
9d00a468:	8e84004c 	lw	a0,76(s4)
9d00a46c:	0044202b 	sltu	a0,v0,a0
9d00a470:	1080000a 	beqz	a0,9d00a49c <__floatscan+0x578>
9d00a474:	24440001 	addiu	a0,v0,1
9d00a478:	ae84003c 	sw	a0,60(s4)
9d00a47c:	90420000 	lbu	v0,0(v0)
9d00a480:	0000b825 	move	s7,zero
9d00a484:	0000f025 	move	s8,zero
9d00a488:	24040030 	li	a0,48
9d00a48c:	10440008 	beq	v0,a0,9d00a4b0 <__floatscan+0x58c>
9d00a490:	240d0001 	li	t5,1
9d00a494:	1000ff4f 	b	9d00a1d4 <__floatscan+0x2b0>
9d00a498:	3c049d00 	lui	a0,0x9d00
9d00a49c:	02802025 	move	a0,s4
9d00a4a0:	0f404a27 	jal	9d01289c <__shgetc>
9d00a4a4:	afa30028 	sw	v1,40(sp)
9d00a4a8:	1000fff5 	b	9d00a480 <__floatscan+0x55c>
9d00a4ac:	8fa30028 	lw	v1,40(sp)
9d00a4b0:	8e82003c 	lw	v0,60(s4)
9d00a4b4:	8e83004c 	lw	v1,76(s4)
9d00a4b8:	0043182b 	sltu	v1,v0,v1
9d00a4bc:	1060000b 	beqz	v1,9d00a4ec <__floatscan+0x5c8>
9d00a4c0:	00000000 	nop
9d00a4c4:	24430001 	addiu	v1,v0,1
9d00a4c8:	ae83003c 	sw	v1,60(s4)
9d00a4cc:	90420000 	lbu	v0,0(v0)
9d00a4d0:	26e3ffff 	addiu	v1,s7,-1
9d00a4d4:	0077202b 	sltu	a0,v1,s7
9d00a4d8:	27ccffff 	addiu	t4,s8,-1
9d00a4dc:	0060b825 	move	s7,v1
9d00a4e0:	008cf021 	addu	s8,a0,t4
9d00a4e4:	1000ffe8 	b	9d00a488 <__floatscan+0x564>
9d00a4e8:	24030001 	li	v1,1
9d00a4ec:	0f404a27 	jal	9d01289c <__shgetc>
9d00a4f0:	02802025 	move	a0,s4
9d00a4f4:	1000fff7 	b	9d00a4d4 <__floatscan+0x5b0>
9d00a4f8:	26e3ffff 	addiu	v1,s7,-1
9d00a4fc:	2404002e 	li	a0,46
9d00a500:	54440011 	bnel	v0,a0,9d00a548 <__floatscan+0x624>
9d00a504:	2843003a 	slti	v1,v0,58
9d00a508:	15a0017d 	bnez	t5,9d00ab00 <__floatscan+0xbdc>
9d00a50c:	02a02825 	move	a1,s5
9d00a510:	01605025 	move	t2,t3
9d00a514:	240d0001 	li	t5,1
9d00a518:	8e82003c 	lw	v0,60(s4)
9d00a51c:	8e84004c 	lw	a0,76(s4)
9d00a520:	0044202b 	sltu	a0,v0,a0
9d00a524:	1080004f 	beqz	a0,9d00a664 <__floatscan+0x740>
9d00a528:	24440001 	addiu	a0,v0,1
9d00a52c:	ae84003c 	sw	a0,60(s4)
9d00a530:	90420000 	lbu	v0,0(v0)
9d00a534:	02a0b825 	move	s7,s5
9d00a538:	0160f025 	move	s8,t3
9d00a53c:	00a0a825 	move	s5,a1
9d00a540:	1000ff2e 	b	9d00a1fc <__floatscan+0x2d8>
9d00a544:	01405825 	move	t3,t2
9d00a548:	14600002 	bnez	v1,9d00a554 <__floatscan+0x630>
9d00a54c:	34420020 	ori	v0,v0,0x20
9d00a550:	244effa9 	addiu	t6,v0,-87
9d00a554:	1d60002c 	bgtz	t3,9d00a608 <__floatscan+0x6e4>
9d00a558:	00000000 	nop
9d00a55c:	15600003 	bnez	t3,9d00a56c <__floatscan+0x648>
9d00a560:	2ea20008 	sltiu	v0,s5,8
9d00a564:	1040000a 	beqz	v0,9d00a590 <__floatscan+0x66c>
9d00a568:	2ea2000e 	sltiu	v0,s5,14
9d00a56c:	00108100 	sll	s0,s0,0x4
9d00a570:	01d08021 	addu	s0,t6,s0
9d00a574:	26a50001 	addiu	a1,s5,1
9d00a578:	00b5502b 	sltu	t2,a1,s5
9d00a57c:	014b5021 	addu	t2,t2,t3
9d00a580:	02e0a825 	move	s5,s7
9d00a584:	03c05825 	move	t3,s8
9d00a588:	1000ffe3 	b	9d00a518 <__floatscan+0x5f4>
9d00a58c:	24030001 	li	v1,1
9d00a590:	1040001d 	beqz	v0,9d00a608 <__floatscan+0x6e4>
9d00a594:	3c029d00 	lui	v0,0x9d00
9d00a598:	8fa5002c 	lw	a1,44(sp)
9d00a59c:	8c467548 	lw	a2,30024(v0)
9d00a5a0:	8c47754c 	lw	a3,30028(v0)
9d00a5a4:	8fa40028 	lw	a0,40(sp)
9d00a5a8:	afab0040 	sw	t3,64(sp)
9d00a5ac:	afad0038 	sw	t5,56(sp)
9d00a5b0:	0f403d0b 	jal	9d00f42c <__muldf3>
9d00a5b4:	afae003c 	sw	t6,60(sp)
9d00a5b8:	8fae003c 	lw	t6,60(sp)
9d00a5bc:	afa20028 	sw	v0,40(sp)
9d00a5c0:	afa3002c 	sw	v1,44(sp)
9d00a5c4:	0f404e18 	jal	9d013860 <__floatsidf>
9d00a5c8:	01c02025 	move	a0,t6
9d00a5cc:	8fa60028 	lw	a2,40(sp)
9d00a5d0:	8fa7002c 	lw	a3,44(sp)
9d00a5d4:	00402025 	move	a0,v0
9d00a5d8:	0f403d0b 	jal	9d00f42c <__muldf3>
9d00a5dc:	00602825 	move	a1,v1
9d00a5e0:	00403025 	move	a2,v0
9d00a5e4:	02402025 	move	a0,s2
9d00a5e8:	02602825 	move	a1,s3
9d00a5ec:	0f40382f 	jal	9d00e0bc <__adddf3>
9d00a5f0:	00603825 	move	a3,v1
9d00a5f4:	00409025 	move	s2,v0
9d00a5f8:	00609825 	move	s3,v1
9d00a5fc:	8fad0038 	lw	t5,56(sp)
9d00a600:	1000ffdc 	b	9d00a574 <__floatscan+0x650>
9d00a604:	8fab0040 	lw	t3,64(sp)
9d00a608:	11c0ffda 	beqz	t6,9d00a574 <__floatscan+0x650>
9d00a60c:	8fa20030 	lw	v0,48(sp)
9d00a610:	1440ffd8 	bnez	v0,9d00a574 <__floatscan+0x650>
9d00a614:	3c029d00 	lui	v0,0x9d00
9d00a618:	8c467520 	lw	a2,29984(v0)
9d00a61c:	8c477524 	lw	a3,29988(v0)
9d00a620:	8fa40028 	lw	a0,40(sp)
9d00a624:	8fa5002c 	lw	a1,44(sp)
9d00a628:	afab003c 	sw	t3,60(sp)
9d00a62c:	0f403d0b 	jal	9d00f42c <__muldf3>
9d00a630:	afad0038 	sw	t5,56(sp)
9d00a634:	00403025 	move	a2,v0
9d00a638:	02402025 	move	a0,s2
9d00a63c:	02602825 	move	a1,s3
9d00a640:	0f40382f 	jal	9d00e0bc <__adddf3>
9d00a644:	00603825 	move	a3,v1
9d00a648:	00409025 	move	s2,v0
9d00a64c:	24020001 	li	v0,1
9d00a650:	00609825 	move	s3,v1
9d00a654:	afa20030 	sw	v0,48(sp)
9d00a658:	8fab003c 	lw	t3,60(sp)
9d00a65c:	1000ffc5 	b	9d00a574 <__floatscan+0x650>
9d00a660:	8fad0038 	lw	t5,56(sp)
9d00a664:	02802025 	move	a0,s4
9d00a668:	afaa0048 	sw	t2,72(sp)
9d00a66c:	afa50044 	sw	a1,68(sp)
9d00a670:	afab0040 	sw	t3,64(sp)
9d00a674:	afa3003c 	sw	v1,60(sp)
9d00a678:	0f404a27 	jal	9d01289c <__shgetc>
9d00a67c:	afad0038 	sw	t5,56(sp)
9d00a680:	8faa0048 	lw	t2,72(sp)
9d00a684:	8fa50044 	lw	a1,68(sp)
9d00a688:	8fab0040 	lw	t3,64(sp)
9d00a68c:	8fa3003c 	lw	v1,60(sp)
9d00a690:	1000ffa8 	b	9d00a534 <__floatscan+0x610>
9d00a694:	8fad0038 	lw	t5,56(sp)
9d00a698:	2442ffff 	addiu	v0,v0,-1
9d00a69c:	ae82003c 	sw	v0,60(s4)
9d00a6a0:	00002825 	move	a1,zero
9d00a6a4:	0f40517e 	jal	9d0145f8 <__shlim>
9d00a6a8:	02802025 	move	a0,s4
9d00a6ac:	1000fee8 	b	9d00a250 <__floatscan+0x32c>
9d00a6b0:	00000000 	nop
9d00a6b4:	016df00a 	movz	s8,t3,t5
9d00a6b8:	5d600006 	bgtzl	t3,9d00a6d4 <__floatscan+0x7b0>
9d00a6bc:	34420020 	ori	v0,v0,0x20
9d00a6c0:	15600014 	bnez	t3,9d00a714 <__floatscan+0x7f0>
9d00a6c4:	2ea30008 	sltiu	v1,s5,8
9d00a6c8:	14600013 	bnez	v1,9d00a718 <__floatscan+0x7f4>
9d00a6cc:	26a30001 	addiu	v1,s5,1
9d00a6d0:	34420020 	ori	v0,v0,0x20
9d00a6d4:	24030070 	li	v1,112
9d00a6d8:	1443003d 	bne	v0,v1,9d00a7d0 <__floatscan+0x8ac>
9d00a6dc:	02c02825 	move	a1,s6
9d00a6e0:	0f403fdd 	jal	9d00ff74 <scanexp>
9d00a6e4:	02802025 	move	a0,s4
9d00a6e8:	14400013 	bnez	v0,9d00a738 <__floatscan+0x814>
9d00a6ec:	3c048000 	lui	a0,0x8000
9d00a6f0:	14640011 	bne	v1,a0,9d00a738 <__floatscan+0x814>
9d00a6f4:	00000000 	nop
9d00a6f8:	12c0ff2f 	beqz	s6,9d00a3b8 <__floatscan+0x494>
9d00a6fc:	00002825 	move	a1,zero
9d00a700:	8e83004c 	lw	v1,76(s4)
9d00a704:	54600009 	bnezl	v1,9d00a72c <__floatscan+0x808>
9d00a708:	8e83003c 	lw	v1,60(s4)
9d00a70c:	10000009 	b	9d00a734 <__floatscan+0x810>
9d00a710:	00001025 	move	v0,zero
9d00a714:	26a30001 	addiu	v1,s5,1
9d00a718:	0075202b 	sltu	a0,v1,s5
9d00a71c:	00108100 	sll	s0,s0,0x4
9d00a720:	0060a825 	move	s5,v1
9d00a724:	1000ffe4 	b	9d00a6b8 <__floatscan+0x794>
9d00a728:	008b5821 	addu	t3,a0,t3
9d00a72c:	2463ffff 	addiu	v1,v1,-1
9d00a730:	ae83003c 	sw	v1,60(s4)
9d00a734:	00001825 	move	v1,zero
9d00a738:	1200fec5 	beqz	s0,9d00a250 <__floatscan+0x32c>
9d00a73c:	26e4fff8 	addiu	a0,s7,-8
9d00a740:	0097482b 	sltu	t1,a0,s7
9d00a744:	27ccffff 	addiu	t4,s8,-1
9d00a748:	012c4821 	addu	t1,t1,t4
9d00a74c:	00042f82 	srl	a1,a0,0x1e
9d00a750:	00094880 	sll	t1,t1,0x2
9d00a754:	00042080 	sll	a0,a0,0x2
9d00a758:	00a94825 	or	t1,a1,t1
9d00a75c:	00821021 	addu	v0,a0,v0
9d00a760:	0044202b 	sltu	a0,v0,a0
9d00a764:	01231821 	addu	v1,t1,v1
9d00a768:	00831821 	addu	v1,a0,v1
9d00a76c:	8fa40018 	lw	a0,24(sp)
9d00a770:	0040a025 	move	s4,v0
9d00a774:	00042023 	negu	a0,a0
9d00a778:	00042fc3 	sra	a1,a0,0x1f
9d00a77c:	00a3302a 	slt	a2,a1,v1
9d00a780:	14c00005 	bnez	a2,9d00a798 <__floatscan+0x874>
9d00a784:	0060a825 	move	s5,v1
9d00a788:	14650018 	bne	v1,a1,9d00a7ec <__floatscan+0x8c8>
9d00a78c:	0082202b 	sltu	a0,a0,v0
9d00a790:	10800017 	beqz	a0,9d00a7f0 <__floatscan+0x8cc>
9d00a794:	8fa40018 	lw	a0,24(sp)
9d00a798:	3c02a000 	lui	v0,0xa000
9d00a79c:	24030022 	li	v1,34
9d00a7a0:	3c109d00 	lui	s0,0x9d00
9d00a7a4:	02202025 	move	a0,s1
9d00a7a8:	0f404e18 	jal	9d013860 <__floatsidf>
9d00a7ac:	ac432404 	sw	v1,9220(v0)
9d00a7b0:	8e0674f0 	lw	a2,29936(s0)
9d00a7b4:	8e0774f4 	lw	a3,29940(s0)
9d00a7b8:	00402025 	move	a0,v0
9d00a7bc:	0f403d0b 	jal	9d00f42c <__muldf3>
9d00a7c0:	00602825 	move	a1,v1
9d00a7c4:	8e0674f0 	lw	a2,29936(s0)
9d00a7c8:	1000fea5 	b	9d00a260 <__floatscan+0x33c>
9d00a7cc:	8e0774f4 	lw	a3,29940(s0)
9d00a7d0:	8e82004c 	lw	v0,76(s4)
9d00a7d4:	5040ffd7 	beqzl	v0,9d00a734 <__floatscan+0x810>
9d00a7d8:	00001025 	move	v0,zero
9d00a7dc:	8e82003c 	lw	v0,60(s4)
9d00a7e0:	2442ffff 	addiu	v0,v0,-1
9d00a7e4:	1000ffc9 	b	9d00a70c <__floatscan+0x7e8>
9d00a7e8:	ae82003c 	sw	v0,60(s4)
9d00a7ec:	8fa40018 	lw	a0,24(sp)
9d00a7f0:	2484ff96 	addiu	a0,a0,-106
9d00a7f4:	00042fc3 	sra	a1,a0,0x1f
9d00a7f8:	0065302a 	slt	a2,v1,a1
9d00a7fc:	54c00005 	bnezl	a2,9d00a814 <__floatscan+0x8f0>
9d00a800:	3c02a000 	lui	v0,0xa000
9d00a804:	14a3009e 	bne	a1,v1,9d00aa80 <__floatscan+0xb5c>
9d00a808:	0044102b 	sltu	v0,v0,a0
9d00a80c:	1040009c 	beqz	v0,9d00aa80 <__floatscan+0xb5c>
9d00a810:	3c02a000 	lui	v0,0xa000
9d00a814:	24030022 	li	v1,34
9d00a818:	3c109d00 	lui	s0,0x9d00
9d00a81c:	02202025 	move	a0,s1
9d00a820:	0f404e18 	jal	9d013860 <__floatsidf>
9d00a824:	ac432404 	sw	v1,9220(v0)
9d00a828:	8e0674f8 	lw	a2,29944(s0)
9d00a82c:	8e0774fc 	lw	a3,29948(s0)
9d00a830:	00402025 	move	a0,v0
9d00a834:	0f403d0b 	jal	9d00f42c <__muldf3>
9d00a838:	00602825 	move	a1,v1
9d00a83c:	8e0674f8 	lw	a2,29944(s0)
9d00a840:	1000fe87 	b	9d00a260 <__floatscan+0x33c>
9d00a844:	8e0774fc 	lw	a3,29948(s0)
9d00a848:	02c03025 	move	a2,s6
9d00a84c:	02e03825 	move	a3,s7
9d00a850:	02402025 	move	a0,s2
9d00a854:	02602825 	move	a1,s3
9d00a858:	0f40462a 	jal	9d0118a8 <__eqdf2>
9d00a85c:	00108040 	sll	s0,s0,0x1
9d00a860:	04400084 	bltz	v0,9d00aa74 <__floatscan+0xb50>
9d00a864:	02402025 	move	a0,s2
9d00a868:	8fa60028 	lw	a2,40(sp)
9d00a86c:	8fa7002c 	lw	a3,44(sp)
9d00a870:	0f40382d 	jal	9d00e0b4 <__subdf3>
9d00a874:	02602825 	move	a1,s3
9d00a878:	26100001 	addiu	s0,s0,1
9d00a87c:	00403025 	move	a2,v0
9d00a880:	00603825 	move	a3,v1
9d00a884:	02402025 	move	a0,s2
9d00a888:	0f40382f 	jal	9d00e0bc <__adddf3>
9d00a88c:	02602825 	move	a1,s3
9d00a890:	00409025 	move	s2,v0
9d00a894:	2682ffff 	addiu	v0,s4,-1
9d00a898:	00609825 	move	s3,v1
9d00a89c:	26b5ffff 	addiu	s5,s5,-1
9d00a8a0:	0054182b 	sltu	v1,v0,s4
9d00a8a4:	0075a821 	addu	s5,v1,s5
9d00a8a8:	0040a025 	move	s4,v0
9d00a8ac:	0601ffe6 	bgez	s0,9d00a848 <__floatscan+0x924>
9d00a8b0:	8fa20024 	lw	v0,36(sp)
9d00a8b4:	8fa40018 	lw	a0,24(sp)
9d00a8b8:	26830020 	addiu	v1,s4,32
9d00a8bc:	00022fc3 	sra	a1,v0,0x1f
9d00a8c0:	0074102b 	sltu	v0,v1,s4
9d00a8c4:	00551021 	addu	v0,v0,s5
9d00a8c8:	0004afc3 	sra	s5,a0,0x1f
9d00a8cc:	00642023 	subu	a0,v1,a0
9d00a8d0:	0055a823 	subu	s5,v0,s5
9d00a8d4:	0064182b 	sltu	v1,v1,a0
9d00a8d8:	02a3a823 	subu	s5,s5,v1
9d00a8dc:	02a5102a 	slt	v0,s5,a1
9d00a8e0:	14400006 	bnez	v0,9d00a8fc <__floatscan+0x9d8>
9d00a8e4:	8fa20018 	lw	v0,24(sp)
9d00a8e8:	14b50008 	bne	a1,s5,9d00a90c <__floatscan+0x9e8>
9d00a8ec:	8fa20024 	lw	v0,36(sp)
9d00a8f0:	0082202b 	sltu	a0,a0,v0
9d00a8f4:	10800005 	beqz	a0,9d00a90c <__floatscan+0x9e8>
9d00a8f8:	8fa20018 	lw	v0,24(sp)
9d00a8fc:	0282b823 	subu	s7,s4,v0
9d00a900:	26e20020 	addiu	v0,s7,32
9d00a904:	04400067 	bltz	v0,9d00aaa4 <__floatscan+0xb80>
9d00a908:	afa20020 	sw	v0,32(sp)
9d00a90c:	8fa20020 	lw	v0,32(sp)
9d00a910:	0000b025 	move	s6,zero
9d00a914:	28420035 	slti	v0,v0,53
9d00a918:	10400022 	beqz	v0,9d00a9a4 <__floatscan+0xa80>
9d00a91c:	0000b825 	move	s7,zero
9d00a920:	8fa20020 	lw	v0,32(sp)
9d00a924:	24060054 	li	a2,84
9d00a928:	00c23023 	subu	a2,a2,v0
9d00a92c:	8fa20034 	lw	v0,52(sp)
9d00a930:	8c45750c 	lw	a1,29964(v0)
9d00a934:	0f404858 	jal	9d012160 <scalbn>
9d00a938:	8c447508 	lw	a0,29960(v0)
9d00a93c:	02202025 	move	a0,s1
9d00a940:	0040b025 	move	s6,v0
9d00a944:	0f404e18 	jal	9d013860 <__floatsidf>
9d00a948:	0060b825 	move	s7,v1
9d00a94c:	00403025 	move	a2,v0
9d00a950:	02c02025 	move	a0,s6
9d00a954:	02e02825 	move	a1,s7
9d00a958:	0f40519f 	jal	9d01467c <copysignl>
9d00a95c:	00603825 	move	a3,v1
9d00a960:	0040b025 	move	s6,v0
9d00a964:	8fa20020 	lw	v0,32(sp)
9d00a968:	285e0020 	slti	s8,v0,32
9d00a96c:	13c0000d 	beqz	s8,9d00a9a4 <__floatscan+0xa80>
9d00a970:	0060b825 	move	s7,v1
9d00a974:	00003025 	move	a2,zero
9d00a978:	00003825 	move	a3,zero
9d00a97c:	02402025 	move	a0,s2
9d00a980:	0f40462a 	jal	9d0118a8 <__eqdf2>
9d00a984:	02602825 	move	a1,s3
9d00a988:	10400006 	beqz	v0,9d00a9a4 <__floatscan+0xa80>
9d00a98c:	32020001 	andi	v0,s0,0x1
9d00a990:	14400004 	bnez	v0,9d00a9a4 <__floatscan+0xa80>
9d00a994:	00000000 	nop
9d00a998:	26100001 	addiu	s0,s0,1
9d00a99c:	00009025 	move	s2,zero
9d00a9a0:	00009825 	move	s3,zero
9d00a9a4:	0f404e18 	jal	9d013860 <__floatsidf>
9d00a9a8:	02202025 	move	a0,s1
9d00a9ac:	00602825 	move	a1,v1
9d00a9b0:	02403025 	move	a2,s2
9d00a9b4:	02603825 	move	a3,s3
9d00a9b8:	00402025 	move	a0,v0
9d00a9bc:	afa20018 	sw	v0,24(sp)
9d00a9c0:	0f403d0b 	jal	9d00f42c <__muldf3>
9d00a9c4:	afa3001c 	sw	v1,28(sp)
9d00a9c8:	02002025 	move	a0,s0
9d00a9cc:	00409025 	move	s2,v0
9d00a9d0:	0f405073 	jal	9d0141cc <__floatunsidf>
9d00a9d4:	00609825 	move	s3,v1
9d00a9d8:	8fa80018 	lw	t0,24(sp)
9d00a9dc:	8fa9001c 	lw	t1,28(sp)
9d00a9e0:	00402025 	move	a0,v0
9d00a9e4:	01003025 	move	a2,t0
9d00a9e8:	01203825 	move	a3,t1
9d00a9ec:	0f403d0b 	jal	9d00f42c <__muldf3>
9d00a9f0:	00602825 	move	a1,v1
9d00a9f4:	00402025 	move	a0,v0
9d00a9f8:	02c03025 	move	a2,s6
9d00a9fc:	02e03825 	move	a3,s7
9d00aa00:	0f40382f 	jal	9d00e0bc <__adddf3>
9d00aa04:	00602825 	move	a1,v1
9d00aa08:	00402025 	move	a0,v0
9d00aa0c:	02403025 	move	a2,s2
9d00aa10:	02603825 	move	a3,s3
9d00aa14:	0f40382f 	jal	9d00e0bc <__adddf3>
9d00aa18:	00602825 	move	a1,v1
9d00aa1c:	00402025 	move	a0,v0
9d00aa20:	02c03025 	move	a2,s6
9d00aa24:	02e03825 	move	a3,s7
9d00aa28:	0f40382d 	jal	9d00e0b4 <__subdf3>
9d00aa2c:	00602825 	move	a1,v1
9d00aa30:	00402025 	move	a0,v0
9d00aa34:	00003025 	move	a2,zero
9d00aa38:	00003825 	move	a3,zero
9d00aa3c:	00602825 	move	a1,v1
9d00aa40:	00408025 	move	s0,v0
9d00aa44:	0f40462a 	jal	9d0118a8 <__eqdf2>
9d00aa48:	00608825 	move	s1,v1
9d00aa4c:	14400004 	bnez	v0,9d00aa60 <__floatscan+0xb3c>
9d00aa50:	02803025 	move	a2,s4
9d00aa54:	3c02a000 	lui	v0,0xa000
9d00aa58:	24030022 	li	v1,34
9d00aa5c:	ac432404 	sw	v1,9220(v0)
9d00aa60:	02002025 	move	a0,s0
9d00aa64:	0f4052a4 	jal	9d014a90 <scalbnl>
9d00aa68:	02202825 	move	a1,s1
9d00aa6c:	1000fda0 	b	9d00a0f0 <__floatscan+0x1cc>
9d00aa70:	8fbf0074 	lw	ra,116(sp)
9d00aa74:	02403025 	move	a2,s2
9d00aa78:	1000ff82 	b	9d00a884 <__floatscan+0x960>
9d00aa7c:	02603825 	move	a3,s3
9d00aa80:	3c029d00 	lui	v0,0x9d00
9d00aa84:	8c567520 	lw	s6,29984(v0)
9d00aa88:	8c577524 	lw	s7,29988(v0)
9d00aa8c:	8fa20034 	lw	v0,52(sp)
9d00aa90:	8c43750c 	lw	v1,29964(v0)
9d00aa94:	8c427508 	lw	v0,29960(v0)
9d00aa98:	afa3002c 	sw	v1,44(sp)
9d00aa9c:	1000ff83 	b	9d00a8ac <__floatscan+0x988>
9d00aaa0:	afa20028 	sw	v0,40(sp)
9d00aaa4:	1000ff9e 	b	9d00a920 <__floatscan+0x9fc>
9d00aaa8:	afa00020 	sw	zero,32(sp)
9d00aaac:	10600005 	beqz	v1,9d00aac4 <__floatscan+0xba0>
9d00aab0:	8fa70018 	lw	a3,24(sp)
9d00aab4:	8e82003c 	lw	v0,60(s4)
9d00aab8:	2442ffff 	addiu	v0,v0,-1
9d00aabc:	ae82003c 	sw	v0,60(s4)
9d00aac0:	8fa70018 	lw	a3,24(sp)
9d00aac4:	8fa60024 	lw	a2,36(sp)
9d00aac8:	afb60014 	sw	s6,20(sp)
9d00aacc:	afb10010 	sw	s1,16(sp)
9d00aad0:	02402825 	move	a1,s2
9d00aad4:	0f40246c 	jal	9d0091b0 <decfloat>
9d00aad8:	02802025 	move	a0,s4
9d00aadc:	1000fd84 	b	9d00a0f0 <__floatscan+0x1cc>
9d00aae0:	8fbf0074 	lw	ra,116(sp)
9d00aae4:	8c437534 	lw	v1,30004(v0)
9d00aae8:	1000fd80 	b	9d00a0ec <__floatscan+0x1c8>
9d00aaec:	8c427530 	lw	v0,30000(v0)
9d00aaf0:	16c0fdd7 	bnez	s6,9d00a250 <__floatscan+0x32c>
9d00aaf4:	00000000 	nop
9d00aaf8:	1000feea 	b	9d00a6a4 <__floatscan+0x780>
9d00aafc:	00002825 	move	a1,zero
9d00ab00:	1460feed 	bnez	v1,9d00a6b8 <__floatscan+0x794>
9d00ab04:	2402002e 	li	v0,46
9d00ab08:	1000fdc9 	b	9d00a230 <__floatscan+0x30c>
9d00ab0c:	8e82004c 	lw	v0,76(s4)
9d00ab10:	03e00008 	jr	ra
9d00ab14:	00000000 	nop

Disassembly of section .text.__fmt_fp:

9d00ab18 <__fmt_fp>:
9d00ab18:	27bdff78 	addiu	sp,sp,-136
9d00ab1c:	afa70094 	sw	a3,148(sp)
9d00ab20:	8ca20000 	lw	v0,0(a1)
9d00ab24:	afb3006c 	sw	s3,108(sp)
9d00ab28:	8cd30004 	lw	s3,4(a2)
9d00ab2c:	afa2001c 	sw	v0,28(sp)
9d00ab30:	8ca20008 	lw	v0,8(a1)
9d00ab34:	afb10064 	sw	s1,100(sp)
9d00ab38:	afb00060 	sw	s0,96(sp)
9d00ab3c:	afa20020 	sw	v0,32(sp)
9d00ab40:	8ca20010 	lw	v0,16(a1)
9d00ab44:	afa40088 	sw	a0,136(sp)
9d00ab48:	afa5008c 	sw	a1,140(sp)
9d00ab4c:	afa20034 	sw	v0,52(sp)
9d00ab50:	8cc20000 	lw	v0,0(a2)
9d00ab54:	8cb10004 	lw	s1,4(a1)
9d00ab58:	8cb0000c 	lw	s0,12(a1)
9d00ab5c:	afa20018 	sw	v0,24(sp)
9d00ab60:	8fa30018 	lw	v1,24(sp)
9d00ab64:	00003025 	move	a2,zero
9d00ab68:	00003825 	move	a3,zero
9d00ab6c:	00602025 	move	a0,v1
9d00ab70:	02602825 	move	a1,s3
9d00ab74:	afbf0084 	sw	ra,132(sp)
9d00ab78:	afbe0080 	sw	s8,128(sp)
9d00ab7c:	afb7007c 	sw	s7,124(sp)
9d00ab80:	afb60078 	sw	s6,120(sp)
9d00ab84:	afb50074 	sw	s5,116(sp)
9d00ab88:	afb40070 	sw	s4,112(sp)
9d00ab8c:	0f404675 	jal	9d0119d4 <dpcmplt>
9d00ab90:	afb20068 	sw	s2,104(sp)
9d00ab94:	0440000d 	bltz	v0,9d00abcc <__fmt_fp+0xb4>
9d00ab98:	3c028000 	lui	v0,0x8000
9d00ab9c:	8fa2001c 	lw	v0,28(sp)
9d00aba0:	30420004 	andi	v0,v0,0x4
9d00aba4:	14400037 	bnez	v0,9d00ac84 <__fmt_fp+0x16c>
9d00aba8:	8fb20020 	lw	s2,32(sp)
9d00abac:	8fa2001c 	lw	v0,28(sp)
9d00abb0:	30420008 	andi	v0,v0,0x8
9d00abb4:	1040000c 	beqz	v0,9d00abe8 <__fmt_fp+0xd0>
9d00abb8:	afa20024 	sw	v0,36(sp)
9d00abbc:	24020020 	li	v0,32
9d00abc0:	a2020000 	sb	v0,0(s0)
9d00abc4:	10000006 	b	9d00abe0 <__fmt_fp+0xc8>
9d00abc8:	2652ffff 	addiu	s2,s2,-1
9d00abcc:	00539826 	xor	s3,v0,s3
9d00abd0:	2402002d 	li	v0,45
9d00abd4:	a2020000 	sb	v0,0(s0)
9d00abd8:	8fa20020 	lw	v0,32(sp)
9d00abdc:	2452ffff 	addiu	s2,v0,-1
9d00abe0:	24020001 	li	v0,1
9d00abe4:	afa20024 	sw	v0,36(sp)
9d00abe8:	8fa30024 	lw	v1,36(sp)
9d00abec:	02031821 	addu	v1,s0,v1
9d00abf0:	afa3002c 	sw	v1,44(sp)
9d00abf4:	8fa30018 	lw	v1,24(sp)
9d00abf8:	14600026 	bnez	v1,9d00ac94 <__fmt_fp+0x17c>
9d00abfc:	7e62f000 	ext	v0,s3,0x0,0x1f
9d00ac00:	3c037ff0 	lui	v1,0x7ff0
9d00ac04:	14430024 	bne	v0,v1,9d00ac98 <__fmt_fp+0x180>
9d00ac08:	3c047ff0 	lui	a0,0x7ff0
9d00ac0c:	8fa20094 	lw	v0,148(sp)
9d00ac10:	2442ffbf 	addiu	v0,v0,-65
9d00ac14:	2c42001a 	sltiu	v0,v0,26
9d00ac18:	1040001c 	beqz	v0,9d00ac8c <__fmt_fp+0x174>
9d00ac1c:	3c059d00 	lui	a1,0x9d00
9d00ac20:	3c059d00 	lui	a1,0x9d00
9d00ac24:	24a57498 	addiu	a1,a1,29848
9d00ac28:	0f4051fc 	jal	9d0147f0 <strcpy>
9d00ac2c:	8fa4002c 	lw	a0,44(sp)
9d00ac30:	0f405130 	jal	9d0144c0 <strlen>
9d00ac34:	02002025 	move	a0,s0
9d00ac38:	8fa3001c 	lw	v1,28(sp)
9d00ac3c:	8fa70020 	lw	a3,32(sp)
9d00ac40:	8fa40088 	lw	a0,136(sp)
9d00ac44:	afa30010 	sw	v1,16(sp)
9d00ac48:	02002825 	move	a1,s0
9d00ac4c:	0f4047d8 	jal	9d011f60 <__pad>
9d00ac50:	00403025 	move	a2,v0
9d00ac54:	8fbf0084 	lw	ra,132(sp)
9d00ac58:	8fbe0080 	lw	s8,128(sp)
9d00ac5c:	8fb7007c 	lw	s7,124(sp)
9d00ac60:	8fb60078 	lw	s6,120(sp)
9d00ac64:	8fb50074 	lw	s5,116(sp)
9d00ac68:	8fb40070 	lw	s4,112(sp)
9d00ac6c:	8fb3006c 	lw	s3,108(sp)
9d00ac70:	8fb20068 	lw	s2,104(sp)
9d00ac74:	8fb10064 	lw	s1,100(sp)
9d00ac78:	8fb00060 	lw	s0,96(sp)
9d00ac7c:	03e00008 	jr	ra
9d00ac80:	27bd0088 	addiu	sp,sp,136
9d00ac84:	1000ffd3 	b	9d00abd4 <__fmt_fp+0xbc>
9d00ac88:	2402002b 	li	v0,43
9d00ac8c:	1000ffe6 	b	9d00ac28 <__fmt_fp+0x110>
9d00ac90:	24a5749c 	addiu	a1,a1,29852
9d00ac94:	3c047ff0 	lui	a0,0x7ff0
9d00ac98:	24830001 	addiu	v1,a0,1
9d00ac9c:	0043182b 	sltu	v1,v0,v1
9d00aca0:	50600005 	beqzl	v1,9d00acb8 <__fmt_fp+0x1a0>
9d00aca4:	8fa20094 	lw	v0,148(sp)
9d00aca8:	1444000c 	bne	v0,a0,9d00acdc <__fmt_fp+0x1c4>
9d00acac:	8fa20018 	lw	v0,24(sp)
9d00acb0:	1040000a 	beqz	v0,9d00acdc <__fmt_fp+0x1c4>
9d00acb4:	8fa20094 	lw	v0,148(sp)
9d00acb8:	2442ffbf 	addiu	v0,v0,-65
9d00acbc:	2c42001a 	sltiu	v0,v0,26
9d00acc0:	50400004 	beqzl	v0,9d00acd4 <__fmt_fp+0x1bc>
9d00acc4:	3c059d00 	lui	a1,0x9d00
9d00acc8:	3c059d00 	lui	a1,0x9d00
9d00accc:	1000ffd6 	b	9d00ac28 <__fmt_fp+0x110>
9d00acd0:	24a574a0 	addiu	a1,a1,29856
9d00acd4:	1000ffd4 	b	9d00ac28 <__fmt_fp+0x110>
9d00acd8:	24a574a4 	addiu	a1,a1,29860
9d00acdc:	8fa30018 	lw	v1,24(sp)
9d00ace0:	00003025 	move	a2,zero
9d00ace4:	00003825 	move	a3,zero
9d00ace8:	00602025 	move	a0,v1
9d00acec:	0f40462a 	jal	9d0118a8 <__eqdf2>
9d00acf0:	02602825 	move	a1,s3
9d00acf4:	3c179d00 	lui	s7,0x9d00
9d00acf8:	3c039d00 	lui	v1,0x9d00
9d00acfc:	afa30030 	sw	v1,48(sp)
9d00ad00:	8ef574a8 	lw	s5,29864(s7)
9d00ad04:	8ef674ac 	lw	s6,29868(s7)
9d00ad08:	14400013 	bnez	v0,9d00ad58 <__fmt_fp+0x240>
9d00ad0c:	0000a025 	move	s4,zero
9d00ad10:	0f40525e 	jal	9d014978 <tolower>
9d00ad14:	8fa40094 	lw	a0,148(sp)
9d00ad18:	7c021420 	seb	v0,v0
9d00ad1c:	afa20028 	sw	v0,40(sp)
9d00ad20:	8fa30028 	lw	v1,40(sp)
9d00ad24:	062001a5 	bltz	s1,9d00b3bc <__fmt_fp+0x8a4>
9d00ad28:	24020067 	li	v0,103
9d00ad2c:	14620057 	bne	v1,v0,9d00ae8c <__fmt_fp+0x374>
9d00ad30:	8fa90028 	lw	t1,40(sp)
9d00ad34:	52200001 	beqzl	s1,9d00ad3c <__fmt_fp+0x224>
9d00ad38:	24110001 	li	s1,1
9d00ad3c:	2a82fffc 	slti	v0,s4,-4
9d00ad40:	14400003 	bnez	v0,9d00ad50 <__fmt_fp+0x238>
9d00ad44:	0291102a 	slt	v0,s4,s1
9d00ad48:	14400196 	bnez	v0,9d00b3a4 <__fmt_fp+0x88c>
9d00ad4c:	00000000 	nop
9d00ad50:	1000005a 	b	9d00aebc <__fmt_fp+0x3a4>
9d00ad54:	24090065 	li	t1,101
9d00ad58:	3c029d00 	lui	v0,0x9d00
9d00ad5c:	8c4a74b0 	lw	t2,29872(v0)
9d00ad60:	8c4b74b4 	lw	t3,29876(v0)
9d00ad64:	01403025 	move	a2,t2
9d00ad68:	01603825 	move	a3,t3
9d00ad6c:	02a02025 	move	a0,s5
9d00ad70:	02c02825 	move	a1,s6
9d00ad74:	afaa0038 	sw	t2,56(sp)
9d00ad78:	0f403d0b 	jal	9d00f42c <__muldf3>
9d00ad7c:	afab003c 	sw	t3,60(sp)
9d00ad80:	8fa40018 	lw	a0,24(sp)
9d00ad84:	02603825 	move	a3,s3
9d00ad88:	00602825 	move	a1,v1
9d00ad8c:	00803025 	move	a2,a0
9d00ad90:	00402025 	move	a0,v0
9d00ad94:	0040f025 	move	s8,v0
9d00ad98:	0f40462a 	jal	9d0118a8 <__eqdf2>
9d00ad9c:	afa30028 	sw	v1,40(sp)
9d00ada0:	1c40002d 	bgtz	v0,9d00ae58 <__fmt_fp+0x340>
9d00ada4:	8fa30028 	lw	v1,40(sp)
9d00ada8:	8faa0038 	lw	t2,56(sp)
9d00adac:	8fab003c 	lw	t3,60(sp)
9d00adb0:	26940001 	addiu	s4,s4,1
9d00adb4:	03c0a825 	move	s5,s8
9d00adb8:	1000ffea 	b	9d00ad64 <__fmt_fp+0x24c>
9d00adbc:	0060b025 	move	s6,v1
9d00adc0:	10400013 	beqz	v0,9d00ae10 <__fmt_fp+0x2f8>
9d00adc4:	8fa20028 	lw	v0,40(sp)
9d00adc8:	14400011 	bnez	v0,9d00ae10 <__fmt_fp+0x2f8>
9d00adcc:	8fa30018 	lw	v1,24(sp)
9d00add0:	8fa60038 	lw	a2,56(sp)
9d00add4:	02602825 	move	a1,s3
9d00add8:	03c03825 	move	a3,s8
9d00addc:	0f403d0b 	jal	9d00f42c <__muldf3>
9d00ade0:	00602025 	move	a0,v1
9d00ade4:	8fa60048 	lw	a2,72(sp)
9d00ade8:	8fa70050 	lw	a3,80(sp)
9d00adec:	02a02025 	move	a0,s5
9d00adf0:	02c02825 	move	a1,s6
9d00adf4:	afa20018 	sw	v0,24(sp)
9d00adf8:	0f403d0b 	jal	9d00f42c <__muldf3>
9d00adfc:	00609825 	move	s3,v1
9d00ae00:	0040a825 	move	s5,v0
9d00ae04:	24020001 	li	v0,1
9d00ae08:	0060b025 	move	s6,v1
9d00ae0c:	afa20028 	sw	v0,40(sp)
9d00ae10:	8fa60040 	lw	a2,64(sp)
9d00ae14:	8fa70044 	lw	a3,68(sp)
9d00ae18:	02a02025 	move	a0,s5
9d00ae1c:	0f4033cc 	jal	9d00cf30 <__divdf3>
9d00ae20:	02c02825 	move	a1,s6
9d00ae24:	0040a825 	move	s5,v0
9d00ae28:	0060b025 	move	s6,v1
9d00ae2c:	2694ffff 	addiu	s4,s4,-1
9d00ae30:	8fa30018 	lw	v1,24(sp)
9d00ae34:	02a03025 	move	a2,s5
9d00ae38:	02c03825 	move	a3,s6
9d00ae3c:	00602025 	move	a0,v1
9d00ae40:	0f404675 	jal	9d0119d4 <dpcmplt>
9d00ae44:	02602825 	move	a1,s3
9d00ae48:	0442ffdd 	bltzl	v0,9d00adc0 <__fmt_fp+0x2a8>
9d00ae4c:	2a82fed4 	slti	v0,s4,-300
9d00ae50:	1000ffaf 	b	9d00ad10 <__fmt_fp+0x1f8>
9d00ae54:	00000000 	nop
9d00ae58:	3c029d00 	lui	v0,0x9d00
9d00ae5c:	8c4374b8 	lw	v1,29880(v0)
9d00ae60:	8c5e74bc 	lw	s8,29884(v0)
9d00ae64:	8fa20030 	lw	v0,48(sp)
9d00ae68:	afa30038 	sw	v1,56(sp)
9d00ae6c:	afa30048 	sw	v1,72(sp)
9d00ae70:	8c4374b4 	lw	v1,29876(v0)
9d00ae74:	8c4274b0 	lw	v0,29872(v0)
9d00ae78:	afa00028 	sw	zero,40(sp)
9d00ae7c:	afbe0050 	sw	s8,80(sp)
9d00ae80:	afa20040 	sw	v0,64(sp)
9d00ae84:	1000ffea 	b	9d00ae30 <__fmt_fp+0x318>
9d00ae88:	afa30044 	sw	v1,68(sp)
9d00ae8c:	24020066 	li	v0,102
9d00ae90:	1522000a 	bne	t1,v0,9d00aebc <__fmt_fp+0x3a4>
9d00ae94:	26310001 	addiu	s1,s1,1
9d00ae98:	06810004 	bgez	s4,9d00aeac <__fmt_fp+0x394>
9d00ae9c:	8fa30028 	lw	v1,40(sp)
9d00aea0:	8ef574a8 	lw	s5,29864(s7)
9d00aea4:	8ef674ac 	lw	s6,29868(s7)
9d00aea8:	0000a025 	move	s4,zero
9d00aeac:	24020067 	li	v0,103
9d00aeb0:	10620002 	beq	v1,v0,9d00aebc <__fmt_fp+0x3a4>
9d00aeb4:	24090066 	li	t1,102
9d00aeb8:	02348821 	addu	s1,s1,s4
9d00aebc:	8fac0018 	lw	t4,24(sp)
9d00aec0:	02a05825 	move	t3,s5
9d00aec4:	02c05025 	move	t2,s6
9d00aec8:	0260b825 	move	s7,s3
9d00aecc:	00007025 	move	t6,zero
9d00aed0:	01603025 	move	a2,t3
9d00aed4:	01403825 	move	a3,t2
9d00aed8:	01802025 	move	a0,t4
9d00aedc:	02e02825 	move	a1,s7
9d00aee0:	afa9005c 	sw	t1,92(sp)
9d00aee4:	afae0058 	sw	t6,88(sp)
9d00aee8:	afab0050 	sw	t3,80(sp)
9d00aeec:	afaa0054 	sw	t2,84(sp)
9d00aef0:	0f4033cc 	jal	9d00cf30 <__divdf3>
9d00aef4:	afac0048 	sw	t4,72(sp)
9d00aef8:	00402025 	move	a0,v0
9d00aefc:	0f404796 	jal	9d011e58 <dpfloor>
9d00af00:	00602825 	move	a1,v1
9d00af04:	00602825 	move	a1,v1
9d00af08:	00402025 	move	a0,v0
9d00af0c:	afa30044 	sw	v1,68(sp)
9d00af10:	0f404cad 	jal	9d0132b4 <__fixdfsi>
9d00af14:	afa20040 	sw	v0,64(sp)
9d00af18:	8fac0040 	lw	t4,64(sp)
9d00af1c:	8faf0048 	lw	t7,72(sp)
9d00af20:	8faa0054 	lw	t2,84(sp)
9d00af24:	8fab0050 	lw	t3,80(sp)
9d00af28:	8fad0044 	lw	t5,68(sp)
9d00af2c:	02e0f025 	move	s8,s7
9d00af30:	3c178000 	lui	s7,0x8000
9d00af34:	02fe2026 	xor	a0,s7,s8
9d00af38:	01603025 	move	a2,t3
9d00af3c:	01403825 	move	a3,t2
9d00af40:	01a02825 	move	a1,t5
9d00af44:	afaf0010 	sw	t7,16(sp)
9d00af48:	afa40014 	sw	a0,20(sp)
9d00af4c:	01802025 	move	a0,t4
9d00af50:	afaa0048 	sw	t2,72(sp)
9d00af54:	0f402cf3 	jal	9d00b3cc <fma>
9d00af58:	afa20038 	sw	v0,56(sp)
9d00af5c:	afa20040 	sw	v0,64(sp)
9d00af60:	0040f025 	move	s8,v0
9d00af64:	8fa20030 	lw	v0,48(sp)
9d00af68:	8fab0050 	lw	t3,80(sp)
9d00af6c:	8faa0048 	lw	t2,72(sp)
9d00af70:	8c4674b0 	lw	a2,29872(v0)
9d00af74:	8c4774b4 	lw	a3,29876(v0)
9d00af78:	01602025 	move	a0,t3
9d00af7c:	01402825 	move	a1,t2
9d00af80:	0f4033cc 	jal	9d00cf30 <__divdf3>
9d00af84:	02e3b826 	xor	s7,s7,v1
9d00af88:	8fae0058 	lw	t6,88(sp)
9d00af8c:	00405825 	move	t3,v0
9d00af90:	00605025 	move	t2,v1
9d00af94:	25ce0001 	addiu	t6,t6,1
9d00af98:	8fac0040 	lw	t4,64(sp)
9d00af9c:	162effcc 	bne	s1,t6,9d00aed0 <__fmt_fp+0x3b8>
9d00afa0:	8fa9005c 	lw	t1,92(sp)
9d00afa4:	3c029d00 	lui	v0,0x9d00
9d00afa8:	8c4674c0 	lw	a2,29888(v0)
9d00afac:	8c4774c4 	lw	a3,29892(v0)
9d00afb0:	01602025 	move	a0,t3
9d00afb4:	00602825 	move	a1,v1
9d00afb8:	0f403d0b 	jal	9d00f42c <__muldf3>
9d00afbc:	afa90048 	sw	t1,72(sp)
9d00afc0:	00403025 	move	a2,v0
9d00afc4:	00603825 	move	a3,v1
9d00afc8:	03c02025 	move	a0,s8
9d00afcc:	02e02825 	move	a1,s7
9d00afd0:	afa20040 	sw	v0,64(sp)
9d00afd4:	0f404675 	jal	9d0119d4 <dpcmplt>
9d00afd8:	afa30044 	sw	v1,68(sp)
9d00afdc:	04400010 	bltz	v0,9d00b020 <__fmt_fp+0x508>
9d00afe0:	8fa90048 	lw	t1,72(sp)
9d00afe4:	8faa0040 	lw	t2,64(sp)
9d00afe8:	8fab0044 	lw	t3,68(sp)
9d00afec:	03c02025 	move	a0,s8
9d00aff0:	01403025 	move	a2,t2
9d00aff4:	01603825 	move	a3,t3
9d00aff8:	0f40462a 	jal	9d0118a8 <__eqdf2>
9d00affc:	02e02825 	move	a1,s7
9d00b000:	8faa0040 	lw	t2,64(sp)
9d00b004:	8fab0044 	lw	t3,68(sp)
9d00b008:	14400007 	bnez	v0,9d00b028 <__fmt_fp+0x510>
9d00b00c:	8fa90048 	lw	t1,72(sp)
9d00b010:	8fa20038 	lw	v0,56(sp)
9d00b014:	30420001 	andi	v0,v0,0x1
9d00b018:	14400004 	bnez	v0,9d00b02c <__fmt_fp+0x514>
9d00b01c:	8fa30018 	lw	v1,24(sp)
9d00b020:	00005025 	move	t2,zero
9d00b024:	00005825 	move	t3,zero
9d00b028:	8fa30018 	lw	v1,24(sp)
9d00b02c:	01403025 	move	a2,t2
9d00b030:	01603825 	move	a3,t3
9d00b034:	02602825 	move	a1,s3
9d00b038:	00602025 	move	a0,v1
9d00b03c:	0f40382f 	jal	9d00e0bc <__adddf3>
9d00b040:	afa90048 	sw	t1,72(sp)
9d00b044:	0040f025 	move	s8,v0
9d00b048:	afa20018 	sw	v0,24(sp)
9d00b04c:	8fa20030 	lw	v0,48(sp)
9d00b050:	02a02025 	move	a0,s5
9d00b054:	02c02825 	move	a1,s6
9d00b058:	8c4674b0 	lw	a2,29872(v0)
9d00b05c:	8c4774b4 	lw	a3,29876(v0)
9d00b060:	0060b825 	move	s7,v1
9d00b064:	0f403d0b 	jal	9d00f42c <__muldf3>
9d00b068:	afa30038 	sw	v1,56(sp)
9d00b06c:	00402025 	move	a0,v0
9d00b070:	03c03025 	move	a2,s8
9d00b074:	02e03825 	move	a3,s7
9d00b078:	00602825 	move	a1,v1
9d00b07c:	00409825 	move	s3,v0
9d00b080:	0f404675 	jal	9d0119d4 <dpcmplt>
9d00b084:	afa30040 	sw	v1,64(sp)
9d00b088:	1c400054 	bgtz	v0,9d00b1dc <__fmt_fp+0x6c4>
9d00b08c:	8fa90048 	lw	t1,72(sp)
9d00b090:	24020066 	li	v0,102
9d00b094:	26940001 	addiu	s4,s4,1
9d00b098:	15220052 	bne	t1,v0,9d00b1e4 <__fmt_fp+0x6cc>
9d00b09c:	8fab0040 	lw	t3,64(sp)
9d00b0a0:	26310001 	addiu	s1,s1,1
9d00b0a4:	0280b025 	move	s6,s4
9d00b0a8:	8fb50024 	lw	s5,36(sp)
9d00b0ac:	02d11023 	subu	v0,s6,s1
9d00b0b0:	afa20040 	sw	v0,64(sp)
9d00b0b4:	0000f025 	move	s8,zero
9d00b0b8:	00008825 	move	s1,zero
9d00b0bc:	8fa20040 	lw	v0,64(sp)
9d00b0c0:	10560007 	beq	v0,s6,9d00b0e0 <__fmt_fp+0x5c8>
9d00b0c4:	02a0b825 	move	s7,s5
9d00b0c8:	8fa2008c 	lw	v0,140(sp)
9d00b0cc:	8c420010 	lw	v0,16(v0)
9d00b0d0:	2442fffb 	addiu	v0,v0,-5
9d00b0d4:	02a2102b 	sltu	v0,s5,v0
9d00b0d8:	14400047 	bnez	v0,9d00b1f8 <__fmt_fp+0x6e0>
9d00b0dc:	8fa30018 	lw	v1,24(sp)
9d00b0e0:	16200007 	bnez	s1,9d00b100 <__fmt_fp+0x5e8>
9d00b0e4:	8fa2001c 	lw	v0,28(sp)
9d00b0e8:	30420010 	andi	v0,v0,0x10
9d00b0ec:	10400004 	beqz	v0,9d00b100 <__fmt_fp+0x5e8>
9d00b0f0:	0217b821 	addu	s7,s0,s7
9d00b0f4:	2402002e 	li	v0,46
9d00b0f8:	26b50001 	addiu	s5,s5,1
9d00b0fc:	a2e20000 	sb	v0,0(s7)
9d00b100:	02152021 	addu	a0,s0,s5
9d00b104:	24020065 	li	v0,101
9d00b108:	15220022 	bne	t1,v0,9d00b194 <__fmt_fp+0x67c>
9d00b10c:	a0800000 	sb	zero,0(a0)
9d00b110:	06810003 	bgez	s4,9d00b120 <__fmt_fp+0x608>
9d00b114:	00001825 	move	v1,zero
9d00b118:	0014a023 	negu	s4,s4
9d00b11c:	24030001 	li	v1,1
9d00b120:	8fa20034 	lw	v0,52(sp)
9d00b124:	264afffe 	addiu	t2,s2,-2
9d00b128:	2407000a 	li	a3,10
9d00b12c:	2442ffff 	addiu	v0,v0,-1
9d00b130:	02022821 	addu	a1,s0,v0
9d00b134:	a0a00000 	sb	zero,0(a1)
9d00b138:	24050002 	li	a1,2
9d00b13c:	16800088 	bnez	s4,9d00b360 <__fmt_fp+0x848>
9d00b140:	01459021 	addu	s2,t2,a1
9d00b144:	1ca00086 	bgtz	a1,9d00b360 <__fmt_fp+0x848>
9d00b148:	2406002d 	li	a2,45
9d00b14c:	2405002b 	li	a1,43
9d00b150:	00c3280b 	movn	a1,a2,v1
9d00b154:	00a01825 	move	v1,a1
9d00b158:	02022821 	addu	a1,s0,v0
9d00b15c:	a0a3ffff 	sb	v1,-1(a1)
9d00b160:	8fa30094 	lw	v1,148(sp)
9d00b164:	24050045 	li	a1,69
9d00b168:	2442fffe 	addiu	v0,v0,-2
9d00b16c:	2463ffbf 	addiu	v1,v1,-65
9d00b170:	2c63001a 	sltiu	v1,v1,26
9d00b174:	00a3480b 	movn	t1,a1,v1
9d00b178:	02a2a82a 	slt	s5,s5,v0
9d00b17c:	02022821 	addu	a1,s0,v0
9d00b180:	a0a90000 	sb	t1,0(a1)
9d00b184:	12a00003 	beqz	s5,9d00b194 <__fmt_fp+0x67c>
9d00b188:	2652fffe 	addiu	s2,s2,-2
9d00b18c:	0f4051fc 	jal	9d0147f0 <strcpy>
9d00b190:	00000000 	nop
9d00b194:	8fa2001c 	lw	v0,28(sp)
9d00b198:	24030002 	li	v1,2
9d00b19c:	30420003 	andi	v0,v0,0x3
9d00b1a0:	1443fea3 	bne	v0,v1,9d00ac30 <__fmt_fp+0x118>
9d00b1a4:	00000000 	nop
9d00b1a8:	1a40fea1 	blez	s2,9d00ac30 <__fmt_fp+0x118>
9d00b1ac:	00000000 	nop
9d00b1b0:	0f405130 	jal	9d0144c0 <strlen>
9d00b1b4:	02002025 	move	a0,s0
9d00b1b8:	8fa30024 	lw	v1,36(sp)
9d00b1bc:	0043182a 	slt	v1,v0,v1
9d00b1c0:	10600071 	beqz	v1,9d00b388 <__fmt_fp+0x870>
9d00b1c4:	02403025 	move	a2,s2
9d00b1c8:	8fa4002c 	lw	a0,44(sp)
9d00b1cc:	0f4051f2 	jal	9d0147c8 <memset>
9d00b1d0:	24050030 	li	a1,48
9d00b1d4:	1000fe96 	b	9d00ac30 <__fmt_fp+0x118>
9d00b1d8:	afa00020 	sw	zero,32(sp)
9d00b1dc:	02a09825 	move	s3,s5
9d00b1e0:	02c05825 	move	t3,s6
9d00b1e4:	39360065 	xori	s6,t1,0x65
9d00b1e8:	02801025 	move	v0,s4
9d00b1ec:	0016100a 	movz	v0,zero,s6
9d00b1f0:	1000ffad 	b	9d00b0a8 <__fmt_fp+0x590>
9d00b1f4:	0040b025 	move	s6,v0
9d00b1f8:	8fa20038 	lw	v0,56(sp)
9d00b1fc:	01603825 	move	a3,t3
9d00b200:	02603025 	move	a2,s3
9d00b204:	00602025 	move	a0,v1
9d00b208:	00402825 	move	a1,v0
9d00b20c:	afa90054 	sw	t1,84(sp)
9d00b210:	0f4033cc 	jal	9d00cf30 <__divdf3>
9d00b214:	afab0050 	sw	t3,80(sp)
9d00b218:	00402025 	move	a0,v0
9d00b21c:	0f404796 	jal	9d011e58 <dpfloor>
9d00b220:	00602825 	move	a1,v1
9d00b224:	00402025 	move	a0,v0
9d00b228:	00602825 	move	a1,v1
9d00b22c:	afa3004c 	sw	v1,76(sp)
9d00b230:	0f404cad 	jal	9d0132b4 <__fixdfsi>
9d00b234:	afa20048 	sw	v0,72(sp)
9d00b238:	2844000a 	slti	a0,v0,10
9d00b23c:	24030009 	li	v1,9
9d00b240:	0064100a 	movz	v0,v1,a0
9d00b244:	8fa3001c 	lw	v1,28(sp)
9d00b248:	8fae0048 	lw	t6,72(sp)
9d00b24c:	8faf004c 	lw	t7,76(sp)
9d00b250:	30630010 	andi	v1,v1,0x10
9d00b254:	00621825 	or	v1,v1,v0
9d00b258:	8fab0050 	lw	t3,80(sp)
9d00b25c:	1460000c 	bnez	v1,9d00b290 <__fmt_fp+0x778>
9d00b260:	8fa90054 	lw	t1,84(sp)
9d00b264:	8fa40028 	lw	a0,40(sp)
9d00b268:	24030067 	li	v1,103
9d00b26c:	14830008 	bne	a0,v1,9d00b290 <__fmt_fp+0x778>
9d00b270:	00000000 	nop
9d00b274:	06c0001d 	bltz	s6,9d00b2ec <__fmt_fp+0x7d4>
9d00b278:	27d70001 	addiu	s7,s8,1
9d00b27c:	02a01825 	move	v1,s5
9d00b280:	02152021 	addu	a0,s0,s5
9d00b284:	03c0b825 	move	s7,s8
9d00b288:	1000000e 	b	9d00b2c4 <__fmt_fp+0x7ac>
9d00b28c:	24050030 	li	a1,48
9d00b290:	1620fffb 	bnez	s1,9d00b280 <__fmt_fp+0x768>
9d00b294:	02a01825 	move	v1,s5
9d00b298:	06c3fffa 	bgezl	s6,9d00b284 <__fmt_fp+0x76c>
9d00b29c:	02152021 	addu	a0,s0,s5
9d00b2a0:	0217b821 	addu	s7,s0,s7
9d00b2a4:	2403002e 	li	v1,46
9d00b2a8:	26b50001 	addiu	s5,s5,1
9d00b2ac:	2652ffff 	addiu	s2,s2,-1
9d00b2b0:	a2e30000 	sb	v1,0(s7)
9d00b2b4:	1000fff1 	b	9d00b27c <__fmt_fp+0x764>
9d00b2b8:	24110001 	li	s1,1
9d00b2bc:	26f7ffff 	addiu	s7,s7,-1
9d00b2c0:	24840001 	addiu	a0,a0,1
9d00b2c4:	56e0fffd 	bnezl	s7,9d00b2bc <__fmt_fp+0x7a4>
9d00b2c8:	a0850000 	sb	a1,0(a0)
9d00b2cc:	2652ffff 	addiu	s2,s2,-1
9d00b2d0:	26b50001 	addiu	s5,s5,1
9d00b2d4:	02031821 	addu	v1,s0,v1
9d00b2d8:	025e9023 	subu	s2,s2,s8
9d00b2dc:	02bea821 	addu	s5,s5,s8
9d00b2e0:	24420030 	addiu	v0,v0,48
9d00b2e4:	007ef021 	addu	s8,v1,s8
9d00b2e8:	a3c20000 	sb	v0,0(s8)
9d00b2ec:	8fa20038 	lw	v0,56(sp)
9d00b2f0:	8fa50018 	lw	a1,24(sp)
9d00b2f4:	3c1e8000 	lui	s8,0x8000
9d00b2f8:	03c22026 	xor	a0,s8,v0
9d00b2fc:	02603025 	move	a2,s3
9d00b300:	01603825 	move	a3,t3
9d00b304:	afa50010 	sw	a1,16(sp)
9d00b308:	afa40014 	sw	a0,20(sp)
9d00b30c:	01e02825 	move	a1,t7
9d00b310:	01c02025 	move	a0,t6
9d00b314:	afa90050 	sw	t1,80(sp)
9d00b318:	0f402cf3 	jal	9d00b3cc <fma>
9d00b31c:	afab0048 	sw	t3,72(sp)
9d00b320:	afa20018 	sw	v0,24(sp)
9d00b324:	03c31026 	xor	v0,s8,v1
9d00b328:	afa20038 	sw	v0,56(sp)
9d00b32c:	8fa20030 	lw	v0,48(sp)
9d00b330:	8fab0048 	lw	t3,72(sp)
9d00b334:	02602025 	move	a0,s3
9d00b338:	8c4674b0 	lw	a2,29872(v0)
9d00b33c:	8c4774b4 	lw	a3,29876(v0)
9d00b340:	01602825 	move	a1,t3
9d00b344:	0f4033cc 	jal	9d00cf30 <__divdf3>
9d00b348:	26d6ffff 	addiu	s6,s6,-1
9d00b34c:	00409825 	move	s3,v0
9d00b350:	00605825 	move	t3,v1
9d00b354:	02e0f025 	move	s8,s7
9d00b358:	1000ff58 	b	9d00b0bc <__fmt_fp+0x5a4>
9d00b35c:	8fa90050 	lw	t1,80(sp)
9d00b360:	0287001a 	div	zero,s4,a3
9d00b364:	00e001f4 	teq	a3,zero,0x7
9d00b368:	2442ffff 	addiu	v0,v0,-1
9d00b36c:	02025821 	addu	t3,s0,v0
9d00b370:	24a5ffff 	addiu	a1,a1,-1
9d00b374:	00003010 	mfhi	a2
9d00b378:	24c60030 	addiu	a2,a2,48
9d00b37c:	a1660000 	sb	a2,0(t3)
9d00b380:	1000ff6e 	b	9d00b13c <__fmt_fp+0x624>
9d00b384:	0000a012 	mflo	s4
9d00b388:	02021821 	addu	v1,s0,v0
9d00b38c:	80640000 	lb	a0,0(v1)
9d00b390:	02421821 	addu	v1,s2,v0
9d00b394:	02031821 	addu	v1,s0,v1
9d00b398:	a0640000 	sb	a0,0(v1)
9d00b39c:	1000ff86 	b	9d00b1b8 <__fmt_fp+0x6a0>
9d00b3a0:	2442ffff 	addiu	v0,v0,-1
9d00b3a4:	0681fec1 	bgez	s4,9d00aeac <__fmt_fp+0x394>
9d00b3a8:	8fa30028 	lw	v1,40(sp)
9d00b3ac:	1000feb7 	b	9d00ae8c <__fmt_fp+0x374>
9d00b3b0:	24090066 	li	t1,102
9d00b3b4:	1000fe61 	b	9d00ad3c <__fmt_fp+0x224>
9d00b3b8:	24110006 	li	s1,6
9d00b3bc:	1062fe5f 	beq	v1,v0,9d00ad3c <__fmt_fp+0x224>
9d00b3c0:	24110006 	li	s1,6
9d00b3c4:	1000feb1 	b	9d00ae8c <__fmt_fp+0x374>
9d00b3c8:	00604825 	move	t1,v1

Disassembly of section .text.fma:

9d00b3cc <fma>:
9d00b3cc:	27bdff78 	addiu	sp,sp,-136
9d00b3d0:	afa40088 	sw	a0,136(sp)
9d00b3d4:	afa60090 	sw	a2,144(sp)
9d00b3d8:	afa70094 	sw	a3,148(sp)
9d00b3dc:	00803025 	move	a2,a0
9d00b3e0:	00a03825 	move	a3,a1
9d00b3e4:	27a40030 	addiu	a0,sp,48
9d00b3e8:	afbf0084 	sw	ra,132(sp)
9d00b3ec:	afa5008c 	sw	a1,140(sp)
9d00b3f0:	afbe0080 	sw	s8,128(sp)
9d00b3f4:	afb3006c 	sw	s3,108(sp)
9d00b3f8:	afb20068 	sw	s2,104(sp)
9d00b3fc:	8fb3009c 	lw	s3,156(sp)
9d00b400:	8fb20098 	lw	s2,152(sp)
9d00b404:	afb7007c 	sw	s7,124(sp)
9d00b408:	afb60078 	sw	s6,120(sp)
9d00b40c:	afb50074 	sw	s5,116(sp)
9d00b410:	afb40070 	sw	s4,112(sp)
9d00b414:	afb10064 	sw	s1,100(sp)
9d00b418:	0f404b01 	jal	9d012c04 <normalize>
9d00b41c:	afb00060 	sw	s0,96(sp)
9d00b420:	8fa60090 	lw	a2,144(sp)
9d00b424:	8fa70094 	lw	a3,148(sp)
9d00b428:	0f404b01 	jal	9d012c04 <normalize>
9d00b42c:	27a40020 	addiu	a0,sp,32
9d00b430:	02403025 	move	a2,s2
9d00b434:	02603825 	move	a3,s3
9d00b438:	0f404b01 	jal	9d012c04 <normalize>
9d00b43c:	27a40010 	addiu	a0,sp,16
9d00b440:	8fbe0038 	lw	s8,56(sp)
9d00b444:	2bc203cb 	slti	v0,s8,971
9d00b448:	10400006 	beqz	v0,9d00b464 <fma+0x98>
9d00b44c:	8fa60090 	lw	a2,144(sp)
9d00b450:	8faf0028 	lw	t7,40(sp)
9d00b454:	29e203cb 	slti	v0,t7,971
9d00b458:	1440000e 	bnez	v0,9d00b494 <fma+0xc8>
9d00b45c:	8fa60018 	lw	a2,24(sp)
9d00b460:	8fa60090 	lw	a2,144(sp)
9d00b464:	8fa70094 	lw	a3,148(sp)
9d00b468:	8fa40088 	lw	a0,136(sp)
9d00b46c:	0f403d0b 	jal	9d00f42c <__muldf3>
9d00b470:	8fa5008c 	lw	a1,140(sp)
9d00b474:	00403025 	move	a2,v0
9d00b478:	00603825 	move	a3,v1
9d00b47c:	02402025 	move	a0,s2
9d00b480:	0f40382f 	jal	9d00e0bc <__adddf3>
9d00b484:	02602825 	move	a1,s3
9d00b488:	00409025 	move	s2,v0
9d00b48c:	10000006 	b	9d00b4a8 <fma+0xdc>
9d00b490:	00609825 	move	s3,v1
9d00b494:	28c203cb 	slti	v0,a2,971
9d00b498:	14400011 	bnez	v0,9d00b4e0 <fma+0x114>
9d00b49c:	240203cb 	li	v0,971
9d00b4a0:	14c2fff0 	bne	a2,v0,9d00b464 <fma+0x98>
9d00b4a4:	8fa60090 	lw	a2,144(sp)
9d00b4a8:	8fbf0084 	lw	ra,132(sp)
9d00b4ac:	02401025 	move	v0,s2
9d00b4b0:	02601825 	move	v1,s3
9d00b4b4:	8fbe0080 	lw	s8,128(sp)
9d00b4b8:	8fb7007c 	lw	s7,124(sp)
9d00b4bc:	8fb60078 	lw	s6,120(sp)
9d00b4c0:	8fb50074 	lw	s5,116(sp)
9d00b4c4:	8fb40070 	lw	s4,112(sp)
9d00b4c8:	8fb3006c 	lw	s3,108(sp)
9d00b4cc:	8fb20068 	lw	s2,104(sp)
9d00b4d0:	8fb10064 	lw	s1,100(sp)
9d00b4d4:	8fb00060 	lw	s0,96(sp)
9d00b4d8:	03e00008 	jr	ra
9d00b4dc:	27bd0088 	addiu	sp,sp,136
9d00b4e0:	8fa20030 	lw	v0,48(sp)
9d00b4e4:	8fac0020 	lw	t4,32(sp)
9d00b4e8:	8fa40024 	lw	a0,36(sp)
9d00b4ec:	8fb80034 	lw	t8,52(sp)
9d00b4f0:	004c0019 	multu	v0,t4
9d00b4f4:	03cff021 	addu	s8,s8,t7
9d00b4f8:	00de8823 	subu	s1,a2,s8
9d00b4fc:	00004810 	mfhi	t1
9d00b500:	afa90044 	sw	t1,68(sp)
9d00b504:	00004012 	mflo	t0
9d00b508:	afa80040 	sw	t0,64(sp)
9d00b50c:	8fa90040 	lw	t1,64(sp)
9d00b510:	00440019 	multu	v0,a0
9d00b514:	00001012 	mflo	v0
9d00b518:	00001810 	mfhi	v1
9d00b51c:	030c0019 	multu	t8,t4
9d00b520:	00006012 	mflo	t4
9d00b524:	004c7021 	addu	t6,v0,t4
9d00b528:	01c2282b 	sltu	a1,t6,v0
9d00b52c:	00006810 	mfhi	t5
9d00b530:	8fa20044 	lw	v0,68(sp)
9d00b534:	006d6821 	addu	t5,v1,t5
9d00b538:	03040019 	multu	t8,a0
9d00b53c:	8fa30044 	lw	v1,68(sp)
9d00b540:	01c27021 	addu	t6,t6,v0
9d00b544:	00ad2821 	addu	a1,a1,t5
9d00b548:	01c3202b 	sltu	a0,t6,v1
9d00b54c:	0000c012 	mflo	t8
9d00b550:	03052821 	addu	a1,t8,a1
9d00b554:	00b8102b 	sltu	v0,a1,t8
9d00b558:	00a42021 	addu	a0,a1,a0
9d00b55c:	0000c810 	mfhi	t9
9d00b560:	00591021 	addu	v0,v0,t9
9d00b564:	0085282b 	sltu	a1,a0,a1
9d00b568:	00808025 	move	s0,a0
9d00b56c:	1a2000ad 	blez	s1,9d00b824 <fma+0x458>
9d00b570:	00a2b021 	addu	s6,a1,v0
9d00b574:	2a220040 	slti	v0,s1,64
9d00b578:	8faf0010 	lw	t7,16(sp)
9d00b57c:	10400079 	beqz	v0,9d00b764 <fma+0x398>
9d00b580:	8fb70014 	lw	s7,20(sp)
9d00b584:	01e02025 	move	a0,t7
9d00b588:	02e02825 	move	a1,s7
9d00b58c:	02203025 	move	a2,s1
9d00b590:	afae0054 	sw	t6,84(sp)
9d00b594:	afa90050 	sw	t1,80(sp)
9d00b598:	0f4050de 	jal	9d014378 <__ashldi3>
9d00b59c:	afaf004c 	sw	t7,76(sp)
9d00b5a0:	8faf004c 	lw	t7,76(sp)
9d00b5a4:	24060040 	li	a2,64
9d00b5a8:	02e02825 	move	a1,s7
9d00b5ac:	01e02025 	move	a0,t7
9d00b5b0:	00d13023 	subu	a2,a2,s1
9d00b5b4:	afa20048 	sw	v0,72(sp)
9d00b5b8:	0f4050cf 	jal	9d01433c <__lshrdi3>
9d00b5bc:	afa30040 	sw	v1,64(sp)
9d00b5c0:	8fb80040 	lw	t8,64(sp)
9d00b5c4:	8fa70048 	lw	a3,72(sp)
9d00b5c8:	8fa90050 	lw	t1,80(sp)
9d00b5cc:	8fae0054 	lw	t6,84(sp)
9d00b5d0:	00407825 	move	t7,v0
9d00b5d4:	0060b825 	move	s7,v1
9d00b5d8:	8fa2002c 	lw	v0,44(sp)
9d00b5dc:	8fb1003c 	lw	s1,60(sp)
9d00b5e0:	02228826 	xor	s1,s1,v0
9d00b5e4:	8fa2001c 	lw	v0,28(sp)
9d00b5e8:	145100b9 	bne	v0,s1,9d00b8d0 <fma+0x504>
9d00b5ec:	00e95021 	addu	t2,a3,t1
9d00b5f0:	0147902b 	sltu	s2,t2,a3
9d00b5f4:	030e7021 	addu	t6,t8,t6
9d00b5f8:	024ea021 	addu	s4,s2,t6
9d00b5fc:	0298102b 	sltu	v0,s4,t8
9d00b600:	0140a825 	move	s5,t2
9d00b604:	14400006 	bnez	v0,9d00b620 <fma+0x254>
9d00b608:	24060001 	li	a2,1
9d00b60c:	17140003 	bne	t8,s4,9d00b61c <fma+0x250>
9d00b610:	0147382b 	sltu	a3,t2,a3
9d00b614:	14e00003 	bnez	a3,9d00b624 <fma+0x258>
9d00b618:	01f05821 	addu	t3,t7,s0
9d00b61c:	00003025 	move	a2,zero
9d00b620:	01f05821 	addu	t3,t7,s0
9d00b624:	016f782b 	sltu	t7,t3,t7
9d00b628:	02f61021 	addu	v0,s7,s6
9d00b62c:	00cb5821 	addu	t3,a2,t3
9d00b630:	01e21021 	addu	v0,t7,v0
9d00b634:	0166302b 	sltu	a2,t3,a2
9d00b638:	00c2c821 	addu	t9,a2,v0
9d00b63c:	01602025 	move	a0,t3
9d00b640:	03202825 	move	a1,t9
9d00b644:	afab0048 	sw	t3,72(sp)
9d00b648:	0f404ede 	jal	9d013b78 <a_clz_64>
9d00b64c:	afb90040 	sw	t9,64(sp)
9d00b650:	2453ffff 	addiu	s3,v0,-1
9d00b654:	24060040 	li	a2,64
9d00b658:	00d33023 	subu	a2,a2,s3
9d00b65c:	02a02025 	move	a0,s5
9d00b660:	0f4050cf 	jal	9d01433c <__lshrdi3>
9d00b664:	02802825 	move	a1,s4
9d00b668:	8fab0048 	lw	t3,72(sp)
9d00b66c:	8fb90040 	lw	t9,64(sp)
9d00b670:	02603025 	move	a2,s3
9d00b674:	01602025 	move	a0,t3
9d00b678:	03202825 	move	a1,t9
9d00b67c:	00408025 	move	s0,v0
9d00b680:	0f4050de 	jal	9d014378 <__ashldi3>
9d00b684:	00609025 	move	s2,v1
9d00b688:	02603025 	move	a2,s3
9d00b68c:	02a02025 	move	a0,s5
9d00b690:	02802825 	move	a1,s4
9d00b694:	02028025 	or	s0,s0,v0
9d00b698:	0f4050de 	jal	9d014378 <__ashldi3>
9d00b69c:	02439025 	or	s2,s2,v1
9d00b6a0:	00431025 	or	v0,v0,v1
9d00b6a4:	0002102b 	sltu	v0,zero,v0
9d00b6a8:	27de0040 	addiu	s8,s8,64
9d00b6ac:	02028025 	or	s0,s0,v0
9d00b6b0:	02002025 	move	a0,s0
9d00b6b4:	12200005 	beqz	s1,9d00b6cc <fma+0x300>
9d00b6b8:	02402825 	move	a1,s2
9d00b6bc:	00102023 	negu	a0,s0
9d00b6c0:	0004102b 	sltu	v0,zero,a0
9d00b6c4:	00122823 	negu	a1,s2
9d00b6c8:	00a22823 	subu	a1,a1,v0
9d00b6cc:	0f404e36 	jal	9d0138d8 <__floatdidf>
9d00b6d0:	03d3f023 	subu	s8,s8,s3
9d00b6d4:	0040b025 	move	s6,v0
9d00b6d8:	2bc2fbc4 	slti	v0,s8,-1084
9d00b6dc:	104000fc 	beqz	v0,9d00bad0 <fma+0x704>
9d00b6e0:	0060b825 	move	s7,v1
9d00b6e4:	2402fbc3 	li	v0,-1085
9d00b6e8:	17c200ff 	bne	s8,v0,9d00bae8 <fma+0x71c>
9d00b6ec:	00102580 	sll	a0,s0,0x16
9d00b6f0:	122000b8 	beqz	s1,9d00b9d4 <fma+0x608>
9d00b6f4:	3c029d00 	lui	v0,0x9d00
9d00b6f8:	8c547578 	lw	s4,30072(v0)
9d00b6fc:	8c55757c 	lw	s5,30076(v0)
9d00b700:	02c03025 	move	a2,s6
9d00b704:	02e03825 	move	a3,s7
9d00b708:	02802025 	move	a0,s4
9d00b70c:	0f40462a 	jal	9d0118a8 <__eqdf2>
9d00b710:	02a02825 	move	a1,s5
9d00b714:	144000b3 	bnez	v0,9d00b9e4 <fma+0x618>
9d00b718:	3c029d00 	lui	v0,0x9d00
9d00b71c:	8c467580 	lw	a2,30080(v0)
9d00b720:	8c477584 	lw	a3,30084(v0)
9d00b724:	02c02025 	move	a0,s6
9d00b728:	0f403d0b 	jal	9d00f42c <__muldf3>
9d00b72c:	02e02825 	move	a1,s7
9d00b730:	00602825 	move	a1,v1
9d00b734:	0f404818 	jal	9d012060 <__truncdfsf2>
9d00b738:	00402025 	move	a0,v0
9d00b73c:	0f404aac 	jal	9d012ab0 <__extendsfdf2>
9d00b740:	00402025 	move	a0,v0
9d00b744:	3c049d00 	lui	a0,0x9d00
9d00b748:	8c867588 	lw	a2,30088(a0)
9d00b74c:	8c87758c 	lw	a3,30092(a0)
9d00b750:	00602825 	move	a1,v1
9d00b754:	0f403d0b 	jal	9d00f42c <__muldf3>
9d00b758:	00402025 	move	a0,v0
9d00b75c:	1000ff4b 	b	9d00b48c <fma+0xc0>
9d00b760:	00409025 	move	s2,v0
9d00b764:	2631ffc0 	addiu	s1,s1,-64
9d00b768:	24deffc0 	addiu	s8,a2,-64
9d00b76c:	00003825 	move	a3,zero
9d00b770:	1220ff99 	beqz	s1,9d00b5d8 <fma+0x20c>
9d00b774:	0000c025 	move	t8,zero
9d00b778:	2a220040 	slti	v0,s1,64
9d00b77c:	1040004c 	beqz	v0,9d00b8b0 <fma+0x4e4>
9d00b780:	8fa40040 	lw	a0,64(sp)
9d00b784:	240b0040 	li	t3,64
9d00b788:	01715823 	subu	t3,t3,s1
9d00b78c:	01603025 	move	a2,t3
9d00b790:	01c02825 	move	a1,t6
9d00b794:	afb80058 	sw	t8,88(sp)
9d00b798:	afa70054 	sw	a3,84(sp)
9d00b79c:	afaf0050 	sw	t7,80(sp)
9d00b7a0:	afab004c 	sw	t3,76(sp)
9d00b7a4:	0f4050de 	jal	9d014378 <__ashldi3>
9d00b7a8:	afae0048 	sw	t6,72(sp)
9d00b7ac:	8fae0048 	lw	t6,72(sp)
9d00b7b0:	8fa40040 	lw	a0,64(sp)
9d00b7b4:	00431025 	or	v0,v0,v1
9d00b7b8:	01c02825 	move	a1,t6
9d00b7bc:	02203025 	move	a2,s1
9d00b7c0:	0f4050cf 	jal	9d01433c <__lshrdi3>
9d00b7c4:	0002a82b 	sltu	s5,zero,v0
9d00b7c8:	8fab004c 	lw	t3,76(sp)
9d00b7cc:	02002025 	move	a0,s0
9d00b7d0:	02c02825 	move	a1,s6
9d00b7d4:	01603025 	move	a2,t3
9d00b7d8:	0060a025 	move	s4,v1
9d00b7dc:	0f4050de 	jal	9d014378 <__ashldi3>
9d00b7e0:	02a2a825 	or	s5,s5,v0
9d00b7e4:	02a24825 	or	t1,s5,v0
9d00b7e8:	02837025 	or	t6,s4,v1
9d00b7ec:	02002025 	move	a0,s0
9d00b7f0:	02c02825 	move	a1,s6
9d00b7f4:	02203025 	move	a2,s1
9d00b7f8:	afa90048 	sw	t1,72(sp)
9d00b7fc:	0f4050cf 	jal	9d01433c <__lshrdi3>
9d00b800:	afae0040 	sw	t6,64(sp)
9d00b804:	00408025 	move	s0,v0
9d00b808:	0060b025 	move	s6,v1
9d00b80c:	8fae0040 	lw	t6,64(sp)
9d00b810:	8fa90048 	lw	t1,72(sp)
9d00b814:	8faf0050 	lw	t7,80(sp)
9d00b818:	8fa70054 	lw	a3,84(sp)
9d00b81c:	1000ff6e 	b	9d00b5d8 <fma+0x20c>
9d00b820:	8fb80058 	lw	t8,88(sp)
9d00b824:	03c68823 	subu	s1,s8,a2
9d00b828:	16200005 	bnez	s1,9d00b840 <fma+0x474>
9d00b82c:	8fa70010 	lw	a3,16(sp)
9d00b830:	8fb80014 	lw	t8,20(sp)
9d00b834:	00007825 	move	t7,zero
9d00b838:	1000ff67 	b	9d00b5d8 <fma+0x20c>
9d00b83c:	0000b825 	move	s7,zero
9d00b840:	2a220040 	slti	v0,s1,64
9d00b844:	1040001f 	beqz	v0,9d00b8c4 <fma+0x4f8>
9d00b848:	8faa0010 	lw	t2,16(sp)
9d00b84c:	8fab0014 	lw	t3,20(sp)
9d00b850:	24060040 	li	a2,64
9d00b854:	01402025 	move	a0,t2
9d00b858:	01602825 	move	a1,t3
9d00b85c:	00d13023 	subu	a2,a2,s1
9d00b860:	afae004c 	sw	t6,76(sp)
9d00b864:	afa90048 	sw	t1,72(sp)
9d00b868:	afaa0040 	sw	t2,64(sp)
9d00b86c:	0f4050de 	jal	9d014378 <__ashldi3>
9d00b870:	afab0044 	sw	t3,68(sp)
9d00b874:	8faa0040 	lw	t2,64(sp)
9d00b878:	8fab0044 	lw	t3,68(sp)
9d00b87c:	00431025 	or	v0,v0,v1
9d00b880:	02203025 	move	a2,s1
9d00b884:	01402025 	move	a0,t2
9d00b888:	01602825 	move	a1,t3
9d00b88c:	0f4050cf 	jal	9d01433c <__lshrdi3>
9d00b890:	0002a02b 	sltu	s4,zero,v0
9d00b894:	02823825 	or	a3,s4,v0
9d00b898:	0060c025 	move	t8,v1
9d00b89c:	00007825 	move	t7,zero
9d00b8a0:	0000b825 	move	s7,zero
9d00b8a4:	8fa90048 	lw	t1,72(sp)
9d00b8a8:	1000ff4b 	b	9d00b5d8 <fma+0x20c>
9d00b8ac:	8fae004c 	lw	t6,76(sp)
9d00b8b0:	24090001 	li	t1,1
9d00b8b4:	00007025 	move	t6,zero
9d00b8b8:	00008025 	move	s0,zero
9d00b8bc:	1000ff46 	b	9d00b5d8 <fma+0x20c>
9d00b8c0:	0000b025 	move	s6,zero
9d00b8c4:	24070001 	li	a3,1
9d00b8c8:	1000ffda 	b	9d00b834 <fma+0x468>
9d00b8cc:	0000c025 	move	t8,zero
9d00b8d0:	01275023 	subu	t2,t1,a3
9d00b8d4:	012a182b 	sltu	v1,t1,t2
9d00b8d8:	01d84023 	subu	t0,t6,t8
9d00b8dc:	0103a023 	subu	s4,t0,v1
9d00b8e0:	01d4102b 	sltu	v0,t6,s4
9d00b8e4:	0140a825 	move	s5,t2
9d00b8e8:	241f0001 	li	ra,1
9d00b8ec:	14400006 	bnez	v0,9d00b908 <fma+0x53c>
9d00b8f0:	00003025 	move	a2,zero
9d00b8f4:	568e0004 	bnel	s4,t6,9d00b908 <fma+0x53c>
9d00b8f8:	0000f825 	move	ra,zero
9d00b8fc:	14600003 	bnez	v1,9d00b90c <fma+0x540>
9d00b900:	020f1823 	subu	v1,s0,t7
9d00b904:	0000f825 	move	ra,zero
9d00b908:	020f1823 	subu	v1,s0,t7
9d00b90c:	0203c82b 	sltu	t9,s0,v1
9d00b910:	02d71023 	subu	v0,s6,s7
9d00b914:	00591023 	subu	v0,v0,t9
9d00b918:	007f5823 	subu	t3,v1,ra
9d00b91c:	006b182b 	sltu	v1,v1,t3
9d00b920:	00461023 	subu	v0,v0,a2
9d00b924:	0043c823 	subu	t9,v0,v1
9d00b928:	07210013 	bgez	t9,9d00b978 <fma+0x5ac>
9d00b92c:	00e95023 	subu	t2,a3,t1
9d00b930:	00ea382b 	sltu	a3,a3,t2
9d00b934:	030e4023 	subu	t0,t8,t6
9d00b938:	01f02023 	subu	a0,t7,s0
9d00b93c:	0107a023 	subu	s4,t0,a3
9d00b940:	01e4782b 	sltu	t7,t7,a0
9d00b944:	02f61023 	subu	v0,s7,s6
9d00b948:	01545825 	or	t3,t2,s4
9d00b94c:	009ff821 	addu	ra,a0,ra
9d00b950:	004f1023 	subu	v0,v0,t7
9d00b954:	000b582b 	sltu	t3,zero,t3
9d00b958:	03e4202b 	sltu	a0,ra,a0
9d00b95c:	00461021 	addu	v0,v0,a2
9d00b960:	03eb5823 	subu	t3,ra,t3
9d00b964:	00821021 	addu	v0,a0,v0
9d00b968:	03ebf82b 	sltu	ra,ra,t3
9d00b96c:	0140a825 	move	s5,t2
9d00b970:	005fc823 	subu	t9,v0,ra
9d00b974:	2e310001 	sltiu	s1,s1,1
9d00b978:	01791025 	or	v0,t3,t9
9d00b97c:	1440ff2f 	bnez	v0,9d00b63c <fma+0x270>
9d00b980:	02b41025 	or	v0,s5,s4
9d00b984:	1040feb6 	beqz	v0,9d00b460 <fma+0x94>
9d00b988:	02a02025 	move	a0,s5
9d00b98c:	0f404ede 	jal	9d013b78 <a_clz_64>
9d00b990:	02802825 	move	a1,s4
9d00b994:	2453ffff 	addiu	s3,v0,-1
9d00b998:	06610007 	bgez	s3,9d00b9b8 <fma+0x5ec>
9d00b99c:	001417c0 	sll	v0,s4,0x1f
9d00b9a0:	00158042 	srl	s0,s5,0x1
9d00b9a4:	00508025 	or	s0,v0,s0
9d00b9a8:	32aa0001 	andi	t2,s5,0x1
9d00b9ac:	020a8025 	or	s0,s0,t2
9d00b9b0:	1000ff3f 	b	9d00b6b0 <fma+0x2e4>
9d00b9b4:	00149042 	srl	s2,s4,0x1
9d00b9b8:	02603025 	move	a2,s3
9d00b9bc:	02a02025 	move	a0,s5
9d00b9c0:	0f4050de 	jal	9d014378 <__ashldi3>
9d00b9c4:	02802825 	move	a1,s4
9d00b9c8:	00408025 	move	s0,v0
9d00b9cc:	1000ff38 	b	9d00b6b0 <fma+0x2e4>
9d00b9d0:	00609025 	move	s2,v1
9d00b9d4:	3c029d00 	lui	v0,0x9d00
9d00b9d8:	8c547570 	lw	s4,30064(v0)
9d00b9dc:	1000ff48 	b	9d00b700 <fma+0x334>
9d00b9e0:	8c557574 	lw	s5,30068(v0)
9d00b9e4:	00101540 	sll	v0,s0,0x15
9d00b9e8:	10400039 	beqz	v0,9d00bad0 <fma+0x704>
9d00b9ec:	001217c0 	sll	v0,s2,0x1f
9d00b9f0:	00102042 	srl	a0,s0,0x1
9d00b9f4:	00442025 	or	a0,v0,a0
9d00b9f8:	00122842 	srl	a1,s2,0x1
9d00b9fc:	32100001 	andi	s0,s0,0x1
9d00ba00:	3c024000 	lui	v0,0x4000
9d00ba04:	00902025 	or	a0,a0,s0
9d00ba08:	12200005 	beqz	s1,9d00ba20 <fma+0x654>
9d00ba0c:	00452825 	or	a1,v0,a1
9d00ba10:	00042023 	negu	a0,a0
9d00ba14:	0004102b 	sltu	v0,zero,a0
9d00ba18:	00052823 	negu	a1,a1
9d00ba1c:	00a22823 	subu	a1,a1,v0
9d00ba20:	0f404e36 	jal	9d0138d8 <__floatdidf>
9d00ba24:	00000000 	nop
9d00ba28:	00403025 	move	a2,v0
9d00ba2c:	00603825 	move	a3,v1
9d00ba30:	00402025 	move	a0,v0
9d00ba34:	0f40382f 	jal	9d00e0bc <__adddf3>
9d00ba38:	00602825 	move	a1,v1
9d00ba3c:	00402025 	move	a0,v0
9d00ba40:	02803025 	move	a2,s4
9d00ba44:	02a03825 	move	a3,s5
9d00ba48:	0f40382d 	jal	9d00e0b4 <__subdf3>
9d00ba4c:	00602825 	move	a1,v1
9d00ba50:	00408025 	move	s0,v0
9d00ba54:	3c029d00 	lui	v0,0x9d00
9d00ba58:	8c467588 	lw	a2,30088(v0)
9d00ba5c:	8c47758c 	lw	a3,30092(v0)
9d00ba60:	02002025 	move	a0,s0
9d00ba64:	00602825 	move	a1,v1
9d00ba68:	0f403d0b 	jal	9d00f42c <__muldf3>
9d00ba6c:	00608825 	move	s1,v1
9d00ba70:	00403025 	move	a2,v0
9d00ba74:	00603825 	move	a3,v1
9d00ba78:	00402025 	move	a0,v0
9d00ba7c:	0f403d0b 	jal	9d00f42c <__muldf3>
9d00ba80:	00602825 	move	a1,v1
9d00ba84:	02003025 	move	a2,s0
9d00ba88:	02203825 	move	a3,s1
9d00ba8c:	02002025 	move	a0,s0
9d00ba90:	02202825 	move	a1,s1
9d00ba94:	00409025 	move	s2,v0
9d00ba98:	0f40382d 	jal	9d00e0b4 <__subdf3>
9d00ba9c:	00609825 	move	s3,v1
9d00baa0:	00403025 	move	a2,v0
9d00baa4:	00603825 	move	a3,v1
9d00baa8:	02402025 	move	a0,s2
9d00baac:	0f403d0b 	jal	9d00f42c <__muldf3>
9d00bab0:	02602825 	move	a1,s3
9d00bab4:	00402025 	move	a0,v0
9d00bab8:	02003025 	move	a2,s0
9d00babc:	02203825 	move	a3,s1
9d00bac0:	0f40382f 	jal	9d00e0bc <__adddf3>
9d00bac4:	00602825 	move	a1,v1
9d00bac8:	0040b025 	move	s6,v0
9d00bacc:	0060b825 	move	s7,v1
9d00bad0:	03c03025 	move	a2,s8
9d00bad4:	02c02025 	move	a0,s6
9d00bad8:	0f404858 	jal	9d012160 <scalbn>
9d00badc:	02e02825 	move	a1,s7
9d00bae0:	1000fe6a 	b	9d00b48c <fma+0xc0>
9d00bae4:	00409025 	move	s2,v0
9d00bae8:	00121580 	sll	v0,s2,0x16
9d00baec:	00108282 	srl	s0,s0,0xa
9d00baf0:	00508025 	or	s0,v0,s0
9d00baf4:	0004202b 	sltu	a0,zero,a0
9d00baf8:	00902025 	or	a0,a0,s0
9d00bafc:	02402825 	move	a1,s2
9d00bb00:	00041582 	srl	v0,a0,0x16
9d00bb04:	7c054804 	ins	a1,zero,0x0,0xa
9d00bb08:	00452825 	or	a1,v0,a1
9d00bb0c:	12200005 	beqz	s1,9d00bb24 <fma+0x758>
9d00bb10:	00042280 	sll	a0,a0,0xa
9d00bb14:	00042023 	negu	a0,a0
9d00bb18:	0004102b 	sltu	v0,zero,a0
9d00bb1c:	00052823 	negu	a1,a1
9d00bb20:	00a22823 	subu	a1,a1,v0
9d00bb24:	0f404e36 	jal	9d0138d8 <__floatdidf>
9d00bb28:	00000000 	nop
9d00bb2c:	1000ffe7 	b	9d00bacc <fma+0x700>
9d00bb30:	0040b025 	move	s6,v0

Disassembly of section .text.__scanf_core:

9d00bb34 <__scanf_core>:
9d00bb34:	27bdfe20 	addiu	sp,sp,-480
9d00bb38:	afb601d4 	sw	s6,468(sp)
9d00bb3c:	afb501d0 	sw	s5,464(sp)
9d00bb40:	afb201c4 	sw	s2,452(sp)
9d00bb44:	afb001bc 	sw	s0,444(sp)
9d00bb48:	afbf01dc 	sw	ra,476(sp)
9d00bb4c:	afb701d8 	sw	s7,472(sp)
9d00bb50:	afb401cc 	sw	s4,460(sp)
9d00bb54:	afb301c8 	sw	s3,456(sp)
9d00bb58:	afb101c0 	sw	s1,448(sp)
9d00bb5c:	00808025 	move	s0,a0
9d00bb60:	00c09025 	move	s2,a2
9d00bb64:	afa501b4 	sw	a1,436(sp)
9d00bb68:	afa001b0 	sw	zero,432(sp)
9d00bb6c:	0000a825 	move	s5,zero
9d00bb70:	27b6011c 	addiu	s6,sp,284
9d00bb74:	8fa201b4 	lw	v0,436(sp)
9d00bb78:	80420000 	lb	v0,0(v0)
9d00bb7c:	1040005a 	beqz	v0,9d00bce8 <__scanf_core+0x1b4>
9d00bb80:	24020080 	li	v0,128
9d00bb84:	27a501b4 	addiu	a1,sp,436
9d00bb88:	02002025 	move	a0,s0
9d00bb8c:	afa0019c 	sw	zero,412(sp)
9d00bb90:	afa001a0 	sw	zero,416(sp)
9d00bb94:	afa001a4 	sw	zero,420(sp)
9d00bb98:	afb601a8 	sw	s6,424(sp)
9d00bb9c:	0f404e6f 	jal	9d0139bc <__consumews>
9d00bba0:	afa201ac 	sw	v0,428(sp)
9d00bba4:	00408825 	move	s1,v0
9d00bba8:	8fa301b4 	lw	v1,436(sp)
9d00bbac:	80620000 	lb	v0,0(v1)
9d00bbb0:	10400003 	beqz	v0,9d00bbc0 <__scanf_core+0x8c>
9d00bbb4:	24040025 	li	a0,37
9d00bbb8:	5444003b 	bnel	v0,a0,9d00bca8 <__scanf_core+0x174>
9d00bbbc:	8e02003c 	lw	v0,60(s0)
9d00bbc0:	8fa201b0 	lw	v0,432(sp)
9d00bbc4:	00511021 	addu	v0,v0,s1
9d00bbc8:	afa201b0 	sw	v0,432(sp)
9d00bbcc:	80640000 	lb	a0,0(v1)
9d00bbd0:	24020025 	li	v0,37
9d00bbd4:	1482002d 	bne	a0,v0,9d00bc8c <__scanf_core+0x158>
9d00bbd8:	24620001 	addiu	v0,v1,1
9d00bbdc:	afa201b4 	sw	v0,436(sp)
9d00bbe0:	afa001a4 	sw	zero,420(sp)
9d00bbe4:	80640001 	lb	a0,1(v1)
9d00bbe8:	2402002a 	li	v0,42
9d00bbec:	14820004 	bne	a0,v0,9d00bc00 <__scanf_core+0xcc>
9d00bbf0:	00008825 	move	s1,zero
9d00bbf4:	24630002 	addiu	v1,v1,2
9d00bbf8:	afa301b4 	sw	v1,436(sp)
9d00bbfc:	24110001 	li	s1,1
9d00bc00:	0f404dda 	jal	9d013768 <atoi>
9d00bc04:	8fa401b4 	lw	a0,436(sp)
9d00bc08:	00402825 	move	a1,v0
9d00bc0c:	02002025 	move	a0,s0
9d00bc10:	0f40517e 	jal	9d0145f8 <__shlim>
9d00bc14:	afa201a4 	sw	v0,420(sp)
9d00bc18:	8fa301b4 	lw	v1,436(sp)
9d00bc1c:	80620000 	lb	v0,0(v1)
9d00bc20:	2442ffd0 	addiu	v0,v0,-48
9d00bc24:	2c42000a 	sltiu	v0,v0,10
9d00bc28:	1440004b 	bnez	v0,9d00bd58 <__scanf_core+0x224>
9d00bc2c:	24630001 	addiu	v1,v1,1
9d00bc30:	0f404f59 	jal	9d013d64 <__fmt_state>
9d00bc34:	27a401b4 	addiu	a0,sp,436
9d00bc38:	0040a025 	move	s4,v0
9d00bc3c:	8fa201b4 	lw	v0,436(sp)
9d00bc40:	0f40525e 	jal	9d014978 <tolower>
9d00bc44:	80440000 	lb	a0,0(v0)
9d00bc48:	28430068 	slti	v1,v0,104
9d00bc4c:	1060005f 	beqz	v1,9d00bdcc <__scanf_core+0x298>
9d00bc50:	28430065 	slti	v1,v0,101
9d00bc54:	106000bd 	beqz	v1,9d00bf4c <__scanf_core+0x418>
9d00bc58:	24030061 	li	v1,97
9d00bc5c:	104300bb 	beq	v0,v1,9d00bf4c <__scanf_core+0x418>
9d00bc60:	28430062 	slti	v1,v0,98
9d00bc64:	1060003e 	beqz	v1,9d00bd60 <__scanf_core+0x22c>
9d00bc68:	24040025 	li	a0,37
9d00bc6c:	104400e0 	beq	v0,a0,9d00bff0 <__scanf_core+0x4bc>
9d00bc70:	8fa301b4 	lw	v1,436(sp)
9d00bc74:	2404005b 	li	a0,91
9d00bc78:	104400fc 	beq	v0,a0,9d00c06c <__scanf_core+0x538>
9d00bc7c:	24020080 	li	v0,128
9d00bc80:	8fa201b4 	lw	v0,436(sp)
9d00bc84:	24420001 	addiu	v0,v0,1
9d00bc88:	afa201b4 	sw	v0,436(sp)
9d00bc8c:	2402ffff 	li	v0,-1
9d00bc90:	166200ac 	bne	s3,v0,9d00bf44 <__scanf_core+0x410>
9d00bc94:	00008825 	move	s1,zero
9d00bc98:	52a00013 	beqzl	s5,9d00bce8 <__scanf_core+0x1b4>
9d00bc9c:	2415ffff 	li	s5,-1
9d00bca0:	10000012 	b	9d00bcec <__scanf_core+0x1b8>
9d00bca4:	8fbf01dc 	lw	ra,476(sp)
9d00bca8:	8e03004c 	lw	v1,76(s0)
9d00bcac:	0043182b 	sltu	v1,v0,v1
9d00bcb0:	10600019 	beqz	v1,9d00bd18 <__scanf_core+0x1e4>
9d00bcb4:	24430001 	addiu	v1,v0,1
9d00bcb8:	ae03003c 	sw	v1,60(s0)
9d00bcbc:	90530000 	lbu	s3,0(v0)
9d00bcc0:	8fa201b4 	lw	v0,436(sp)
9d00bcc4:	80420000 	lb	v0,0(v0)
9d00bcc8:	10530019 	beq	v0,s3,9d00bd30 <__scanf_core+0x1fc>
9d00bccc:	8fa201b0 	lw	v0,432(sp)
9d00bcd0:	8e02004c 	lw	v0,76(s0)
9d00bcd4:	10400005 	beqz	v0,9d00bcec <__scanf_core+0x1b8>
9d00bcd8:	8fbf01dc 	lw	ra,476(sp)
9d00bcdc:	8e02003c 	lw	v0,60(s0)
9d00bce0:	2442ffff 	addiu	v0,v0,-1
9d00bce4:	ae02003c 	sw	v0,60(s0)
9d00bce8:	8fbf01dc 	lw	ra,476(sp)
9d00bcec:	02a01025 	move	v0,s5
9d00bcf0:	8fb701d8 	lw	s7,472(sp)
9d00bcf4:	8fb601d4 	lw	s6,468(sp)
9d00bcf8:	8fb501d0 	lw	s5,464(sp)
9d00bcfc:	8fb401cc 	lw	s4,460(sp)
9d00bd00:	8fb301c8 	lw	s3,456(sp)
9d00bd04:	8fb201c4 	lw	s2,452(sp)
9d00bd08:	8fb101c0 	lw	s1,448(sp)
9d00bd0c:	8fb001bc 	lw	s0,444(sp)
9d00bd10:	03e00008 	jr	ra
9d00bd14:	27bd01e0 	addiu	sp,sp,480
9d00bd18:	0f404a27 	jal	9d01289c <__shgetc>
9d00bd1c:	02002025 	move	a0,s0
9d00bd20:	00409825 	move	s3,v0
9d00bd24:	2402ffff 	li	v0,-1
9d00bd28:	1662ffe5 	bne	s3,v0,9d00bcc0 <__scanf_core+0x18c>
9d00bd2c:	8fa201b0 	lw	v0,432(sp)
9d00bd30:	27a501b4 	addiu	a1,sp,436
9d00bd34:	02002025 	move	a0,s0
9d00bd38:	24420001 	addiu	v0,v0,1
9d00bd3c:	afa201b0 	sw	v0,432(sp)
9d00bd40:	8fa201b4 	lw	v0,436(sp)
9d00bd44:	24420001 	addiu	v0,v0,1
9d00bd48:	0f404e6f 	jal	9d0139bc <__consumews>
9d00bd4c:	afa201b4 	sw	v0,436(sp)
9d00bd50:	1000ff95 	b	9d00bba8 <__scanf_core+0x74>
9d00bd54:	02228821 	addu	s1,s1,v0
9d00bd58:	1000ffaf 	b	9d00bc18 <__scanf_core+0xe4>
9d00bd5c:	afa301b4 	sw	v1,436(sp)
9d00bd60:	24030063 	li	v1,99
9d00bd64:	1043008a 	beq	v0,v1,9d00bf90 <__scanf_core+0x45c>
9d00bd68:	24030064 	li	v1,100
9d00bd6c:	1443ffc4 	bne	v0,v1,9d00bc80 <__scanf_core+0x14c>
9d00bd70:	27a701b0 	addiu	a3,sp,432
9d00bd74:	27a6019c 	addiu	a2,sp,412
9d00bd78:	27a50018 	addiu	a1,sp,24
9d00bd7c:	0f404e53 	jal	9d01394c <__scan_d>
9d00bd80:	02002025 	move	a0,s0
9d00bd84:	0442000c 	bltzl	v0,9d00bdb8 <__scanf_core+0x284>
9d00bd88:	00408825 	move	s1,v0
9d00bd8c:	8fa201b4 	lw	v0,436(sp)
9d00bd90:	24420001 	addiu	v0,v0,1
9d00bd94:	162000a8 	bnez	s1,9d00c038 <__scanf_core+0x504>
9d00bd98:	afa201b4 	sw	v0,436(sp)
9d00bd9c:	02403825 	move	a3,s2
9d00bda0:	24060001 	li	a2,1
9d00bda4:	02802825 	move	a1,s4
9d00bda8:	0f404392 	jal	9d010e48 <__push_int>
9d00bdac:	27a40018 	addiu	a0,sp,24
9d00bdb0:	04410064 	bgez	v0,9d00bf44 <__scanf_core+0x410>
9d00bdb4:	00408825 	move	s1,v0
9d00bdb8:	2402ffff 	li	v0,-1
9d00bdbc:	1222ffb6 	beq	s1,v0,9d00bc98 <__scanf_core+0x164>
9d00bdc0:	8fbf01dc 	lw	ra,476(sp)
9d00bdc4:	1000ffca 	b	9d00bcf0 <__scanf_core+0x1bc>
9d00bdc8:	02a01025 	move	v0,s5
9d00bdcc:	24030070 	li	v1,112
9d00bdd0:	10430040 	beq	v0,v1,9d00bed4 <__scanf_core+0x3a0>
9d00bdd4:	28430071 	slti	v1,v0,113
9d00bdd8:	1060000d 	beqz	v1,9d00be10 <__scanf_core+0x2dc>
9d00bddc:	2403006e 	li	v1,110
9d00bde0:	1043004b 	beq	v0,v1,9d00bf10 <__scanf_core+0x3dc>
9d00bde4:	2843006f 	slti	v1,v0,111
9d00bde8:	1060002c 	beqz	v1,9d00be9c <__scanf_core+0x368>
9d00bdec:	24030069 	li	v1,105
9d00bdf0:	1443ffa3 	bne	v0,v1,9d00bc80 <__scanf_core+0x14c>
9d00bdf4:	27a701b0 	addiu	a3,sp,432
9d00bdf8:	27a6019c 	addiu	a2,sp,412
9d00bdfc:	27a50018 	addiu	a1,sp,24
9d00be00:	0f403e89 	jal	9d00fa24 <__scan_i>
9d00be04:	02002025 	move	a0,s0
9d00be08:	1000ffde 	b	9d00bd84 <__scanf_core+0x250>
9d00be0c:	00000000 	nop
9d00be10:	24030075 	li	v1,117
9d00be14:	10430013 	beq	v0,v1,9d00be64 <__scanf_core+0x330>
9d00be18:	24030078 	li	v1,120
9d00be1c:	10430026 	beq	v0,v1,9d00beb8 <__scanf_core+0x384>
9d00be20:	24030073 	li	v1,115
9d00be24:	1443ff96 	bne	v0,v1,9d00bc80 <__scanf_core+0x14c>
9d00be28:	24020080 	li	v0,128
9d00be2c:	1682ff94 	bne	s4,v0,9d00bc80 <__scanf_core+0x14c>
9d00be30:	8fa201b4 	lw	v0,436(sp)
9d00be34:	24420001 	addiu	v0,v0,1
9d00be38:	afa201b4 	sw	v0,436(sp)
9d00be3c:	16200005 	bnez	s1,9d00be54 <__scanf_core+0x320>
9d00be40:	00001025 	move	v0,zero
9d00be44:	8e420000 	lw	v0,0(s2)
9d00be48:	24430004 	addiu	v1,v0,4
9d00be4c:	ae430000 	sw	v1,0(s2)
9d00be50:	8c420000 	lw	v0,0(v0)
9d00be54:	afa20010 	sw	v0,16(sp)
9d00be58:	27a701b0 	addiu	a3,sp,432
9d00be5c:	1000005f 	b	9d00bfdc <__scanf_core+0x4a8>
9d00be60:	24060001 	li	a2,1
9d00be64:	27a701b0 	addiu	a3,sp,432
9d00be68:	27a6019c 	addiu	a2,sp,412
9d00be6c:	27a50018 	addiu	a1,sp,24
9d00be70:	0f4052ea 	jal	9d014ba8 <__scan_a>
9d00be74:	02002025 	move	a0,s0
9d00be78:	0442ffcf 	bltzl	v0,9d00bdb8 <__scanf_core+0x284>
9d00be7c:	00408825 	move	s1,v0
9d00be80:	8fa201b4 	lw	v0,436(sp)
9d00be84:	24420001 	addiu	v0,v0,1
9d00be88:	1620006b 	bnez	s1,9d00c038 <__scanf_core+0x504>
9d00be8c:	afa201b4 	sw	v0,436(sp)
9d00be90:	02403825 	move	a3,s2
9d00be94:	1000ffc3 	b	9d00bda4 <__scanf_core+0x270>
9d00be98:	00003025 	move	a2,zero
9d00be9c:	27a701b0 	addiu	a3,sp,432
9d00bea0:	27a6019c 	addiu	a2,sp,412
9d00bea4:	27a50018 	addiu	a1,sp,24
9d00bea8:	0f4052ea 	jal	9d014ba8 <__scan_a>
9d00beac:	02002025 	move	a0,s0
9d00beb0:	1000fff1 	b	9d00be78 <__scanf_core+0x344>
9d00beb4:	00000000 	nop
9d00beb8:	27a701b0 	addiu	a3,sp,432
9d00bebc:	27a6019c 	addiu	a2,sp,412
9d00bec0:	27a50018 	addiu	a1,sp,24
9d00bec4:	0f4052ea 	jal	9d014ba8 <__scan_a>
9d00bec8:	02002025 	move	a0,s0
9d00becc:	1000ffea 	b	9d00be78 <__scanf_core+0x344>
9d00bed0:	00000000 	nop
9d00bed4:	27a701b0 	addiu	a3,sp,432
9d00bed8:	27a6019c 	addiu	a2,sp,412
9d00bedc:	27a50018 	addiu	a1,sp,24
9d00bee0:	0f4052ea 	jal	9d014ba8 <__scan_a>
9d00bee4:	02002025 	move	a0,s0
9d00bee8:	0442ffb3 	bltzl	v0,9d00bdb8 <__scanf_core+0x284>
9d00beec:	00408825 	move	s1,v0
9d00bef0:	8fa201b4 	lw	v0,436(sp)
9d00bef4:	24420001 	addiu	v0,v0,1
9d00bef8:	1620004f 	bnez	s1,9d00c038 <__scanf_core+0x504>
9d00befc:	afa201b4 	sw	v0,436(sp)
9d00bf00:	02403825 	move	a3,s2
9d00bf04:	00003025 	move	a2,zero
9d00bf08:	1000ffa7 	b	9d00bda8 <__scanf_core+0x274>
9d00bf0c:	240500f0 	li	a1,240
9d00bf10:	8fa201b4 	lw	v0,436(sp)
9d00bf14:	24420001 	addiu	v0,v0,1
9d00bf18:	afa201b4 	sw	v0,436(sp)
9d00bf1c:	8fa201b0 	lw	v0,432(sp)
9d00bf20:	afa20018 	sw	v0,24(sp)
9d00bf24:	000217c3 	sra	v0,v0,0x1f
9d00bf28:	16200043 	bnez	s1,9d00c038 <__scanf_core+0x504>
9d00bf2c:	afa2001c 	sw	v0,28(sp)
9d00bf30:	02403825 	move	a3,s2
9d00bf34:	00003025 	move	a2,zero
9d00bf38:	02802825 	move	a1,s4
9d00bf3c:	0f404392 	jal	9d010e48 <__push_int>
9d00bf40:	27a40018 	addiu	a0,sp,24
9d00bf44:	1000ff0b 	b	9d00bb74 <__scanf_core+0x40>
9d00bf48:	02b1a821 	addu	s5,s5,s1
9d00bf4c:	27a701b0 	addiu	a3,sp,432
9d00bf50:	27a6019c 	addiu	a2,sp,412
9d00bf54:	27a50018 	addiu	a1,sp,24
9d00bf58:	0f403939 	jal	9d00e4e4 <__scan_fp>
9d00bf5c:	02002025 	move	a0,s0
9d00bf60:	0442ff95 	bltzl	v0,9d00bdb8 <__scanf_core+0x284>
9d00bf64:	00408825 	move	s1,v0
9d00bf68:	8fa201b4 	lw	v0,436(sp)
9d00bf6c:	24420001 	addiu	v0,v0,1
9d00bf70:	16200031 	bnez	s1,9d00c038 <__scanf_core+0x504>
9d00bf74:	afa201b4 	sw	v0,436(sp)
9d00bf78:	02403025 	move	a2,s2
9d00bf7c:	02802825 	move	a1,s4
9d00bf80:	0f404ad7 	jal	9d012b5c <__push_float>
9d00bf84:	27a40018 	addiu	a0,sp,24
9d00bf88:	1000ff89 	b	9d00bdb0 <__scanf_core+0x27c>
9d00bf8c:	00000000 	nop
9d00bf90:	24020080 	li	v0,128
9d00bf94:	1682ff3a 	bne	s4,v0,9d00bc80 <__scanf_core+0x14c>
9d00bf98:	8fa201a4 	lw	v0,420(sp)
9d00bf9c:	54400004 	bnezl	v0,9d00bfb0 <__scanf_core+0x47c>
9d00bfa0:	8fa201b4 	lw	v0,436(sp)
9d00bfa4:	24020001 	li	v0,1
9d00bfa8:	afa201a4 	sw	v0,420(sp)
9d00bfac:	8fa201b4 	lw	v0,436(sp)
9d00bfb0:	24420001 	addiu	v0,v0,1
9d00bfb4:	afa201b4 	sw	v0,436(sp)
9d00bfb8:	16200005 	bnez	s1,9d00bfd0 <__scanf_core+0x49c>
9d00bfbc:	00001025 	move	v0,zero
9d00bfc0:	8e420000 	lw	v0,0(s2)
9d00bfc4:	24430004 	addiu	v1,v0,4
9d00bfc8:	ae430000 	sw	v1,0(s2)
9d00bfcc:	8c420000 	lw	v0,0(v0)
9d00bfd0:	afa20010 	sw	v0,16(sp)
9d00bfd4:	27a701b0 	addiu	a3,sp,432
9d00bfd8:	00003025 	move	a2,zero
9d00bfdc:	27a5019c 	addiu	a1,sp,412
9d00bfe0:	0f4052ec 	jal	9d014bb0 <__scan_s>
9d00bfe4:	02002025 	move	a0,s0
9d00bfe8:	1000ff71 	b	9d00bdb0 <__scanf_core+0x27c>
9d00bfec:	00000000 	nop
9d00bff0:	24020080 	li	v0,128
9d00bff4:	1682ff23 	bne	s4,v0,9d00bc84 <__scanf_core+0x150>
9d00bff8:	8fa201b4 	lw	v0,436(sp)
9d00bffc:	24630001 	addiu	v1,v1,1
9d00c000:	afa301b4 	sw	v1,436(sp)
9d00c004:	8e02003c 	lw	v0,60(s0)
9d00c008:	8e03004c 	lw	v1,76(s0)
9d00c00c:	0043182b 	sltu	v1,v0,v1
9d00c010:	1060000b 	beqz	v1,9d00c040 <__scanf_core+0x50c>
9d00c014:	00000000 	nop
9d00c018:	24430001 	addiu	v1,v0,1
9d00c01c:	ae03003c 	sw	v1,60(s0)
9d00c020:	90420000 	lbu	v0,0(v0)
9d00c024:	24030025 	li	v1,37
9d00c028:	14430009 	bne	v0,v1,9d00c050 <__scanf_core+0x51c>
9d00c02c:	8fa201b0 	lw	v0,432(sp)
9d00c030:	24420001 	addiu	v0,v0,1
9d00c034:	afa201b0 	sw	v0,432(sp)
9d00c038:	1000ffc2 	b	9d00bf44 <__scanf_core+0x410>
9d00c03c:	00008825 	move	s1,zero
9d00c040:	0f404a27 	jal	9d01289c <__shgetc>
9d00c044:	02002025 	move	a0,s0
9d00c048:	1000fff7 	b	9d00c028 <__scanf_core+0x4f4>
9d00c04c:	24030025 	li	v1,37
9d00c050:	8e02004c 	lw	v0,76(s0)
9d00c054:	5040ffbb 	beqzl	v0,9d00bf44 <__scanf_core+0x410>
9d00c058:	00008825 	move	s1,zero
9d00c05c:	8e02003c 	lw	v0,60(s0)
9d00c060:	2442ffff 	addiu	v0,v0,-1
9d00c064:	1000fff4 	b	9d00c038 <__scanf_core+0x504>
9d00c068:	ae02003c 	sw	v0,60(s0)
9d00c06c:	1682ff05 	bne	s4,v0,9d00bc84 <__scanf_core+0x150>
9d00c070:	8fa201b4 	lw	v0,436(sp)
9d00c074:	16200005 	bnez	s1,9d00c08c <__scanf_core+0x558>
9d00c078:	0000a025 	move	s4,zero
9d00c07c:	8e420000 	lw	v0,0(s2)
9d00c080:	24440004 	addiu	a0,v0,4
9d00c084:	ae440000 	sw	a0,0(s2)
9d00c088:	8c540000 	lw	s4,0(v0)
9d00c08c:	24620001 	addiu	v0,v1,1
9d00c090:	afa201b4 	sw	v0,436(sp)
9d00c094:	80640001 	lb	a0,1(v1)
9d00c098:	2402005e 	li	v0,94
9d00c09c:	14820004 	bne	a0,v0,9d00c0b0 <__scanf_core+0x57c>
9d00c0a0:	00008825 	move	s1,zero
9d00c0a4:	24630002 	addiu	v1,v1,2
9d00c0a8:	afa301b4 	sw	v1,436(sp)
9d00c0ac:	24110001 	li	s1,1
9d00c0b0:	27a40018 	addiu	a0,sp,24
9d00c0b4:	24060101 	li	a2,257
9d00c0b8:	0f4051f2 	jal	9d0147c8 <memset>
9d00c0bc:	02202825 	move	a1,s1
9d00c0c0:	8fa201b4 	lw	v0,436(sp)
9d00c0c4:	a3a00018 	sb	zero,24(sp)
9d00c0c8:	2404002d 	li	a0,45
9d00c0cc:	80430000 	lb	v1,0(v0)
9d00c0d0:	1464001e 	bne	v1,a0,9d00c14c <__scanf_core+0x618>
9d00c0d4:	2404005d 	li	a0,93
9d00c0d8:	24420001 	addiu	v0,v0,1
9d00c0dc:	afa201b4 	sw	v0,436(sp)
9d00c0e0:	24020001 	li	v0,1
9d00c0e4:	00511023 	subu	v0,v0,s1
9d00c0e8:	a3a20046 	sb	v0,70(sp)
9d00c0ec:	24020001 	li	v0,1
9d00c0f0:	2405005d 	li	a1,93
9d00c0f4:	2406002d 	li	a2,45
9d00c0f8:	00518823 	subu	s1,v0,s1
9d00c0fc:	8fa301b4 	lw	v1,436(sp)
9d00c100:	80620000 	lb	v0,0(v1)
9d00c104:	14450018 	bne	v0,a1,9d00c168 <__scanf_core+0x634>
9d00c108:	00000000 	nop
9d00c10c:	56800037 	bnezl	s4,9d00c1ec <__scanf_core+0x6b8>
9d00c110:	00008825 	move	s1,zero
9d00c114:	8e02003c 	lw	v0,60(s0)
9d00c118:	8e03004c 	lw	v1,76(s0)
9d00c11c:	0043182b 	sltu	v1,v0,v1
9d00c120:	10600056 	beqz	v1,9d00c27c <__scanf_core+0x748>
9d00c124:	24430001 	addiu	v1,v0,1
9d00c128:	ae03003c 	sw	v1,60(s0)
9d00c12c:	90530000 	lbu	s3,0(v0)
9d00c130:	27a20018 	addiu	v0,sp,24
9d00c134:	00531021 	addu	v0,v0,s3
9d00c138:	90420001 	lbu	v0,1(v0)
9d00c13c:	1440004b 	bnez	v0,9d00c26c <__scanf_core+0x738>
9d00c140:	0000b825 	move	s7,zero
9d00c144:	10000037 	b	9d00c224 <__scanf_core+0x6f0>
9d00c148:	8e02004c 	lw	v0,76(s0)
9d00c14c:	1464ffe7 	bne	v1,a0,9d00c0ec <__scanf_core+0x5b8>
9d00c150:	24420001 	addiu	v0,v0,1
9d00c154:	afa201b4 	sw	v0,436(sp)
9d00c158:	24020001 	li	v0,1
9d00c15c:	00511023 	subu	v0,v0,s1
9d00c160:	1000ffe2 	b	9d00c0ec <__scanf_core+0x5b8>
9d00c164:	a3a20076 	sb	v0,118(sp)
9d00c168:	1040ffe8 	beqz	v0,9d00c10c <__scanf_core+0x5d8>
9d00c16c:	00000000 	nop
9d00c170:	10460009 	beq	v0,a2,9d00c198 <__scanf_core+0x664>
9d00c174:	8fa201b8 	lw	v0,440(sp)
9d00c178:	8fa201b4 	lw	v0,436(sp)
9d00c17c:	27a40018 	addiu	a0,sp,24
9d00c180:	80430000 	lb	v1,0(v0)
9d00c184:	24420001 	addiu	v0,v0,1
9d00c188:	afa201b4 	sw	v0,436(sp)
9d00c18c:	00831821 	addu	v1,a0,v1
9d00c190:	1000ffda 	b	9d00c0fc <__scanf_core+0x5c8>
9d00c194:	a0710001 	sb	s1,1(v1)
9d00c198:	80420000 	lb	v0,0(v0)
9d00c19c:	5040fff7 	beqzl	v0,9d00c17c <__scanf_core+0x648>
9d00c1a0:	8fa201b4 	lw	v0,436(sp)
9d00c1a4:	1045fff4 	beq	v0,a1,9d00c178 <__scanf_core+0x644>
9d00c1a8:	24620001 	addiu	v0,v1,1
9d00c1ac:	afa201b4 	sw	v0,436(sp)
9d00c1b0:	8fa201b0 	lw	v0,432(sp)
9d00c1b4:	80420000 	lb	v0,0(v0)
9d00c1b8:	80640001 	lb	a0,1(v1)
9d00c1bc:	0044202a 	slt	a0,v0,a0
9d00c1c0:	1080ffed 	beqz	a0,9d00c178 <__scanf_core+0x644>
9d00c1c4:	24420001 	addiu	v0,v0,1
9d00c1c8:	27a40018 	addiu	a0,sp,24
9d00c1cc:	00822021 	addu	a0,a0,v0
9d00c1d0:	1000fff9 	b	9d00c1b8 <__scanf_core+0x684>
9d00c1d4:	a0910000 	sb	s1,0(a0)
9d00c1d8:	a0530000 	sb	s3,0(v0)
9d00c1dc:	8fa201b0 	lw	v0,432(sp)
9d00c1e0:	26310001 	addiu	s1,s1,1
9d00c1e4:	24420001 	addiu	v0,v0,1
9d00c1e8:	afa201b0 	sw	v0,432(sp)
9d00c1ec:	8e02003c 	lw	v0,60(s0)
9d00c1f0:	8e03004c 	lw	v1,76(s0)
9d00c1f4:	0043182b 	sltu	v1,v0,v1
9d00c1f8:	10600018 	beqz	v1,9d00c25c <__scanf_core+0x728>
9d00c1fc:	0220b825 	move	s7,s1
9d00c200:	24430001 	addiu	v1,v0,1
9d00c204:	ae03003c 	sw	v1,60(s0)
9d00c208:	90530000 	lbu	s3,0(v0)
9d00c20c:	27a20018 	addiu	v0,sp,24
9d00c210:	00531021 	addu	v0,v0,s3
9d00c214:	90420001 	lbu	v0,1(v0)
9d00c218:	1440ffef 	bnez	v0,9d00c1d8 <__scanf_core+0x6a4>
9d00c21c:	02911021 	addu	v0,s4,s1
9d00c220:	8e02004c 	lw	v0,76(s0)
9d00c224:	10400005 	beqz	v0,9d00c23c <__scanf_core+0x708>
9d00c228:	8fa201b4 	lw	v0,436(sp)
9d00c22c:	8e02003c 	lw	v0,60(s0)
9d00c230:	2442ffff 	addiu	v0,v0,-1
9d00c234:	ae02003c 	sw	v0,60(s0)
9d00c238:	8fa201b4 	lw	v0,436(sp)
9d00c23c:	24420001 	addiu	v0,v0,1
9d00c240:	12e0fe8f 	beqz	s7,9d00bc80 <__scanf_core+0x14c>
9d00c244:	afa201b4 	sw	v0,436(sp)
9d00c248:	1280fe8d 	beqz	s4,9d00bc80 <__scanf_core+0x14c>
9d00c24c:	24110001 	li	s1,1
9d00c250:	0297a021 	addu	s4,s4,s7
9d00c254:	1000ff3b 	b	9d00bf44 <__scanf_core+0x410>
9d00c258:	a2800000 	sb	zero,0(s4)
9d00c25c:	0f404a27 	jal	9d01289c <__shgetc>
9d00c260:	02002025 	move	a0,s0
9d00c264:	1000ffe9 	b	9d00c20c <__scanf_core+0x6d8>
9d00c268:	00409825 	move	s3,v0
9d00c26c:	8fa201b0 	lw	v0,432(sp)
9d00c270:	24420001 	addiu	v0,v0,1
9d00c274:	1000ffa7 	b	9d00c114 <__scanf_core+0x5e0>
9d00c278:	afa201b0 	sw	v0,432(sp)
9d00c27c:	0f404a27 	jal	9d01289c <__shgetc>
9d00c280:	02002025 	move	a0,s0
9d00c284:	1000ffaa 	b	9d00c130 <__scanf_core+0x5fc>
9d00c288:	00409825 	move	s3,v0

Disassembly of section .text.__intscan:

9d00c28c <__intscan>:
9d00c28c:	27bdffb8 	addiu	sp,sp,-72
9d00c290:	8fa2005c 	lw	v0,92(sp)
9d00c294:	afb20028 	sw	s2,40(sp)
9d00c298:	afbf0044 	sw	ra,68(sp)
9d00c29c:	afa20010 	sw	v0,16(sp)
9d00c2a0:	2ca20025 	sltiu	v0,a1,37
9d00c2a4:	afbe0040 	sw	s8,64(sp)
9d00c2a8:	afb7003c 	sw	s7,60(sp)
9d00c2ac:	afb60038 	sw	s6,56(sp)
9d00c2b0:	afb50034 	sw	s5,52(sp)
9d00c2b4:	afb40030 	sw	s4,48(sp)
9d00c2b8:	afb3002c 	sw	s3,44(sp)
9d00c2bc:	afb10024 	sw	s1,36(sp)
9d00c2c0:	afb00020 	sw	s0,32(sp)
9d00c2c4:	10400006 	beqz	v0,9d00c2e0 <__intscan+0x54>
9d00c2c8:	8fb20058 	lw	s2,88(sp)
9d00c2cc:	24020001 	li	v0,1
9d00c2d0:	00808025 	move	s0,a0
9d00c2d4:	00a08825 	move	s1,a1
9d00c2d8:	14a20005 	bne	a1,v0,9d00c2f0 <__intscan+0x64>
9d00c2dc:	00c09825 	move	s3,a2
9d00c2e0:	3c02a000 	lui	v0,0xa000
9d00c2e4:	24030016 	li	v1,22
9d00c2e8:	1000005a 	b	9d00c454 <__intscan+0x1c8>
9d00c2ec:	ac432404 	sw	v1,9220(v0)
9d00c2f0:	8e02003c 	lw	v0,60(s0)
9d00c2f4:	8e03004c 	lw	v1,76(s0)
9d00c2f8:	0043182b 	sltu	v1,v0,v1
9d00c2fc:	1060002b 	beqz	v1,9d00c3ac <__intscan+0x120>
9d00c300:	24430001 	addiu	v1,v0,1
9d00c304:	ae03003c 	sw	v1,60(s0)
9d00c308:	90490000 	lbu	t1,0(v0)
9d00c30c:	24020020 	li	v0,32
9d00c310:	1122fff7 	beq	t1,v0,9d00c2f0 <__intscan+0x64>
9d00c314:	2522fff7 	addiu	v0,t1,-9
9d00c318:	2c420005 	sltiu	v0,v0,5
9d00c31c:	1440fff4 	bnez	v0,9d00c2f0 <__intscan+0x64>
9d00c320:	2522ffd5 	addiu	v0,t1,-43
9d00c324:	7c020844 	ins	v0,zero,0x1,0x1
9d00c328:	1440000b 	bnez	v0,9d00c358 <__intscan+0xcc>
9d00c32c:	0000a025 	move	s4,zero
9d00c330:	8e02003c 	lw	v0,60(s0)
9d00c334:	8e03004c 	lw	v1,76(s0)
9d00c338:	3934002d 	xori	s4,t1,0x2d
9d00c33c:	2e940001 	sltiu	s4,s4,1
9d00c340:	0043182b 	sltu	v1,v0,v1
9d00c344:	1060001d 	beqz	v1,9d00c3bc <__intscan+0x130>
9d00c348:	0014a023 	negu	s4,s4
9d00c34c:	24430001 	addiu	v1,v0,1
9d00c350:	ae03003c 	sw	v1,60(s0)
9d00c354:	90490000 	lbu	t1,0(v0)
9d00c358:	1220001c 	beqz	s1,9d00c3cc <__intscan+0x140>
9d00c35c:	8e03004c 	lw	v1,76(s0)
9d00c360:	24020010 	li	v0,16
9d00c364:	12220185 	beq	s1,v0,9d00c97c <__intscan+0x6f0>
9d00c368:	24020030 	li	v0,48
9d00c36c:	3c029d01 	lui	v0,0x9d01
9d00c370:	24421d55 	addiu	v0,v0,7509
9d00c374:	01221021 	addu	v0,t1,v0
9d00c378:	90420000 	lbu	v0,0(v0)
9d00c37c:	0051102b 	sltu	v0,v0,s1
9d00c380:	14400055 	bnez	v0,9d00c4d8 <__intscan+0x24c>
9d00c384:	2402000a 	li	v0,10
9d00c388:	10600004 	beqz	v1,9d00c39c <__intscan+0x110>
9d00c38c:	00002825 	move	a1,zero
9d00c390:	8e02003c 	lw	v0,60(s0)
9d00c394:	2442ffff 	addiu	v0,v0,-1
9d00c398:	ae02003c 	sw	v0,60(s0)
9d00c39c:	0f40517e 	jal	9d0145f8 <__shlim>
9d00c3a0:	02002025 	move	a0,s0
9d00c3a4:	1000ffcf 	b	9d00c2e4 <__intscan+0x58>
9d00c3a8:	3c02a000 	lui	v0,0xa000
9d00c3ac:	0f404a27 	jal	9d01289c <__shgetc>
9d00c3b0:	02002025 	move	a0,s0
9d00c3b4:	1000ffd5 	b	9d00c30c <__intscan+0x80>
9d00c3b8:	00404825 	move	t1,v0
9d00c3bc:	0f404a27 	jal	9d01289c <__shgetc>
9d00c3c0:	02002025 	move	a0,s0
9d00c3c4:	1000ffe4 	b	9d00c358 <__intscan+0xcc>
9d00c3c8:	00404825 	move	t1,v0
9d00c3cc:	24020030 	li	v0,48
9d00c3d0:	5522ffe6 	bnel	t1,v0,9d00c36c <__intscan+0xe0>
9d00c3d4:	2411000a 	li	s1,10
9d00c3d8:	8e02003c 	lw	v0,60(s0)
9d00c3dc:	0043182b 	sltu	v1,v0,v1
9d00c3e0:	1060002c 	beqz	v1,9d00c494 <__intscan+0x208>
9d00c3e4:	24430001 	addiu	v1,v0,1
9d00c3e8:	ae03003c 	sw	v1,60(s0)
9d00c3ec:	90490000 	lbu	t1,0(v0)
9d00c3f0:	35220020 	ori	v0,t1,0x20
9d00c3f4:	24030078 	li	v1,120
9d00c3f8:	14430035 	bne	v0,v1,9d00c4d0 <__intscan+0x244>
9d00c3fc:	00000000 	nop
9d00c400:	8e02003c 	lw	v0,60(s0)
9d00c404:	8e03004c 	lw	v1,76(s0)
9d00c408:	0043182b 	sltu	v1,v0,v1
9d00c40c:	10600025 	beqz	v1,9d00c4a4 <__intscan+0x218>
9d00c410:	24430001 	addiu	v1,v0,1
9d00c414:	ae03003c 	sw	v1,60(s0)
9d00c418:	90490000 	lbu	t1,0(v0)
9d00c41c:	3c029d01 	lui	v0,0x9d01
9d00c420:	24421d55 	addiu	v0,v0,7509
9d00c424:	01221021 	addu	v0,t1,v0
9d00c428:	90420000 	lbu	v0,0(v0)
9d00c42c:	2c420010 	sltiu	v0,v0,16
9d00c430:	5440002b 	bnezl	v0,9d00c4e0 <__intscan+0x254>
9d00c434:	24110010 	li	s1,16
9d00c438:	8e02004c 	lw	v0,76(s0)
9d00c43c:	1040014b 	beqz	v0,9d00c96c <__intscan+0x6e0>
9d00c440:	00003825 	move	a3,zero
9d00c444:	1260001b 	beqz	s3,9d00c4b4 <__intscan+0x228>
9d00c448:	8e02003c 	lw	v0,60(s0)
9d00c44c:	2442fffe 	addiu	v0,v0,-2
9d00c450:	ae02003c 	sw	v0,60(s0)
9d00c454:	00003825 	move	a3,zero
9d00c458:	0000f025 	move	s8,zero
9d00c45c:	8fbf0044 	lw	ra,68(sp)
9d00c460:	03c01825 	move	v1,s8
9d00c464:	00e01025 	move	v0,a3
9d00c468:	8fbe0040 	lw	s8,64(sp)
9d00c46c:	8fb7003c 	lw	s7,60(sp)
9d00c470:	8fb60038 	lw	s6,56(sp)
9d00c474:	8fb50034 	lw	s5,52(sp)
9d00c478:	8fb40030 	lw	s4,48(sp)
9d00c47c:	8fb3002c 	lw	s3,44(sp)
9d00c480:	8fb20028 	lw	s2,40(sp)
9d00c484:	8fb10024 	lw	s1,36(sp)
9d00c488:	8fb00020 	lw	s0,32(sp)
9d00c48c:	03e00008 	jr	ra
9d00c490:	27bd0048 	addiu	sp,sp,72
9d00c494:	0f404a27 	jal	9d01289c <__shgetc>
9d00c498:	02002025 	move	a0,s0
9d00c49c:	1000ffd4 	b	9d00c3f0 <__intscan+0x164>
9d00c4a0:	00404825 	move	t1,v0
9d00c4a4:	0f404a27 	jal	9d01289c <__shgetc>
9d00c4a8:	02002025 	move	a0,s0
9d00c4ac:	1000ffdb 	b	9d00c41c <__intscan+0x190>
9d00c4b0:	00404825 	move	t1,v0
9d00c4b4:	2442ffff 	addiu	v0,v0,-1
9d00c4b8:	ae02003c 	sw	v0,60(s0)
9d00c4bc:	00002825 	move	a1,zero
9d00c4c0:	0f40517e 	jal	9d0145f8 <__shlim>
9d00c4c4:	02002025 	move	a0,s0
9d00c4c8:	1000ffe3 	b	9d00c458 <__intscan+0x1cc>
9d00c4cc:	00003825 	move	a3,zero
9d00c4d0:	12200083 	beqz	s1,9d00c6e0 <__intscan+0x454>
9d00c4d4:	2402000a 	li	v0,10
9d00c4d8:	1222007a 	beq	s1,v0,9d00c6c4 <__intscan+0x438>
9d00c4dc:	3c151999 	lui	s5,0x1999
9d00c4e0:	2627ffff 	addiu	a3,s1,-1
9d00c4e4:	3c139d01 	lui	s3,0x9d01
9d00c4e8:	00f1a824 	and	s5,a3,s1
9d00c4ec:	16a000f5 	bnez	s5,9d00c8c4 <__intscan+0x638>
9d00c4f0:	26731d55 	addiu	s3,s3,7509
9d00c4f4:	24020017 	li	v0,23
9d00c4f8:	72221002 	mul	v0,s1,v0
9d00c4fc:	3c039d01 	lui	v1,0x9d01
9d00c500:	24631d48 	addiu	v1,v1,7496
9d00c504:	7c421140 	ext	v0,v0,0x5,0x3
9d00c508:	00431021 	addu	v0,v0,v1
9d00c50c:	80560000 	lb	s6,0(v0)
9d00c510:	02691021 	addu	v0,s3,t1
9d00c514:	90570000 	lbu	s7,0(v0)
9d00c518:	02f1102b 	sltu	v0,s7,s1
9d00c51c:	10400004 	beqz	v0,9d00c530 <__intscan+0x2a4>
9d00c520:	3c020800 	lui	v0,0x800
9d00c524:	02a2102b 	sltu	v0,s5,v0
9d00c528:	5440006f 	bnezl	v0,9d00c6e8 <__intscan+0x45c>
9d00c52c:	8e02003c 	lw	v0,60(s0)
9d00c530:	02c03025 	move	a2,s6
9d00c534:	2404ffff 	li	a0,-1
9d00c538:	2405ffff 	li	a1,-1
9d00c53c:	afa9001c 	sw	t1,28(sp)
9d00c540:	0f4050cf 	jal	9d01433c <__lshrdi3>
9d00c544:	afb50018 	sw	s5,24(sp)
9d00c548:	8fa70018 	lw	a3,24(sp)
9d00c54c:	8fa9001c 	lw	t1,28(sp)
9d00c550:	0000f025 	move	s8,zero
9d00c554:	afa20014 	sw	v0,20(sp)
9d00c558:	0060a825 	move	s5,v1
9d00c55c:	02691021 	addu	v0,s3,t1
9d00c560:	90570000 	lbu	s7,0(v0)
9d00c564:	02f1102b 	sltu	v0,s7,s1
9d00c568:	1040009e 	beqz	v0,9d00c7e4 <__intscan+0x558>
9d00c56c:	02be102b 	sltu	v0,s5,s8
9d00c570:	5440009d 	bnezl	v0,9d00c7e8 <__intscan+0x55c>
9d00c574:	3c139d01 	lui	s3,0x9d01
9d00c578:	17d50004 	bne	s8,s5,9d00c58c <__intscan+0x300>
9d00c57c:	8fa20014 	lw	v0,20(sp)
9d00c580:	0047102b 	sltu	v0,v0,a3
9d00c584:	54400098 	bnezl	v0,9d00c7e8 <__intscan+0x55c>
9d00c588:	3c139d01 	lui	s3,0x9d01
9d00c58c:	8e02003c 	lw	v0,60(s0)
9d00c590:	8e03004c 	lw	v1,76(s0)
9d00c594:	0043182b 	sltu	v1,v0,v1
9d00c598:	10600060 	beqz	v1,9d00c71c <__intscan+0x490>
9d00c59c:	24430001 	addiu	v1,v0,1
9d00c5a0:	ae03003c 	sw	v1,60(s0)
9d00c5a4:	90490000 	lbu	t1,0(v0)
9d00c5a8:	00e02025 	move	a0,a3
9d00c5ac:	03c02825 	move	a1,s8
9d00c5b0:	02c03025 	move	a2,s6
9d00c5b4:	0f4050de 	jal	9d014378 <__ashldi3>
9d00c5b8:	afa90018 	sw	t1,24(sp)
9d00c5bc:	02e23825 	or	a3,s7,v0
9d00c5c0:	0060f025 	move	s8,v1
9d00c5c4:	1000ffe5 	b	9d00c55c <__intscan+0x2d0>
9d00c5c8:	8fa90018 	lw	t1,24(sp)
9d00c5cc:	8e03004c 	lw	v1,76(s0)
9d00c5d0:	0043182b 	sltu	v1,v0,v1
9d00c5d4:	10600036 	beqz	v1,9d00c6b0 <__intscan+0x424>
9d00c5d8:	24430001 	addiu	v1,v0,1
9d00c5dc:	ae03003c 	sw	v1,60(s0)
9d00c5e0:	90420000 	lbu	v0,0(v0)
9d00c5e4:	2407000a 	li	a3,10
9d00c5e8:	72671802 	mul	v1,s3,a3
9d00c5ec:	00693821 	addu	a3,v1,t1
9d00c5f0:	24f3ffd0 	addiu	s3,a3,-48
9d00c5f4:	00404825 	move	t1,v0
9d00c5f8:	2522ffd0 	addiu	v0,t1,-48
9d00c5fc:	2c42000a 	sltiu	v0,v0,10
9d00c600:	10400003 	beqz	v0,9d00c610 <__intscan+0x384>
9d00c604:	0275102b 	sltu	v0,s3,s5
9d00c608:	5440fff0 	bnezl	v0,9d00c5cc <__intscan+0x340>
9d00c60c:	8e02003c 	lw	v0,60(s0)
9d00c610:	3c151999 	lui	s5,0x1999
9d00c614:	02603825 	move	a3,s3
9d00c618:	0000f025 	move	s8,zero
9d00c61c:	36b5999a 	ori	s5,s5,0x999a
9d00c620:	2533ffd0 	addiu	s3,t1,-48
9d00c624:	2e62000a 	sltiu	v0,s3,10
9d00c628:	10400087 	beqz	v0,9d00c848 <__intscan+0x5bc>
9d00c62c:	03d5102b 	sltu	v0,s8,s5
9d00c630:	1040006c 	beqz	v0,9d00c7e4 <__intscan+0x558>
9d00c634:	26a2ffff 	addiu	v0,s5,-1
9d00c638:	17c20006 	bne	s8,v0,9d00c654 <__intscan+0x3c8>
9d00c63c:	2402000a 	li	v0,10
9d00c640:	3c029999 	lui	v0,0x9999
9d00c644:	3442999a 	ori	v0,v0,0x999a
9d00c648:	00e2102b 	sltu	v0,a3,v0
9d00c64c:	10400065 	beqz	v0,9d00c7e4 <__intscan+0x558>
9d00c650:	2402000a 	li	v0,10
9d00c654:	00470019 	multu	v0,a3
9d00c658:	0000b810 	mfhi	s7
9d00c65c:	0000b012 	mflo	s6
9d00c660:	705e1802 	mul	v1,v0,s8
9d00c664:	0077b821 	addu	s7,v1,s7
9d00c668:	2403ffff 	li	v1,-1
9d00c66c:	16e30004 	bne	s7,v1,9d00c680 <__intscan+0x3f4>
9d00c670:	00131027 	nor	v0,zero,s3
9d00c674:	0056102b 	sltu	v0,v0,s6
9d00c678:	5440005b 	bnezl	v0,9d00c7e8 <__intscan+0x55c>
9d00c67c:	3c139d01 	lui	s3,0x9d01
9d00c680:	8e02003c 	lw	v0,60(s0)
9d00c684:	8e03004c 	lw	v1,76(s0)
9d00c688:	0043182b 	sltu	v1,v0,v1
9d00c68c:	10600010 	beqz	v1,9d00c6d0 <__intscan+0x444>
9d00c690:	00000000 	nop
9d00c694:	24430001 	addiu	v1,v0,1
9d00c698:	ae03003c 	sw	v1,60(s0)
9d00c69c:	90490000 	lbu	t1,0(v0)
9d00c6a0:	02763821 	addu	a3,s3,s6
9d00c6a4:	00f6402b 	sltu	t0,a3,s6
9d00c6a8:	1000ffdd 	b	9d00c620 <__intscan+0x394>
9d00c6ac:	0117f021 	addu	s8,t0,s7
9d00c6b0:	02002025 	move	a0,s0
9d00c6b4:	0f404a27 	jal	9d01289c <__shgetc>
9d00c6b8:	afa90014 	sw	t1,20(sp)
9d00c6bc:	1000ffc9 	b	9d00c5e4 <__intscan+0x358>
9d00c6c0:	8fa90014 	lw	t1,20(sp)
9d00c6c4:	00009825 	move	s3,zero
9d00c6c8:	1000ffcb 	b	9d00c5f8 <__intscan+0x36c>
9d00c6cc:	36b59999 	ori	s5,s5,0x9999
9d00c6d0:	0f404a27 	jal	9d01289c <__shgetc>
9d00c6d4:	02002025 	move	a0,s0
9d00c6d8:	1000fff1 	b	9d00c6a0 <__intscan+0x414>
9d00c6dc:	00404825 	move	t1,v0
9d00c6e0:	1000ff7f 	b	9d00c4e0 <__intscan+0x254>
9d00c6e4:	24110008 	li	s1,8
9d00c6e8:	8e03004c 	lw	v1,76(s0)
9d00c6ec:	0043182b 	sltu	v1,v0,v1
9d00c6f0:	10600006 	beqz	v1,9d00c70c <__intscan+0x480>
9d00c6f4:	24430001 	addiu	v1,v0,1
9d00c6f8:	ae03003c 	sw	v1,60(s0)
9d00c6fc:	90490000 	lbu	t1,0(v0)
9d00c700:	02d53804 	sllv	a3,s5,s6
9d00c704:	1000ff82 	b	9d00c510 <__intscan+0x284>
9d00c708:	00f7a825 	or	s5,a3,s7
9d00c70c:	0f404a27 	jal	9d01289c <__shgetc>
9d00c710:	02002025 	move	a0,s0
9d00c714:	1000fffa 	b	9d00c700 <__intscan+0x474>
9d00c718:	00404825 	move	t1,v0
9d00c71c:	02002025 	move	a0,s0
9d00c720:	0f404a27 	jal	9d01289c <__shgetc>
9d00c724:	afa70018 	sw	a3,24(sp)
9d00c728:	00404825 	move	t1,v0
9d00c72c:	1000ff9e 	b	9d00c5a8 <__intscan+0x31c>
9d00c730:	8fa70018 	lw	a3,24(sp)
9d00c734:	8e03004c 	lw	v1,76(s0)
9d00c738:	0043182b 	sltu	v1,v0,v1
9d00c73c:	1060005d 	beqz	v1,9d00c8b4 <__intscan+0x628>
9d00c740:	24430001 	addiu	v1,v0,1
9d00c744:	ae03003c 	sw	v1,60(s0)
9d00c748:	90490000 	lbu	t1,0(v0)
9d00c74c:	72351002 	mul	v0,s1,s5
9d00c750:	0056a821 	addu	s5,v0,s6
9d00c754:	02691021 	addu	v0,s3,t1
9d00c758:	90560000 	lbu	s6,0(v0)
9d00c75c:	02d1102b 	sltu	v0,s6,s1
9d00c760:	10400005 	beqz	v0,9d00c778 <__intscan+0x4ec>
9d00c764:	3c02071c 	lui	v0,0x71c
9d00c768:	244271c7 	addiu	v0,v0,29127
9d00c76c:	02a2102b 	sltu	v0,s5,v0
9d00c770:	5440fff0 	bnezl	v0,9d00c734 <__intscan+0x4a8>
9d00c774:	8e02003c 	lw	v0,60(s0)
9d00c778:	02a03825 	move	a3,s5
9d00c77c:	0000f025 	move	s8,zero
9d00c780:	02691021 	addu	v0,s3,t1
9d00c784:	90550000 	lbu	s5,0(v0)
9d00c788:	02b1102b 	sltu	v0,s5,s1
9d00c78c:	10400015 	beqz	v0,9d00c7e4 <__intscan+0x558>
9d00c790:	00f10019 	multu	a3,s1
9d00c794:	00002012 	mflo	a0
9d00c798:	13c00009 	beqz	s8,9d00c7c0 <__intscan+0x534>
9d00c79c:	00002810 	mfhi	a1
9d00c7a0:	023e0019 	multu	s1,s8
9d00c7a4:	00006012 	mflo	t4
9d00c7a8:	00ac1021 	addu	v0,a1,t4
9d00c7ac:	004c102b 	sltu	v0,v0,t4
9d00c7b0:	00006810 	mfhi	t5
9d00c7b4:	004d1021 	addu	v0,v0,t5
9d00c7b8:	5440000b 	bnezl	v0,9d00c7e8 <__intscan+0x55c>
9d00c7bc:	3c139d01 	lui	s3,0x9d01
9d00c7c0:	73d11002 	mul	v0,s8,s1
9d00c7c4:	2403ffff 	li	v1,-1
9d00c7c8:	0080b025 	move	s6,a0
9d00c7cc:	0045b821 	addu	s7,v0,a1
9d00c7d0:	16e3003e 	bne	s7,v1,9d00c8cc <__intscan+0x640>
9d00c7d4:	00151027 	nor	v0,zero,s5
9d00c7d8:	0044102b 	sltu	v0,v0,a0
9d00c7dc:	5040003c 	beqzl	v0,9d00c8d0 <__intscan+0x644>
9d00c7e0:	8e02003c 	lw	v0,60(s0)
9d00c7e4:	3c139d01 	lui	s3,0x9d01
9d00c7e8:	26731d55 	addiu	s3,s3,7509
9d00c7ec:	01334821 	addu	t1,t1,s3
9d00c7f0:	91220000 	lbu	v0,0(t1)
9d00c7f4:	0051102b 	sltu	v0,v0,s1
9d00c7f8:	50400014 	beqzl	v0,9d00c84c <__intscan+0x5c0>
9d00c7fc:	8e02004c 	lw	v0,76(s0)
9d00c800:	8e02003c 	lw	v0,60(s0)
9d00c804:	8e03004c 	lw	v1,76(s0)
9d00c808:	0043182b 	sltu	v1,v0,v1
9d00c80c:	1060003e 	beqz	v1,9d00c908 <__intscan+0x67c>
9d00c810:	24430001 	addiu	v1,v0,1
9d00c814:	ae03003c 	sw	v1,60(s0)
9d00c818:	90420000 	lbu	v0,0(v0)
9d00c81c:	02621021 	addu	v0,s3,v0
9d00c820:	90420000 	lbu	v0,0(v0)
9d00c824:	0051102b 	sltu	v0,v0,s1
9d00c828:	1440fff5 	bnez	v0,9d00c800 <__intscan+0x574>
9d00c82c:	3c02a000 	lui	v0,0xa000
9d00c830:	24030022 	li	v1,34
9d00c834:	8fbe0010 	lw	s8,16(sp)
9d00c838:	ac432404 	sw	v1,9220(v0)
9d00c83c:	32420001 	andi	v0,s2,0x1
9d00c840:	02403825 	move	a3,s2
9d00c844:	0002a00b 	movn	s4,zero,v0
9d00c848:	8e02004c 	lw	v0,76(s0)
9d00c84c:	10400005 	beqz	v0,9d00c864 <__intscan+0x5d8>
9d00c850:	8fa20010 	lw	v0,16(sp)
9d00c854:	8e02003c 	lw	v0,60(s0)
9d00c858:	2442ffff 	addiu	v0,v0,-1
9d00c85c:	ae02003c 	sw	v0,60(s0)
9d00c860:	8fa20010 	lw	v0,16(sp)
9d00c864:	03c2102b 	sltu	v0,s8,v0
9d00c868:	14400039 	bnez	v0,9d00c950 <__intscan+0x6c4>
9d00c86c:	8fa20010 	lw	v0,16(sp)
9d00c870:	145e0003 	bne	v0,s8,9d00c880 <__intscan+0x5f4>
9d00c874:	00f2102b 	sltu	v0,a3,s2
9d00c878:	14400036 	bnez	v0,9d00c954 <__intscan+0x6c8>
9d00c87c:	2402ffff 	li	v0,-1
9d00c880:	32420001 	andi	v0,s2,0x1
9d00c884:	14400025 	bnez	v0,9d00c91c <__intscan+0x690>
9d00c888:	8fa20010 	lw	v0,16(sp)
9d00c88c:	16800022 	bnez	s4,9d00c918 <__intscan+0x68c>
9d00c890:	3c02a000 	lui	v0,0xa000
9d00c894:	24030022 	li	v1,34
9d00c898:	ac432404 	sw	v1,9220(v0)
9d00c89c:	8fa20010 	lw	v0,16(sp)
9d00c8a0:	2647ffff 	addiu	a3,s2,-1
9d00c8a4:	00f2902b 	sltu	s2,a3,s2
9d00c8a8:	2451ffff 	addiu	s1,v0,-1
9d00c8ac:	1000feeb 	b	9d00c45c <__intscan+0x1d0>
9d00c8b0:	0251f021 	addu	s8,s2,s1
9d00c8b4:	0f404a27 	jal	9d01289c <__shgetc>
9d00c8b8:	02002025 	move	a0,s0
9d00c8bc:	1000ffa3 	b	9d00c74c <__intscan+0x4c0>
9d00c8c0:	00404825 	move	t1,v0
9d00c8c4:	1000ffa3 	b	9d00c754 <__intscan+0x4c8>
9d00c8c8:	0000a825 	move	s5,zero
9d00c8cc:	8e02003c 	lw	v0,60(s0)
9d00c8d0:	8e03004c 	lw	v1,76(s0)
9d00c8d4:	0043182b 	sltu	v1,v0,v1
9d00c8d8:	10600007 	beqz	v1,9d00c8f8 <__intscan+0x66c>
9d00c8dc:	24430001 	addiu	v1,v0,1
9d00c8e0:	ae03003c 	sw	v1,60(s0)
9d00c8e4:	90490000 	lbu	t1,0(v0)
9d00c8e8:	02b63821 	addu	a3,s5,s6
9d00c8ec:	00f6402b 	sltu	t0,a3,s6
9d00c8f0:	1000ffa3 	b	9d00c780 <__intscan+0x4f4>
9d00c8f4:	0117f021 	addu	s8,t0,s7
9d00c8f8:	0f404a27 	jal	9d01289c <__shgetc>
9d00c8fc:	02002025 	move	a0,s0
9d00c900:	1000fff9 	b	9d00c8e8 <__intscan+0x65c>
9d00c904:	00404825 	move	t1,v0
9d00c908:	0f404a27 	jal	9d01289c <__shgetc>
9d00c90c:	02002025 	move	a0,s0
9d00c910:	1000ffc3 	b	9d00c820 <__intscan+0x594>
9d00c914:	02621021 	addu	v0,s3,v0
9d00c918:	8fa20010 	lw	v0,16(sp)
9d00c91c:	005e102b 	sltu	v0,v0,s8
9d00c920:	14400005 	bnez	v0,9d00c938 <__intscan+0x6ac>
9d00c924:	8fa20010 	lw	v0,16(sp)
9d00c928:	17c20009 	bne	s8,v0,9d00c950 <__intscan+0x6c4>
9d00c92c:	0247102b 	sltu	v0,s2,a3
9d00c930:	10400008 	beqz	v0,9d00c954 <__intscan+0x6c8>
9d00c934:	2402ffff 	li	v0,-1
9d00c938:	3c02a000 	lui	v0,0xa000
9d00c93c:	24030022 	li	v1,34
9d00c940:	ac432404 	sw	v1,9220(v0)
9d00c944:	02403825 	move	a3,s2
9d00c948:	1000fec4 	b	9d00c45c <__intscan+0x1d0>
9d00c94c:	8fbe0010 	lw	s8,16(sp)
9d00c950:	2402ffff 	li	v0,-1
9d00c954:	1682fec1 	bne	s4,v0,9d00c45c <__intscan+0x1d0>
9d00c958:	001e4023 	negu	t0,s8
9d00c95c:	00073823 	negu	a3,a3
9d00c960:	0007102b 	sltu	v0,zero,a3
9d00c964:	1000febd 	b	9d00c45c <__intscan+0x1d0>
9d00c968:	0102f023 	subu	s8,t0,v0
9d00c96c:	1660febb 	bnez	s3,9d00c45c <__intscan+0x1d0>
9d00c970:	0000f025 	move	s8,zero
9d00c974:	1000fed2 	b	9d00c4c0 <__intscan+0x234>
9d00c978:	00002825 	move	a1,zero
9d00c97c:	1122fe96 	beq	t1,v0,9d00c3d8 <__intscan+0x14c>
9d00c980:	3c029d01 	lui	v0,0x9d01
9d00c984:	1000fe7b 	b	9d00c374 <__intscan+0xe8>
9d00c988:	24421d55 	addiu	v0,v0,7509

Disassembly of section .text.__printf_core:

9d00c98c <__printf_core>:
9d00c98c:	27bdff18 	addiu	sp,sp,-232
9d00c990:	afb400dc 	sw	s4,220(sp)
9d00c994:	afb300d8 	sw	s3,216(sp)
9d00c998:	afb200d4 	sw	s2,212(sp)
9d00c99c:	afb100d0 	sw	s1,208(sp)
9d00c9a0:	afbf00e4 	sw	ra,228(sp)
9d00c9a4:	afb500e0 	sw	s5,224(sp)
9d00c9a8:	afb000cc 	sw	s0,204(sp)
9d00c9ac:	00809025 	move	s2,a0
9d00c9b0:	00c08825 	move	s1,a2
9d00c9b4:	afa500b8 	sw	a1,184(sp)
9d00c9b8:	00009825 	move	s3,zero
9d00c9bc:	3c149d00 	lui	s4,0x9d00
9d00c9c0:	8fa500b8 	lw	a1,184(sp)
9d00c9c4:	80a20000 	lb	v0,0(a1)
9d00c9c8:	104000e4 	beqz	v0,9d00cd5c <__printf_core+0x3d0>
9d00c9cc:	2402ffff 	li	v0,-1
9d00c9d0:	afa2009c 	sw	v0,156(sp)
9d00c9d4:	27a20018 	addiu	v0,sp,24
9d00c9d8:	afa200a4 	sw	v0,164(sp)
9d00c9dc:	24020080 	li	v0,128
9d00c9e0:	afa00098 	sw	zero,152(sp)
9d00c9e4:	afa000a0 	sw	zero,160(sp)
9d00c9e8:	afa200a8 	sw	v0,168(sp)
9d00c9ec:	00008025 	move	s0,zero
9d00c9f0:	24030025 	li	v1,37
9d00c9f4:	00b01021 	addu	v0,a1,s0
9d00c9f8:	80420000 	lb	v0,0(v0)
9d00c9fc:	10400003 	beqz	v0,9d00ca0c <__printf_core+0x80>
9d00ca00:	00000000 	nop
9d00ca04:	5443fffb 	bnel	v0,v1,9d00c9f4 <__printf_core+0x68>
9d00ca08:	26100001 	addiu	s0,s0,1
9d00ca0c:	12000006 	beqz	s0,9d00ca28 <__printf_core+0x9c>
9d00ca10:	02003025 	move	a2,s0
9d00ca14:	0f404c89 	jal	9d013224 <__out>
9d00ca18:	02402025 	move	a0,s2
9d00ca1c:	8fa200b8 	lw	v0,184(sp)
9d00ca20:	00501021 	addu	v0,v0,s0
9d00ca24:	afa200b8 	sw	v0,184(sp)
9d00ca28:	8fb500b8 	lw	s5,184(sp)
9d00ca2c:	24020025 	li	v0,37
9d00ca30:	82a30000 	lb	v1,0(s5)
9d00ca34:	146200c2 	bne	v1,v0,9d00cd40 <__printf_core+0x3b4>
9d00ca38:	26b50001 	addiu	s5,s5,1
9d00ca3c:	afb500b8 	sw	s5,184(sp)
9d00ca40:	2405002b 	li	a1,43
9d00ca44:	2406002d 	li	a2,45
9d00ca48:	24030030 	li	v1,48
9d00ca4c:	24070020 	li	a3,32
9d00ca50:	24080023 	li	t0,35
9d00ca54:	8fa400b8 	lw	a0,184(sp)
9d00ca58:	80820000 	lb	v0,0(a0)
9d00ca5c:	5045001b 	beql	v0,a1,9d00cacc <__printf_core+0x140>
9d00ca60:	8fa20098 	lw	v0,152(sp)
9d00ca64:	2849002c 	slti	t1,v0,44
9d00ca68:	1120001e 	beqz	t1,9d00cae4 <__printf_core+0x158>
9d00ca6c:	00000000 	nop
9d00ca70:	50470018 	beql	v0,a3,9d00cad4 <__printf_core+0x148>
9d00ca74:	8fa20098 	lw	v0,152(sp)
9d00ca78:	50480018 	beql	v0,t0,9d00cadc <__printf_core+0x150>
9d00ca7c:	8fa20098 	lw	v0,152(sp)
9d00ca80:	2403002a 	li	v1,42
9d00ca84:	5043001e 	beql	v0,v1,9d00cb00 <__printf_core+0x174>
9d00ca88:	8e220000 	lw	v0,0(s1)
9d00ca8c:	0f404dda 	jal	9d013768 <atoi>
9d00ca90:	00000000 	nop
9d00ca94:	afa200a0 	sw	v0,160(sp)
9d00ca98:	8fa300b8 	lw	v1,184(sp)
9d00ca9c:	80620000 	lb	v0,0(v1)
9d00caa0:	2442ffd0 	addiu	v0,v0,-48
9d00caa4:	2c42000a 	sltiu	v0,v0,10
9d00caa8:	10400021 	beqz	v0,9d00cb30 <__printf_core+0x1a4>
9d00caac:	24630001 	addiu	v1,v1,1
9d00cab0:	1000fff9 	b	9d00ca98 <__printf_core+0x10c>
9d00cab4:	afa300b8 	sw	v1,184(sp)
9d00cab8:	34420001 	ori	v0,v0,0x1
9d00cabc:	24840001 	addiu	a0,a0,1
9d00cac0:	afa20098 	sw	v0,152(sp)
9d00cac4:	1000ffe3 	b	9d00ca54 <__printf_core+0xc8>
9d00cac8:	afa400b8 	sw	a0,184(sp)
9d00cacc:	1000fffb 	b	9d00cabc <__printf_core+0x130>
9d00cad0:	34420004 	ori	v0,v0,0x4
9d00cad4:	1000fff9 	b	9d00cabc <__printf_core+0x130>
9d00cad8:	34420008 	ori	v0,v0,0x8
9d00cadc:	1000fff7 	b	9d00cabc <__printf_core+0x130>
9d00cae0:	34420010 	ori	v0,v0,0x10
9d00cae4:	5046fff4 	beql	v0,a2,9d00cab8 <__printf_core+0x12c>
9d00cae8:	8fa20098 	lw	v0,152(sp)
9d00caec:	5443ffe5 	bnel	v0,v1,9d00ca84 <__printf_core+0xf8>
9d00caf0:	2403002a 	li	v1,42
9d00caf4:	8fa20098 	lw	v0,152(sp)
9d00caf8:	1000fff0 	b	9d00cabc <__printf_core+0x130>
9d00cafc:	34420002 	ori	v0,v0,0x2
9d00cb00:	24840001 	addiu	a0,a0,1
9d00cb04:	afa400b8 	sw	a0,184(sp)
9d00cb08:	24430004 	addiu	v1,v0,4
9d00cb0c:	8c420000 	lw	v0,0(v0)
9d00cb10:	ae230000 	sw	v1,0(s1)
9d00cb14:	04410006 	bgez	v0,9d00cb30 <__printf_core+0x1a4>
9d00cb18:	afa200a0 	sw	v0,160(sp)
9d00cb1c:	8fa30098 	lw	v1,152(sp)
9d00cb20:	00021023 	negu	v0,v0
9d00cb24:	afa200a0 	sw	v0,160(sp)
9d00cb28:	38630001 	xori	v1,v1,0x1
9d00cb2c:	afa30098 	sw	v1,152(sp)
9d00cb30:	8fa20098 	lw	v0,152(sp)
9d00cb34:	30430001 	andi	v1,v0,0x1
9d00cb38:	10600002 	beqz	v1,9d00cb44 <__printf_core+0x1b8>
9d00cb3c:	7c020844 	ins	v0,zero,0x1,0x1
9d00cb40:	afa20098 	sw	v0,152(sp)
9d00cb44:	8fa200b8 	lw	v0,184(sp)
9d00cb48:	2403002e 	li	v1,46
9d00cb4c:	80440000 	lb	a0,0(v0)
9d00cb50:	1483000d 	bne	a0,v1,9d00cb88 <__printf_core+0x1fc>
9d00cb54:	24440001 	addiu	a0,v0,1
9d00cb58:	afa0009c 	sw	zero,156(sp)
9d00cb5c:	afa400b8 	sw	a0,184(sp)
9d00cb60:	80450001 	lb	a1,1(v0)
9d00cb64:	2403002a 	li	v1,42
9d00cb68:	14a30023 	bne	a1,v1,9d00cbf8 <__printf_core+0x26c>
9d00cb6c:	24420002 	addiu	v0,v0,2
9d00cb70:	afa200b8 	sw	v0,184(sp)
9d00cb74:	8e220000 	lw	v0,0(s1)
9d00cb78:	24430004 	addiu	v1,v0,4
9d00cb7c:	8c420000 	lw	v0,0(v0)
9d00cb80:	ae230000 	sw	v1,0(s1)
9d00cb84:	afa2009c 	sw	v0,156(sp)
9d00cb88:	0f404f59 	jal	9d013d64 <__fmt_state>
9d00cb8c:	27a400b8 	addiu	a0,sp,184
9d00cb90:	afa200c0 	sw	v0,192(sp)
9d00cb94:	8fa200b8 	lw	v0,184(sp)
9d00cb98:	0f40525e 	jal	9d014978 <tolower>
9d00cb9c:	80440000 	lb	a0,0(v0)
9d00cba0:	24030069 	li	v1,105
9d00cba4:	10430077 	beq	v0,v1,9d00cd84 <__printf_core+0x3f8>
9d00cba8:	8fa500c0 	lw	a1,192(sp)
9d00cbac:	2843006a 	slti	v1,v0,106
9d00cbb0:	1060002f 	beqz	v1,9d00cc70 <__printf_core+0x2e4>
9d00cbb4:	24030063 	li	v1,99
9d00cbb8:	104300be 	beq	v0,v1,9d00ceb4 <__printf_core+0x528>
9d00cbbc:	28430064 	slti	v1,v0,100
9d00cbc0:	10600018 	beqz	v1,9d00cc24 <__printf_core+0x298>
9d00cbc4:	24030025 	li	v1,37
9d00cbc8:	104300cb 	beq	v0,v1,9d00cef8 <__printf_core+0x56c>
9d00cbcc:	24030061 	li	v1,97
9d00cbd0:	5043004f 	beql	v0,v1,9d00cd10 <__printf_core+0x384>
9d00cbd4:	02203025 	move	a2,s1
9d00cbd8:	2402ffff 	li	v0,-1
9d00cbdc:	afb500b8 	sw	s5,184(sp)
9d00cbe0:	afa00098 	sw	zero,152(sp)
9d00cbe4:	afa000a0 	sw	zero,160(sp)
9d00cbe8:	afa2009c 	sw	v0,156(sp)
9d00cbec:	afa00010 	sw	zero,16(sp)
9d00cbf0:	100000c9 	b	9d00cf18 <__printf_core+0x58c>
9d00cbf4:	00003825 	move	a3,zero
9d00cbf8:	0f404dda 	jal	9d013768 <atoi>
9d00cbfc:	00000000 	nop
9d00cc00:	afa2009c 	sw	v0,156(sp)
9d00cc04:	8fa300b8 	lw	v1,184(sp)
9d00cc08:	80620000 	lb	v0,0(v1)
9d00cc0c:	2442ffd0 	addiu	v0,v0,-48
9d00cc10:	2c42000a 	sltiu	v0,v0,10
9d00cc14:	1040ffdc 	beqz	v0,9d00cb88 <__printf_core+0x1fc>
9d00cc18:	24630001 	addiu	v1,v1,1
9d00cc1c:	1000fff9 	b	9d00cc04 <__printf_core+0x278>
9d00cc20:	afa300b8 	sw	v1,184(sp)
9d00cc24:	24030064 	li	v1,100
9d00cc28:	10430056 	beq	v0,v1,9d00cd84 <__printf_core+0x3f8>
9d00cc2c:	28420068 	slti	v0,v0,104
9d00cc30:	1040ffea 	beqz	v0,9d00cbdc <__printf_core+0x250>
9d00cc34:	2402ffff 	li	v0,-1
9d00cc38:	02203025 	move	a2,s1
9d00cc3c:	0f404fae 	jal	9d013eb8 <__pop_float>
9d00cc40:	27a400b0 	addiu	a0,sp,176
9d00cc44:	10400097 	beqz	v0,9d00cea4 <__printf_core+0x518>
9d00cc48:	8fa200b8 	lw	v0,184(sp)
9d00cc4c:	27a600b0 	addiu	a2,sp,176
9d00cc50:	27a50098 	addiu	a1,sp,152
9d00cc54:	24430001 	addiu	v1,v0,1
9d00cc58:	afa300b8 	sw	v1,184(sp)
9d00cc5c:	80470000 	lb	a3,0(v0)
9d00cc60:	0f402ac6 	jal	9d00ab18 <__fmt_fp>
9d00cc64:	02402025 	move	a0,s2
9d00cc68:	10000035 	b	9d00cd40 <__printf_core+0x3b4>
9d00cc6c:	02028021 	addu	s0,s0,v0
9d00cc70:	24030070 	li	v1,112
9d00cc74:	1043006e 	beq	v0,v1,9d00ce30 <__printf_core+0x4a4>
9d00cc78:	28430071 	slti	v1,v0,113
9d00cc7c:	10600013 	beqz	v1,9d00cccc <__printf_core+0x340>
9d00cc80:	2403006e 	li	v1,110
9d00cc84:	10430083 	beq	v0,v1,9d00ce94 <__printf_core+0x508>
9d00cc88:	2403006f 	li	v1,111
9d00cc8c:	1443ffd3 	bne	v0,v1,9d00cbdc <__printf_core+0x250>
9d00cc90:	2402ffff 	li	v0,-1
9d00cc94:	02203825 	move	a3,s1
9d00cc98:	00003025 	move	a2,zero
9d00cc9c:	0f404330 	jal	9d010cc0 <__pop_int>
9d00cca0:	27a400b0 	addiu	a0,sp,176
9d00cca4:	1040007f 	beqz	v0,9d00cea4 <__printf_core+0x518>
9d00cca8:	8fa200b8 	lw	v0,184(sp)
9d00ccac:	27a600b0 	addiu	a2,sp,176
9d00ccb0:	27a50098 	addiu	a1,sp,152
9d00ccb4:	24420001 	addiu	v0,v0,1
9d00ccb8:	02402025 	move	a0,s2
9d00ccbc:	0f4052e4 	jal	9d014b90 <__fmt_o>
9d00ccc0:	afa200b8 	sw	v0,184(sp)
9d00ccc4:	1000001e 	b	9d00cd40 <__printf_core+0x3b4>
9d00ccc8:	02028021 	addu	s0,s0,v0
9d00cccc:	24030075 	li	v1,117
9d00ccd0:	1043003a 	beq	v0,v1,9d00cdbc <__printf_core+0x430>
9d00ccd4:	24030078 	li	v1,120
9d00ccd8:	10430046 	beq	v0,v1,9d00cdf4 <__printf_core+0x468>
9d00ccdc:	24030073 	li	v1,115
9d00cce0:	1443ffbd 	bne	v0,v1,9d00cbd8 <__printf_core+0x24c>
9d00cce4:	24020080 	li	v0,128
9d00cce8:	14a2006e 	bne	a1,v0,9d00cea4 <__printf_core+0x518>
9d00ccec:	8fa200b8 	lw	v0,184(sp)
9d00ccf0:	00003825 	move	a3,zero
9d00ccf4:	24420001 	addiu	v0,v0,1
9d00ccf8:	afa200b8 	sw	v0,184(sp)
9d00ccfc:	8e220000 	lw	v0,0(s1)
9d00cd00:	24430004 	addiu	v1,v0,4
9d00cd04:	ae230000 	sw	v1,0(s1)
9d00cd08:	10000076 	b	9d00cee4 <__printf_core+0x558>
9d00cd0c:	8c460000 	lw	a2,0(v0)
9d00cd10:	0f404fae 	jal	9d013eb8 <__pop_float>
9d00cd14:	27a400b0 	addiu	a0,sp,176
9d00cd18:	10400062 	beqz	v0,9d00cea4 <__printf_core+0x518>
9d00cd1c:	8fa200b8 	lw	v0,184(sp)
9d00cd20:	27a600b0 	addiu	a2,sp,176
9d00cd24:	27a50098 	addiu	a1,sp,152
9d00cd28:	24430001 	addiu	v1,v0,1
9d00cd2c:	afa300b8 	sw	v1,184(sp)
9d00cd30:	80470000 	lb	a3,0(v0)
9d00cd34:	0f4052e6 	jal	9d014b98 <__fmt_a>
9d00cd38:	02402025 	move	a0,s2
9d00cd3c:	02028021 	addu	s0,s0,v0
9d00cd40:	02708021 	addu	s0,s3,s0
9d00cd44:	0213982a 	slt	s3,s0,s3
9d00cd48:	12600077 	beqz	s3,9d00cf28 <__printf_core+0x59c>
9d00cd4c:	3c02a000 	lui	v0,0xa000
9d00cd50:	2403004f 	li	v1,79
9d00cd54:	ac432404 	sw	v1,9220(v0)
9d00cd58:	2413ffff 	li	s3,-1
9d00cd5c:	8fbf00e4 	lw	ra,228(sp)
9d00cd60:	02601025 	move	v0,s3
9d00cd64:	8fb500e0 	lw	s5,224(sp)
9d00cd68:	8fb400dc 	lw	s4,220(sp)
9d00cd6c:	8fb300d8 	lw	s3,216(sp)
9d00cd70:	8fb200d4 	lw	s2,212(sp)
9d00cd74:	8fb100d0 	lw	s1,208(sp)
9d00cd78:	8fb000cc 	lw	s0,204(sp)
9d00cd7c:	03e00008 	jr	ra
9d00cd80:	27bd00e8 	addiu	sp,sp,232
9d00cd84:	02203825 	move	a3,s1
9d00cd88:	24060001 	li	a2,1
9d00cd8c:	0f404330 	jal	9d010cc0 <__pop_int>
9d00cd90:	27a400b0 	addiu	a0,sp,176
9d00cd94:	10400043 	beqz	v0,9d00cea4 <__printf_core+0x518>
9d00cd98:	8fa200b8 	lw	v0,184(sp)
9d00cd9c:	27a600b0 	addiu	a2,sp,176
9d00cda0:	27a50098 	addiu	a1,sp,152
9d00cda4:	24420001 	addiu	v0,v0,1
9d00cda8:	02402025 	move	a0,s2
9d00cdac:	0f40449e 	jal	9d011278 <__fmt_d>
9d00cdb0:	afa200b8 	sw	v0,184(sp)
9d00cdb4:	1000ffe2 	b	9d00cd40 <__printf_core+0x3b4>
9d00cdb8:	02028021 	addu	s0,s0,v0
9d00cdbc:	02203825 	move	a3,s1
9d00cdc0:	00003025 	move	a2,zero
9d00cdc4:	0f404330 	jal	9d010cc0 <__pop_int>
9d00cdc8:	27a400b0 	addiu	a0,sp,176
9d00cdcc:	10400035 	beqz	v0,9d00cea4 <__printf_core+0x518>
9d00cdd0:	8fa200b8 	lw	v0,184(sp)
9d00cdd4:	27a600b0 	addiu	a2,sp,176
9d00cdd8:	27a50098 	addiu	a1,sp,152
9d00cddc:	24420001 	addiu	v0,v0,1
9d00cde0:	02402025 	move	a0,s2
9d00cde4:	0f4049ca 	jal	9d012728 <__fmt_u>
9d00cde8:	afa200b8 	sw	v0,184(sp)
9d00cdec:	1000ffd4 	b	9d00cd40 <__printf_core+0x3b4>
9d00cdf0:	02028021 	addu	s0,s0,v0
9d00cdf4:	02203825 	move	a3,s1
9d00cdf8:	00003025 	move	a2,zero
9d00cdfc:	0f404330 	jal	9d010cc0 <__pop_int>
9d00ce00:	27a400b0 	addiu	a0,sp,176
9d00ce04:	10400027 	beqz	v0,9d00cea4 <__printf_core+0x518>
9d00ce08:	8fa200b8 	lw	v0,184(sp)
9d00ce0c:	24430001 	addiu	v1,v0,1
9d00ce10:	afa300b8 	sw	v1,184(sp)
9d00ce14:	80470000 	lb	a3,0(v0)
9d00ce18:	27a600b0 	addiu	a2,sp,176
9d00ce1c:	27a50098 	addiu	a1,sp,152
9d00ce20:	0f4052e6 	jal	9d014b98 <__fmt_a>
9d00ce24:	02402025 	move	a0,s2
9d00ce28:	1000ffc5 	b	9d00cd40 <__printf_core+0x3b4>
9d00ce2c:	02028021 	addu	s0,s0,v0
9d00ce30:	02203825 	move	a3,s1
9d00ce34:	00003025 	move	a2,zero
9d00ce38:	240500f0 	li	a1,240
9d00ce3c:	0f404330 	jal	9d010cc0 <__pop_int>
9d00ce40:	27a400b0 	addiu	a0,sp,176
9d00ce44:	10400017 	beqz	v0,9d00cea4 <__printf_core+0x518>
9d00ce48:	8fa200b8 	lw	v0,184(sp)
9d00ce4c:	8fa300b4 	lw	v1,180(sp)
9d00ce50:	24420001 	addiu	v0,v0,1
9d00ce54:	afa200b8 	sw	v0,184(sp)
9d00ce58:	8fa200b0 	lw	v0,176(sp)
9d00ce5c:	00431025 	or	v0,v0,v1
9d00ce60:	1440ffed 	bnez	v0,9d00ce18 <__printf_core+0x48c>
9d00ce64:	24070078 	li	a3,120
9d00ce68:	0f405130 	jal	9d0144c0 <strlen>
9d00ce6c:	268474c8 	addiu	a0,s4,29896
9d00ce70:	8fa30098 	lw	v1,152(sp)
9d00ce74:	8fa700a0 	lw	a3,160(sp)
9d00ce78:	00403025 	move	a2,v0
9d00ce7c:	afa30010 	sw	v1,16(sp)
9d00ce80:	268574c8 	addiu	a1,s4,29896
9d00ce84:	0f4047d8 	jal	9d011f60 <__pad>
9d00ce88:	02402025 	move	a0,s2
9d00ce8c:	1000ffac 	b	9d00cd40 <__printf_core+0x3b4>
9d00ce90:	02028021 	addu	s0,s0,v0
9d00ce94:	02203825 	move	a3,s1
9d00ce98:	02703021 	addu	a2,s3,s0
9d00ce9c:	0f404894 	jal	9d012250 <__pop_ptr>
9d00cea0:	27a400b0 	addiu	a0,sp,176
9d00cea4:	8fa200b8 	lw	v0,184(sp)
9d00cea8:	24420001 	addiu	v0,v0,1
9d00ceac:	1000ffa4 	b	9d00cd40 <__printf_core+0x3b4>
9d00ceb0:	afa200b8 	sw	v0,184(sp)
9d00ceb4:	24020080 	li	v0,128
9d00ceb8:	14a2fffa 	bne	a1,v0,9d00cea4 <__printf_core+0x518>
9d00cebc:	8fa200b8 	lw	v0,184(sp)
9d00cec0:	24070001 	li	a3,1
9d00cec4:	27a600b0 	addiu	a2,sp,176
9d00cec8:	24420001 	addiu	v0,v0,1
9d00cecc:	afa200b8 	sw	v0,184(sp)
9d00ced0:	8e220000 	lw	v0,0(s1)
9d00ced4:	24430004 	addiu	v1,v0,4
9d00ced8:	8c420000 	lw	v0,0(v0)
9d00cedc:	ae230000 	sw	v1,0(s1)
9d00cee0:	a3a200b0 	sb	v0,176(sp)
9d00cee4:	27a50098 	addiu	a1,sp,152
9d00cee8:	0f4052e8 	jal	9d014ba0 <__fmt_s>
9d00ceec:	02402025 	move	a0,s2
9d00cef0:	1000ff93 	b	9d00cd40 <__printf_core+0x3b4>
9d00cef4:	02028021 	addu	s0,s0,v0
9d00cef8:	24020080 	li	v0,128
9d00cefc:	14a2ffe9 	bne	a1,v0,9d00cea4 <__printf_core+0x518>
9d00cf00:	8fa200b8 	lw	v0,184(sp)
9d00cf04:	8fa700a0 	lw	a3,160(sp)
9d00cf08:	24420001 	addiu	v0,v0,1
9d00cf0c:	afa200b8 	sw	v0,184(sp)
9d00cf10:	8fa20098 	lw	v0,152(sp)
9d00cf14:	afa20010 	sw	v0,16(sp)
9d00cf18:	3c059d00 	lui	a1,0x9d00
9d00cf1c:	24060001 	li	a2,1
9d00cf20:	1000ffd8 	b	9d00ce84 <__printf_core+0x4f8>
9d00cf24:	24a574d0 	addiu	a1,a1,29904
9d00cf28:	1000fea5 	b	9d00c9c0 <__printf_core+0x34>
9d00cf2c:	02009825 	move	s3,s0

Disassembly of section .text.dp32mul:

9d00cf30 <__divdf3>:
9d00cf30:	00055040 000a5542 00054ac0 00047d42     @P..BU...J..B}..
9d00cf40:	012f4825 000442c0 3c0e8000 012e4825     %H/..B.....<%H..
9d00cf50:	00076840 000d6d42 000762c0 00067d42     @h..Bm...b..B}..
9d00cf60:	018f6025 00065ac0 018e6025 00a72826     %`...Z..%`..&(..
9d00cf70:	00ae2824 254fffff 2de107fe 102000cb     $(....O%...-.. .
9d00cf80:	00000000                                ....

9d00cf84 <Dlab1>:
9d00cf84:	25afffff 	addiu	t7,t5,-1
9d00cf88:	2de107fe 	sltiu	at,t7,2046
9d00cf8c:	102000f4 	beqz	at,9d00d360 <DspecB>
9d00cf90:	00000000 	nop

9d00cf94 <Dlab2>:
9d00cf94:	014d5023 	subu	t2,t2,t5
9d00cf98:	254a03ff 	addiu	t2,t2,1023
9d00cf9c:	00084042 	srl	t0,t0,0x1
9d00cfa0:	00097fc0 	sll	t7,t1,0x1f
9d00cfa4:	010f4025 	or	t0,t0,t7
9d00cfa8:	00094842 	srl	t1,t1,0x1
9d00cfac:	000c3c02 	srl	a3,t4,0x10
9d00cfb0:	00e001f4 	teq	a3,zero,0x7
9d00cfb4:	0127001b 	divu	zero,t1,a3
9d00cfb8:	00007012 	mflo	t6
9d00cfbc:	00004810 	mfhi	t1
9d00cfc0:	3186ffff 	andi	a2,t4,0xffff
9d00cfc4:	00ce0019 	multu	a2,t6
9d00cfc8:	00002012 	mflo	a0
9d00cfcc:	00094c00 	sll	t1,t1,0x10
9d00cfd0:	00087c02 	srl	t7,t0,0x10
9d00cfd4:	012f4825 	or	t1,t1,t7
9d00cfd8:	0124782b 	sltu	t7,t1,a0
9d00cfdc:	11e00006 	beqz	t7,9d00cff8 <i20>
9d00cfe0:	01244823 	subu	t1,t1,a0

9d00cfe4 <b21>:
9d00cfe4:	25ceffff 	addiu	t6,t6,-1
9d00cfe8:	012c4821 	addu	t1,t1,t4
9d00cfec:	012c082b 	sltu	at,t1,t4
9d00cff0:	1020fffc 	beqz	at,9d00cfe4 <b21>
9d00cff4:	00000000 	nop

9d00cff8 <i20>:
9d00cff8:	00e001f4 	teq	a3,zero,0x7
9d00cffc:	0127001b 	divu	zero,t1,a3
9d00d000:	00003812 	mflo	a3
9d00d004:	00004810 	mfhi	t1
9d00d008:	00c70019 	multu	a2,a3
9d00d00c:	00002012 	mflo	a0
9d00d010:	00094c00 	sll	t1,t1,0x10
9d00d014:	310fffff 	andi	t7,t0,0xffff
9d00d018:	012f4825 	or	t1,t1,t7
9d00d01c:	0124782b 	sltu	t7,t1,a0
9d00d020:	11e00006 	beqz	t7,9d00d03c <i22>
9d00d024:	01244823 	subu	t1,t1,a0

9d00d028 <b23>:
9d00d028:	24e7ffff 	addiu	a3,a3,-1
9d00d02c:	012c4821 	addu	t1,t1,t4
9d00d030:	012c082b 	sltu	at,t1,t4
9d00d034:	1020fffc 	beqz	at,9d00d028 <b23>
9d00d038:	00000000 	nop

9d00d03c <i22>:
9d00d03c:	000e7400 	sll	t6,t6,0x10
9d00d040:	01c77021 	addu	t6,t6,a3
9d00d044:	01cb0019 	multu	t6,t3
9d00d048:	00003812 	mflo	a3
9d00d04c:	00002010 	mfhi	a0
9d00d050:	24080000 	li	t0,0
9d00d054:	0107782b 	sltu	t7,t0,a3
9d00d058:	01074023 	subu	t0,t0,a3
9d00d05c:	012f102b 	sltu	v0,t1,t7
9d00d060:	012f4823 	subu	t1,t1,t7
9d00d064:	0124782b 	sltu	t7,t1,a0
9d00d068:	01e27825 	or	t7,t7,v0
9d00d06c:	11e0000b 	beqz	t7,9d00d09c <i24>
9d00d070:	01244823 	subu	t1,t1,a0

9d00d074 <Dlab3>:
9d00d074:	25ceffff 	addiu	t6,t6,-1
9d00d078:	010b4021 	addu	t0,t0,t3
9d00d07c:	010b782b 	sltu	t7,t0,t3
9d00d080:	012c4821 	addu	t1,t1,t4
9d00d084:	012f4821 	addu	t1,t1,t7
9d00d088:	112c0002 	beq	t1,t4,9d00d094 <L31>
9d00d08c:	00000000 	nop
9d00d090:	012c782b 	sltu	t7,t1,t4

9d00d094 <L31>:
9d00d094:	11e0fff7 	beqz	t7,9d00d074 <Dlab3>
9d00d098:	00000000 	nop

9d00d09c <i24>:
9d00d09c:	152c0006 	bne	t1,t4,9d00d0b8 <i25>
9d00d0a0:	00000000 	nop
9d00d0a4:	000b2025 	or	a0,zero,t3
9d00d0a8:	00084825 	or	t1,zero,t0
9d00d0ac:	240d0000 	li	t5,0
9d00d0b0:	1000002a 	b	9d00d15c <e25>
9d00d0b4:	000d3825 	or	a3,zero,t5

9d00d0b8 <i25>:
9d00d0b8:	000c3c02 	srl	a3,t4,0x10
9d00d0bc:	00e001f4 	teq	a3,zero,0x7
9d00d0c0:	0127001b 	divu	zero,t1,a3
9d00d0c4:	00006812 	mflo	t5
9d00d0c8:	00004810 	mfhi	t1
9d00d0cc:	3186ffff 	andi	a2,t4,0xffff
9d00d0d0:	00cd0019 	multu	a2,t5
9d00d0d4:	00002012 	mflo	a0
9d00d0d8:	00094c00 	sll	t1,t1,0x10
9d00d0dc:	00087c02 	srl	t7,t0,0x10
9d00d0e0:	012f4825 	or	t1,t1,t7
9d00d0e4:	0124782b 	sltu	t7,t1,a0
9d00d0e8:	11e00006 	beqz	t7,9d00d104 <i26>
9d00d0ec:	01244823 	subu	t1,t1,a0

9d00d0f0 <b27>:
9d00d0f0:	25adffff 	addiu	t5,t5,-1
9d00d0f4:	012c4821 	addu	t1,t1,t4
9d00d0f8:	012c082b 	sltu	at,t1,t4
9d00d0fc:	1020fffc 	beqz	at,9d00d0f0 <b27>
9d00d100:	00000000 	nop

9d00d104 <i26>:
9d00d104:	00e001f4 	teq	a3,zero,0x7
9d00d108:	0127001b 	divu	zero,t1,a3
9d00d10c:	00003812 	mflo	a3
9d00d110:	00004810 	mfhi	t1
9d00d114:	00c70019 	multu	a2,a3
9d00d118:	00002012 	mflo	a0
9d00d11c:	00094c00 	sll	t1,t1,0x10
9d00d120:	310fffff 	andi	t7,t0,0xffff
9d00d124:	012f4825 	or	t1,t1,t7
9d00d128:	0124782b 	sltu	t7,t1,a0
9d00d12c:	11e00006 	beqz	t7,9d00d148 <i28>
9d00d130:	01244823 	subu	t1,t1,a0

9d00d134 <b29>:
9d00d134:	24e7ffff 	addiu	a3,a3,-1
9d00d138:	012c4821 	addu	t1,t1,t4
9d00d13c:	012c082b 	sltu	at,t1,t4
9d00d140:	1020fffc 	beqz	at,9d00d134 <b29>
9d00d144:	00000000 	nop

9d00d148 <i28>:
9d00d148:	000d6c00 	sll	t5,t5,0x10
9d00d14c:	01a76821 	addu	t5,t5,a3
9d00d150:	01ab0019 	multu	t5,t3
9d00d154:	00003812 	mflo	a3
9d00d158:	00002010 	mfhi	a0

9d00d15c <e25>:
9d00d15c:	24080000 	li	t0,0
9d00d160:	0107782b 	sltu	t7,t0,a3
9d00d164:	01074023 	subu	t0,t0,a3
9d00d168:	012f102b 	sltu	v0,t1,t7
9d00d16c:	012f4823 	subu	t1,t1,t7
9d00d170:	0124782b 	sltu	t7,t1,a0
9d00d174:	01e27825 	or	t7,t7,v0
9d00d178:	11e0000b 	beqz	t7,9d00d1a8 <i30>
9d00d17c:	01244823 	subu	t1,t1,a0

9d00d180 <Dlab4>:
9d00d180:	25adffff 	addiu	t5,t5,-1
9d00d184:	010b4021 	addu	t0,t0,t3
9d00d188:	010b782b 	sltu	t7,t0,t3
9d00d18c:	012c4821 	addu	t1,t1,t4
9d00d190:	012f4821 	addu	t1,t1,t7
9d00d194:	112c0002 	beq	t1,t4,9d00d1a0 <L32>
9d00d198:	00000000 	nop
9d00d19c:	012c782b 	sltu	t7,t1,t4

9d00d1a0 <L32>:
9d00d1a0:	11e0fff7 	beqz	t7,9d00d180 <Dlab4>
9d00d1a4:	00000000 	nop

9d00d1a8 <i30>:
9d00d1a8:	05c00006 	bltz	t6,9d00d1c4 <i31>
9d00d1ac:	00000000 	nop
9d00d1b0:	01a0782a 	slt	t7,t5,zero
9d00d1b4:	01ad6821 	addu	t5,t5,t5
9d00d1b8:	01ce7021 	addu	t6,t6,t6
9d00d1bc:	01cf7021 	addu	t6,t6,t7
9d00d1c0:	254affff 	addiu	t2,t2,-1

9d00d1c4 <i31>:
9d00d1c4:	01287825 	or	t7,t1,t0
9d00d1c8:	11e00002 	beqz	t7,9d00d1d4 <i32>
9d00d1cc:	00000000 	nop
9d00d1d0:	35ad0001 	ori	t5,t5,0x1

9d00d1d4 <i32>:
9d00d1d4:	000e4825 	or	t1,zero,t6
9d00d1d8:	000d4025 	or	t0,zero,t5
9d00d1dc:	254fffff 	addiu	t7,t2,-1
9d00d1e0:	2de107fe 	sltiu	at,t7,2046
9d00d1e4:	10200015 	beqz	at,9d00d23c <Doveund>
9d00d1e8:	00000000 	nop
9d00d1ec:	25080400 	addiu	t0,t0,1024
9d00d1f0:	2d0f0400 	sltiu	t7,t0,1024
9d00d1f4:	012f4821 	addu	t1,t1,t7
9d00d1f8:	012f782b 	sltu	t7,t1,t7
9d00d1fc:	014f5021 	addu	t2,t2,t7

9d00d200 <Dlab8>:
9d00d200:	00087ac2 	srl	t7,t0,0xb
9d00d204:	31ef0001 	andi	t7,t7,0x1
9d00d208:	010f4023 	subu	t0,t0,t7
9d00d20c:	000822c2 	srl	a0,t0,0xb
9d00d210:	00097d40 	sll	t7,t1,0x15
9d00d214:	008f2025 	or	a0,a0,t7
9d00d218:	00097840 	sll	t7,t1,0x1
9d00d21c:	000f7b02 	srl	t7,t7,0xc
9d00d220:	00af2825 	or	a1,a1,t7
9d00d224:	000a7d00 	sll	t7,t2,0x14
9d00d228:	00af2825 	or	a1,a1,t7

9d00d22c <Dret>:
9d00d22c:	00041025 	or	v0,zero,a0
9d00d230:	00051825 	or	v1,zero,a1

9d00d234 <D999>:
9d00d234:	03e00008 	jr	ra
9d00d238:	00000000 	nop

9d00d23c <Doveund>:
9d00d23c:	1d400044 	bgtz	t2,9d00d350 <Dinf>
9d00d240:	00000000 	nop
9d00d244:	240e0001 	li	t6,1
9d00d248:	01ca7023 	subu	t6,t6,t2

9d00d24c <L33>:
9d00d24c:	2dc10020 	sltiu	at,t6,32
9d00d250:	14200007 	bnez	at,9d00d270 <L34>
9d00d254:	00000000 	nop
9d00d258:	21ceffe0 	addi	t6,t6,-32
9d00d25c:	0008202b 	sltu	a0,zero,t0
9d00d260:	1009000d 	beq	zero,t1,9d00d298 <L35>
9d00d264:	01244025 	or	t0,t1,a0
9d00d268:	1000fff8 	b	9d00d24c <L33>
9d00d26c:	34090000 	li	t1,0x0

9d00d270 <L34>:
9d00d270:	11c00009 	beqz	t6,9d00d298 <L35>
9d00d274:	00000000 	nop
9d00d278:	000e3022 	neg	a2,t6
9d00d27c:	00c82004 	sllv	a0,t0,a2
9d00d280:	00c93004 	sllv	a2,t1,a2
9d00d284:	01c84006 	srlv	t0,t0,t6
9d00d288:	01c94806 	srlv	t1,t1,t6
9d00d28c:	10800002 	beqz	a0,9d00d298 <L35>
9d00d290:	00c84025 	or	t0,a2,t0
9d00d294:	35080002 	ori	t0,t0,0x2

9d00d298 <L35>:
9d00d298:	25080400 	addiu	t0,t0,1024
9d00d29c:	2d0f0400 	sltiu	t7,t0,1024
9d00d2a0:	012f4821 	addu	t1,t1,t7
9d00d2a4:	1000ffd6 	b	9d00d200 <Dlab8>
9d00d2a8:	000957c2 	srl	t2,t1,0x1f

9d00d2ac <DspecA>:
9d00d2ac:	0100782a 	slt	t7,t0,zero
9d00d2b0:	01084021 	addu	t0,t0,t0
9d00d2b4:	01294821 	addu	t1,t1,t1
9d00d2b8:	15400017 	bnez	t2,9d00d318 <i33>
9d00d2bc:	012f4821 	addu	t1,t1,t7
9d00d2c0:	01287825 	or	t7,t1,t0
9d00d2c4:	11e00014 	beqz	t7,9d00d318 <i33>
9d00d2c8:	00000000 	nop
9d00d2cc:	15200008 	bnez	t1,9d00d2f0 <L36>
9d00d2d0:	00000000 	nop
9d00d2d4:	15000003 	bnez	t0,9d00d2e4 <L37>
9d00d2d8:	00000000 	nop
9d00d2dc:	1000ff29 	b	9d00cf84 <Dlab1>
9d00d2e0:	240a0000 	li	t2,0

9d00d2e4 <L37>:
9d00d2e4:	01004825 	move	t1,t0
9d00d2e8:	24080000 	li	t0,0
9d00d2ec:	254affe0 	addiu	t2,t2,-32

9d00d2f0 <L36>:
9d00d2f0:	712e7020 	clz	t6,t1
9d00d2f4:	11c0ff23 	beqz	t6,9d00cf84 <Dlab1>
9d00d2f8:	00000000 	nop
9d00d2fc:	014e5023 	subu	t2,t2,t6
9d00d300:	000e3022 	neg	a2,t6
9d00d304:	00c83006 	srlv	a2,t0,a2
9d00d308:	01c84004 	sllv	t0,t0,t6
9d00d30c:	01c94804 	sllv	t1,t1,t6
9d00d310:	1000ff1c 	b	9d00cf84 <Dlab1>
9d00d314:	01264825 	or	t1,t1,a2

9d00d318 <i33>:
9d00d318:	154d0005 	bne	t2,t5,9d00d330 <i35>
9d00d31c:	00000000 	nop
9d00d320:	000c7840 	sll	t7,t4,0x1
9d00d324:	01eb7825 	or	t7,t7,t3
9d00d328:	11e0002b 	beqz	t7,9d00d3d8 <Dnan>
9d00d32c:	00000000 	nop

9d00d330 <i35>:
9d00d330:	240107ff 	li	at,2047
9d00d334:	11a1000a 	beq	t5,at,9d00d360 <DspecB>
9d00d338:	00000000 	nop
9d00d33c:	1140ffbb 	beqz	t2,9d00d22c <Dret>
9d00d340:	00000000 	nop
9d00d344:	01287825 	or	t7,t1,t0
9d00d348:	15e00023 	bnez	t7,9d00d3d8 <Dnan>
9d00d34c:	00000000 	nop

9d00d350 <Dinf>:
9d00d350:	3c017ff0 	lui	at,0x7ff0
9d00d354:	00a12825 	or	a1,a1,at
9d00d358:	1000ffb4 	b	9d00d22c <Dret>
9d00d35c:	24040000 	li	a0,0

9d00d360 <DspecB>:
9d00d360:	0160782a 	slt	t7,t3,zero
9d00d364:	016b5821 	addu	t3,t3,t3
9d00d368:	018c6021 	addu	t4,t4,t4
9d00d36c:	15a00017 	bnez	t5,9d00d3cc <i36>
9d00d370:	018f6021 	addu	t4,t4,t7
9d00d374:	018b7825 	or	t7,t4,t3
9d00d378:	11e0fff5 	beqz	t7,9d00d350 <Dinf>
9d00d37c:	00000000 	nop
9d00d380:	15800008 	bnez	t4,9d00d3a4 <L39>
9d00d384:	00000000 	nop
9d00d388:	15600003 	bnez	t3,9d00d398 <L40>
9d00d38c:	00000000 	nop
9d00d390:	1000ff00 	b	9d00cf94 <Dlab2>
9d00d394:	240d0000 	li	t5,0

9d00d398 <L40>:
9d00d398:	01606025 	move	t4,t3
9d00d39c:	240b0000 	li	t3,0
9d00d3a0:	25adffe0 	addiu	t5,t5,-32

9d00d3a4 <L39>:
9d00d3a4:	718e7020 	clz	t6,t4
9d00d3a8:	11c0fefa 	beqz	t6,9d00cf94 <Dlab2>
9d00d3ac:	00000000 	nop
9d00d3b0:	01ae6823 	subu	t5,t5,t6
9d00d3b4:	000e3022 	neg	a2,t6
9d00d3b8:	00cb3006 	srlv	a2,t3,a2
9d00d3bc:	01cb5804 	sllv	t3,t3,t6
9d00d3c0:	01cc6004 	sllv	t4,t4,t6
9d00d3c4:	1000fef3 	b	9d00cf94 <Dlab2>
9d00d3c8:	01866025 	or	t4,t4,a2

9d00d3cc <i36>:
9d00d3cc:	018b7825 	or	t7,t4,t3
9d00d3d0:	11e00002 	beqz	t7,9d00d3dc <i38>
9d00d3d4:	00000000 	nop

9d00d3d8 <Dnan>:
9d00d3d8:	3c05fff8 	lui	a1,0xfff8

9d00d3dc <i38>:
9d00d3dc:	1000ff93 	b	9d00d22c <Dret>
9d00d3e0:	24040000 	li	a0,0
9d00d3e4:	00000000 	nop

Disassembly of section .text.dreml:

9d00d3e8 <dreml>:
9d00d3e8:	27bdffa8 	addiu	sp,sp,-88
9d00d3ec:	afa70064 	sw	a3,100(sp)
9d00d3f0:	afa5005c 	sw	a1,92(sp)
9d00d3f4:	afbe0050 	sw	s8,80(sp)
9d00d3f8:	afb10034 	sw	s1,52(sp)
9d00d3fc:	97be005e 	lhu	s8,94(sp)
9d00d400:	97b10066 	lhu	s1,102(sp)
9d00d404:	afb40040 	sw	s4,64(sp)
9d00d408:	afb00030 	sw	s0,48(sp)
9d00d40c:	24147ff0 	li	s4,32752
9d00d410:	32307fff 	andi	s0,s1,0x7fff
9d00d414:	33c27ff0 	andi	v0,s8,0x7ff0
9d00d418:	afbf0054 	sw	ra,84(sp)
9d00d41c:	afb7004c 	sw	s7,76(sp)
9d00d420:	afb60048 	sw	s6,72(sp)
9d00d424:	afb50044 	sw	s5,68(sp)
9d00d428:	afb3003c 	sw	s3,60(sp)
9d00d42c:	afb20038 	sw	s2,56(sp)
9d00d430:	afa60060 	sw	a2,96(sp)
9d00d434:	afa40058 	sw	a0,88(sp)
9d00d438:	105400a6 	beq	v0,s4,9d00d6d4 <dreml+0x2ec>
9d00d43c:	a7b00066 	sh	s0,102(sp)
9d00d440:	8fb20060 	lw	s2,96(sp)
9d00d444:	8fb30064 	lw	s3,100(sp)
9d00d448:	00003025 	move	a2,zero
9d00d44c:	00003825 	move	a3,zero
9d00d450:	02402025 	move	a0,s2
9d00d454:	0f40462a 	jal	9d0118a8 <__eqdf2>
9d00d458:	02602825 	move	a1,s3
9d00d45c:	10400088 	beqz	v0,9d00d680 <dreml+0x298>
9d00d460:	32317ff0 	andi	s1,s1,0x7ff0
9d00d464:	123400b3 	beq	s1,s4,9d00d734 <dreml+0x34c>
9d00d468:	00108103 	sra	s0,s0,0x4
9d00d46c:	321007fe 	andi	s0,s0,0x7fe
9d00d470:	120000cb 	beqz	s0,9d00d7a0 <dreml+0x3b8>
9d00d474:	3c109d00 	lui	s0,0x9d00
9d00d478:	8e067560 	lw	a2,30048(s0)
9d00d47c:	8e077564 	lw	a3,30052(s0)
9d00d480:	02402025 	move	a0,s2
9d00d484:	0f403d0b 	jal	9d00f42c <__muldf3>
9d00d488:	02602825 	move	a1,s3
9d00d48c:	afa20020 	sw	v0,32(sp)
9d00d490:	3c029d00 	lui	v0,0x9d00
9d00d494:	8c467568 	lw	a2,30056(v0)
9d00d498:	8c47756c 	lw	a3,30060(v0)
9d00d49c:	02402025 	move	a0,s2
9d00d4a0:	02602825 	move	a1,s3
9d00d4a4:	0f40462a 	jal	9d0118a8 <__eqdf2>
9d00d4a8:	afa30024 	sw	v1,36(sp)
9d00d4ac:	044100aa 	bgez	v0,9d00d758 <dreml+0x370>
9d00d4b0:	33c87fff 	andi	t0,s8,0x7fff
9d00d4b4:	02403025 	move	a2,s2
9d00d4b8:	02603825 	move	a3,s3
9d00d4bc:	02402025 	move	a0,s2
9d00d4c0:	02602825 	move	a1,s3
9d00d4c4:	0f40382f 	jal	9d00e0bc <__adddf3>
9d00d4c8:	afa80018 	sw	t0,24(sp)
9d00d4cc:	8fa80018 	lw	t0,24(sp)
9d00d4d0:	8fb00058 	lw	s0,88(sp)
9d00d4d4:	7c1e7004 	ins	s8,zero,0x0,0xf
9d00d4d8:	a7a8005e 	sh	t0,94(sp)
9d00d4dc:	8fb1005c 	lw	s1,92(sp)
9d00d4e0:	00402025 	move	a0,v0
9d00d4e4:	0040a825 	move	s5,v0
9d00d4e8:	00602825 	move	a1,v1
9d00d4ec:	7c1e1620 	seh	v0,s8
9d00d4f0:	02003025 	move	a2,s0
9d00d4f4:	02203825 	move	a3,s1
9d00d4f8:	0003b402 	srl	s6,v1,0x10
9d00d4fc:	0060a025 	move	s4,v1
9d00d500:	0f404675 	jal	9d0119d4 <dpcmplt>
9d00d504:	afa20028 	sw	v0,40(sp)
9d00d508:	32d77ff0 	andi	s7,s6,0x7ff0
9d00d50c:	04400003 	bltz	v0,9d00d51c <dreml+0x134>
9d00d510:	8fa80018 	lw	t0,24(sp)
9d00d514:	10000029 	b	9d00d5bc <dreml+0x1d4>
9d00d518:	8fb40020 	lw	s4,32(sp)
9d00d51c:	31037ff0 	andi	v1,t0,0x7ff0
9d00d520:	02c31821 	addu	v1,s6,v1
9d00d524:	00771823 	subu	v1,v1,s7
9d00d528:	307effff 	andi	s8,v1,0xffff
9d00d52c:	afb40014 	sw	s4,20(sp)
9d00d530:	afb50010 	sw	s5,16(sp)
9d00d534:	a7be0016 	sh	s8,22(sp)
9d00d538:	8fa80010 	lw	t0,16(sp)
9d00d53c:	8fa90014 	lw	t1,20(sp)
9d00d540:	02003025 	move	a2,s0
9d00d544:	01002025 	move	a0,t0
9d00d548:	01202825 	move	a1,t1
9d00d54c:	02203825 	move	a3,s1
9d00d550:	afa80018 	sw	t0,24(sp)
9d00d554:	0f40462a 	jal	9d0118a8 <__eqdf2>
9d00d558:	afa9001c 	sw	t1,28(sp)
9d00d55c:	02002025 	move	a0,s0
9d00d560:	02202825 	move	a1,s1
9d00d564:	27c3fff0 	addiu	v1,s8,-16
9d00d568:	8fa80018 	lw	t0,24(sp)
9d00d56c:	18400004 	blez	v0,9d00d580 <dreml+0x198>
9d00d570:	8fa9001c 	lw	t1,28(sp)
9d00d574:	a7a30016 	sh	v1,22(sp)
9d00d578:	8fa80010 	lw	t0,16(sp)
9d00d57c:	8fa90014 	lw	t1,20(sp)
9d00d580:	01003025 	move	a2,t0
9d00d584:	0f40382d 	jal	9d00e0b4 <__subdf3>
9d00d588:	01203825 	move	a3,t1
9d00d58c:	00403025 	move	a2,v0
9d00d590:	02a02025 	move	a0,s5
9d00d594:	02802825 	move	a1,s4
9d00d598:	00603825 	move	a3,v1
9d00d59c:	00408025 	move	s0,v0
9d00d5a0:	00608825 	move	s1,v1
9d00d5a4:	afa20058 	sw	v0,88(sp)
9d00d5a8:	0f404675 	jal	9d0119d4 <dpcmplt>
9d00d5ac:	afa3005c 	sw	v1,92(sp)
9d00d5b0:	0440ffda 	bltz	v0,9d00d51c <dreml+0x134>
9d00d5b4:	97a8005e 	lhu	t0,94(sp)
9d00d5b8:	8fb40020 	lw	s4,32(sp)
9d00d5bc:	8fb50024 	lw	s5,36(sp)
9d00d5c0:	02002025 	move	a0,s0
9d00d5c4:	02803025 	move	a2,s4
9d00d5c8:	02a03825 	move	a3,s5
9d00d5cc:	0f40462a 	jal	9d0118a8 <__eqdf2>
9d00d5d0:	02202825 	move	a1,s1
9d00d5d4:	18400017 	blez	v0,9d00d634 <dreml+0x24c>
9d00d5d8:	97a2005e 	lhu	v0,94(sp)
9d00d5dc:	02002025 	move	a0,s0
9d00d5e0:	02202825 	move	a1,s1
9d00d5e4:	02403025 	move	a2,s2
9d00d5e8:	0f40382d 	jal	9d00e0b4 <__subdf3>
9d00d5ec:	02603825 	move	a3,s3
9d00d5f0:	00402025 	move	a0,v0
9d00d5f4:	02803025 	move	a2,s4
9d00d5f8:	02a03825 	move	a3,s5
9d00d5fc:	00602825 	move	a1,v1
9d00d600:	00408025 	move	s0,v0
9d00d604:	0f40462a 	jal	9d0118a8 <__eqdf2>
9d00d608:	00608825 	move	s1,v1
9d00d60c:	04420089 	bltzl	v0,9d00d834 <dreml+0x44c>
9d00d610:	afb00058 	sw	s0,88(sp)
9d00d614:	02403025 	move	a2,s2
9d00d618:	02603825 	move	a3,s3
9d00d61c:	02002025 	move	a0,s0
9d00d620:	0f40382d 	jal	9d00e0b4 <__subdf3>
9d00d624:	02202825 	move	a1,s1
9d00d628:	afa20058 	sw	v0,88(sp)
9d00d62c:	afa3005c 	sw	v1,92(sp)
9d00d630:	97a2005e 	lhu	v0,94(sp)
9d00d634:	8fa30028 	lw	v1,40(sp)
9d00d638:	0062f026 	xor	s8,v1,v0
9d00d63c:	a7be005e 	sh	s8,94(sp)
9d00d640:	8fb20058 	lw	s2,88(sp)
9d00d644:	8fb3005c 	lw	s3,92(sp)
9d00d648:	8fbf0054 	lw	ra,84(sp)
9d00d64c:	02401025 	move	v0,s2
9d00d650:	02601825 	move	v1,s3
9d00d654:	8fbe0050 	lw	s8,80(sp)
9d00d658:	8fb7004c 	lw	s7,76(sp)
9d00d65c:	8fb60048 	lw	s6,72(sp)
9d00d660:	8fb50044 	lw	s5,68(sp)
9d00d664:	8fb40040 	lw	s4,64(sp)
9d00d668:	8fb3003c 	lw	s3,60(sp)
9d00d66c:	8fb20038 	lw	s2,56(sp)
9d00d670:	8fb10034 	lw	s1,52(sp)
9d00d674:	8fb00030 	lw	s0,48(sp)
9d00d678:	03e00008 	jr	ra
9d00d67c:	27bd0058 	addiu	sp,sp,88
9d00d680:	00003025 	move	a2,zero
9d00d684:	00003825 	move	a3,zero
9d00d688:	00c02025 	move	a0,a2
9d00d68c:	0f4033cc 	jal	9d00cf30 <__divdf3>
9d00d690:	00e02825 	move	a1,a3
9d00d694:	00409025 	move	s2,v0
9d00d698:	00609825 	move	s3,v1
9d00d69c:	8fbf0054 	lw	ra,84(sp)
9d00d6a0:	02401025 	move	v0,s2
9d00d6a4:	02601825 	move	v1,s3
9d00d6a8:	8fbe0050 	lw	s8,80(sp)
9d00d6ac:	8fb7004c 	lw	s7,76(sp)
9d00d6b0:	8fb60048 	lw	s6,72(sp)
9d00d6b4:	8fb50044 	lw	s5,68(sp)
9d00d6b8:	8fb40040 	lw	s4,64(sp)
9d00d6bc:	8fb3003c 	lw	s3,60(sp)
9d00d6c0:	8fb20038 	lw	s2,56(sp)
9d00d6c4:	8fb10034 	lw	s1,52(sp)
9d00d6c8:	8fb00030 	lw	s0,48(sp)
9d00d6cc:	03e00008 	jr	ra
9d00d6d0:	27bd0058 	addiu	sp,sp,88
9d00d6d4:	8fa60060 	lw	a2,96(sp)
9d00d6d8:	0f40382d 	jal	9d00e0b4 <__subdf3>
9d00d6dc:	8fa70064 	lw	a3,100(sp)
9d00d6e0:	00403025 	move	a2,v0
9d00d6e4:	00603825 	move	a3,v1
9d00d6e8:	00402025 	move	a0,v0
9d00d6ec:	0f40382d 	jal	9d00e0b4 <__subdf3>
9d00d6f0:	00602825 	move	a1,v1
9d00d6f4:	8fbf0054 	lw	ra,84(sp)
9d00d6f8:	00409025 	move	s2,v0
9d00d6fc:	00609825 	move	s3,v1
9d00d700:	02401025 	move	v0,s2
9d00d704:	02601825 	move	v1,s3
9d00d708:	8fbe0050 	lw	s8,80(sp)
9d00d70c:	8fb7004c 	lw	s7,76(sp)
9d00d710:	8fb60048 	lw	s6,72(sp)
9d00d714:	8fb50044 	lw	s5,68(sp)
9d00d718:	8fb40040 	lw	s4,64(sp)
9d00d71c:	8fb3003c 	lw	s3,60(sp)
9d00d720:	8fb20038 	lw	s2,56(sp)
9d00d724:	8fb10034 	lw	s1,52(sp)
9d00d728:	8fb00030 	lw	s0,48(sp)
9d00d72c:	03e00008 	jr	ra
9d00d730:	27bd0058 	addiu	sp,sp,88
9d00d734:	02403025 	move	a2,s2
9d00d738:	02603825 	move	a3,s3
9d00d73c:	02402025 	move	a0,s2
9d00d740:	0f40462a 	jal	9d0118a8 <__eqdf2>
9d00d744:	02602825 	move	a1,s3
9d00d748:	1440ffd5 	bnez	v0,9d00d6a0 <dreml+0x2b8>
9d00d74c:	8fbf0054 	lw	ra,84(sp)
9d00d750:	1000ffbc 	b	9d00d644 <dreml+0x25c>
9d00d754:	8fb20058 	lw	s2,88(sp)
9d00d758:	8e067560 	lw	a2,30048(s0)
9d00d75c:	8e077564 	lw	a3,30052(s0)
9d00d760:	8fa40058 	lw	a0,88(sp)
9d00d764:	0f403d0b 	jal	9d00f42c <__muldf3>
9d00d768:	8fa5005c 	lw	a1,92(sp)
9d00d76c:	8fa60020 	lw	a2,32(sp)
9d00d770:	8fa70024 	lw	a3,36(sp)
9d00d774:	00402025 	move	a0,v0
9d00d778:	0f4034fa 	jal	9d00d3e8 <dreml>
9d00d77c:	00602825 	move	a1,v1
9d00d780:	00403025 	move	a2,v0
9d00d784:	00603825 	move	a3,v1
9d00d788:	00402025 	move	a0,v0
9d00d78c:	0f40382f 	jal	9d00e0bc <__adddf3>
9d00d790:	00602825 	move	a1,v1
9d00d794:	00409025 	move	s2,v0
9d00d798:	1000ffc0 	b	9d00d69c <dreml+0x2b4>
9d00d79c:	00609825 	move	s3,v1
9d00d7a0:	3c029d00 	lui	v0,0x9d00
9d00d7a4:	8c447558 	lw	a0,30040(v0)
9d00d7a8:	8c45755c 	lw	a1,30044(v0)
9d00d7ac:	0f4043ee 	jal	9d010fb8 <__mchp_ldexp>
9d00d7b0:	24060036 	li	a2,54
9d00d7b4:	00403025 	move	a2,v0
9d00d7b8:	02402025 	move	a0,s2
9d00d7bc:	02602825 	move	a1,s3
9d00d7c0:	00603825 	move	a3,v1
9d00d7c4:	00408025 	move	s0,v0
9d00d7c8:	0f403d0b 	jal	9d00f42c <__muldf3>
9d00d7cc:	00608825 	move	s1,v1
9d00d7d0:	8fa40058 	lw	a0,88(sp)
9d00d7d4:	8fa5005c 	lw	a1,92(sp)
9d00d7d8:	00403025 	move	a2,v0
9d00d7dc:	00603825 	move	a3,v1
9d00d7e0:	00409025 	move	s2,v0
9d00d7e4:	0f4034fa 	jal	9d00d3e8 <dreml>
9d00d7e8:	00609825 	move	s3,v1
9d00d7ec:	00402025 	move	a0,v0
9d00d7f0:	02003025 	move	a2,s0
9d00d7f4:	02203825 	move	a3,s1
9d00d7f8:	0f403d0b 	jal	9d00f42c <__muldf3>
9d00d7fc:	00602825 	move	a1,v1
9d00d800:	00402025 	move	a0,v0
9d00d804:	02403025 	move	a2,s2
9d00d808:	02603825 	move	a3,s3
9d00d80c:	0f4034fa 	jal	9d00d3e8 <dreml>
9d00d810:	00602825 	move	a1,v1
9d00d814:	00402025 	move	a0,v0
9d00d818:	02003025 	move	a2,s0
9d00d81c:	02203825 	move	a3,s1
9d00d820:	0f4033cc 	jal	9d00cf30 <__divdf3>
9d00d824:	00602825 	move	a1,v1
9d00d828:	00409025 	move	s2,v0
9d00d82c:	1000ff9b 	b	9d00d69c <dreml+0x2b4>
9d00d830:	00609825 	move	s3,v1
9d00d834:	1000ff7e 	b	9d00d630 <dreml+0x248>
9d00d838:	afb1005c 	sw	s1,92(sp)

Disassembly of section .text:

9d00d83c <__divdi3>:
9d00d83c:	04a10007 	bgez	a1,9d00d85c <__divdi3+0x20>
9d00d840:	00005025 	move	t2,zero
9d00d844:	00041023 	negu	v0,a0
9d00d848:	0002182b 	sltu	v1,zero,v0
9d00d84c:	00052823 	negu	a1,a1
9d00d850:	00402025 	move	a0,v0
9d00d854:	00a32823 	subu	a1,a1,v1
9d00d858:	240affff 	li	t2,-1
9d00d85c:	04e10008 	bgez	a3,9d00d880 <__divdi3+0x44>
9d00d860:	00c04025 	move	t0,a2
9d00d864:	00061023 	negu	v0,a2
9d00d868:	0002182b 	sltu	v1,zero,v0
9d00d86c:	00073823 	negu	a3,a3
9d00d870:	000a5027 	nor	t2,zero,t2
9d00d874:	00403025 	move	a2,v0
9d00d878:	00e33823 	subu	a3,a3,v1
9d00d87c:	00c04025 	move	t0,a2
9d00d880:	00e01825 	move	v1,a3
9d00d884:	00804825 	move	t1,a0
9d00d888:	14e000ab 	bnez	a3,9d00db38 <__divdi3+0x2fc>
9d00d88c:	00a01025 	move	v0,a1
9d00d890:	00a6302b 	sltu	a2,a1,a2
9d00d894:	10c0003c 	beqz	a2,9d00d988 <__divdi3+0x14c>
9d00d898:	00000000 	nop
9d00d89c:	71052820 	clz	a1,t0
9d00d8a0:	10a00006 	beqz	a1,9d00d8bc <__divdi3+0x80>
9d00d8a4:	00a22004 	sllv	a0,v0,a1
9d00d8a8:	00051023 	negu	v0,a1
9d00d8ac:	00491006 	srlv	v0,t1,v0
9d00d8b0:	00a84004 	sllv	t0,t0,a1
9d00d8b4:	00441025 	or	v0,v0,a0
9d00d8b8:	00a94804 	sllv	t1,t1,a1
9d00d8bc:	00083402 	srl	a2,t0,0x10
9d00d8c0:	0046001b 	divu	zero,v0,a2
9d00d8c4:	00c001f4 	teq	a2,zero,0x7
9d00d8c8:	310bffff 	andi	t3,t0,0xffff
9d00d8cc:	00091402 	srl	v0,t1,0x10
9d00d8d0:	00003812 	mflo	a3
9d00d8d4:	00002010 	mfhi	a0
9d00d8d8:	00042400 	sll	a0,a0,0x10
9d00d8dc:	00821025 	or	v0,a0,v0
9d00d8e0:	71676002 	mul	t4,t3,a3
9d00d8e4:	004c202b 	sltu	a0,v0,t4
9d00d8e8:	1080000a 	beqz	a0,9d00d914 <__divdi3+0xd8>
9d00d8ec:	00e02825 	move	a1,a3
9d00d8f0:	00481021 	addu	v0,v0,t0
9d00d8f4:	0048202b 	sltu	a0,v0,t0
9d00d8f8:	14800006 	bnez	a0,9d00d914 <__divdi3+0xd8>
9d00d8fc:	24e5ffff 	addiu	a1,a3,-1
9d00d900:	004c202b 	sltu	a0,v0,t4
9d00d904:	50800004 	beqzl	a0,9d00d918 <__divdi3+0xdc>
9d00d908:	004c1023 	subu	v0,v0,t4
9d00d90c:	24e5fffe 	addiu	a1,a3,-2
9d00d910:	00481021 	addu	v0,v0,t0
9d00d914:	004c1023 	subu	v0,v0,t4
9d00d918:	0046001b 	divu	zero,v0,a2
9d00d91c:	00c001f4 	teq	a2,zero,0x7
9d00d920:	3129ffff 	andi	t1,t1,0xffff
9d00d924:	00001012 	mflo	v0
9d00d928:	00003010 	mfhi	a2
9d00d92c:	00063400 	sll	a2,a2,0x10
9d00d930:	00c94825 	or	t1,a2,t1
9d00d934:	71625802 	mul	t3,t3,v0
9d00d938:	012b302b 	sltu	a2,t1,t3
9d00d93c:	10c00008 	beqz	a2,9d00d960 <__divdi3+0x124>
9d00d940:	00402025 	move	a0,v0
9d00d944:	01094821 	addu	t1,t0,t1
9d00d948:	0128402b 	sltu	t0,t1,t0
9d00d94c:	15000004 	bnez	t0,9d00d960 <__divdi3+0x124>
9d00d950:	2444ffff 	addiu	a0,v0,-1
9d00d954:	012b482b 	sltu	t1,t1,t3
9d00d958:	55200001 	bnezl	t1,9d00d960 <__divdi3+0x124>
9d00d95c:	2444fffe 	addiu	a0,v0,-2
9d00d960:	00051400 	sll	v0,a1,0x10
9d00d964:	00441025 	or	v0,v0,a0
9d00d968:	11400005 	beqz	t2,9d00d980 <__divdi3+0x144>
9d00d96c:	00000000 	nop
9d00d970:	00021023 	negu	v0,v0
9d00d974:	0002202b 	sltu	a0,zero,v0
9d00d978:	00031823 	negu	v1,v1
9d00d97c:	00641823 	subu	v1,v1,a0
9d00d980:	03e00008 	jr	ra
9d00d984:	00000000 	nop
9d00d988:	15000006 	bnez	t0,9d00d9a4 <__divdi3+0x168>
9d00d98c:	710b5820 	clz	t3,t0
9d00d990:	24080001 	li	t0,1
9d00d994:	0107001b 	divu	zero,t0,a3
9d00d998:	00e001f4 	teq	a3,zero,0x7
9d00d99c:	00004012 	mflo	t0
9d00d9a0:	710b5820 	clz	t3,t0
9d00d9a4:	1560002d 	bnez	t3,9d00da5c <__divdi3+0x220>
9d00d9a8:	24030001 	li	v1,1
9d00d9ac:	00a82823 	subu	a1,a1,t0
9d00d9b0:	00083c02 	srl	a3,t0,0x10
9d00d9b4:	00a7001b 	divu	zero,a1,a3
9d00d9b8:	00e001f4 	teq	a3,zero,0x7
9d00d9bc:	310bffff 	andi	t3,t0,0xffff
9d00d9c0:	00091402 	srl	v0,t1,0x10
9d00d9c4:	00002812 	mflo	a1
9d00d9c8:	00002010 	mfhi	a0
9d00d9cc:	00042400 	sll	a0,a0,0x10
9d00d9d0:	00821025 	or	v0,a0,v0
9d00d9d4:	71656002 	mul	t4,t3,a1
9d00d9d8:	004c202b 	sltu	a0,v0,t4
9d00d9dc:	1080000a 	beqz	a0,9d00da08 <__divdi3+0x1cc>
9d00d9e0:	00a03025 	move	a2,a1
9d00d9e4:	00481021 	addu	v0,v0,t0
9d00d9e8:	0048202b 	sltu	a0,v0,t0
9d00d9ec:	14800006 	bnez	a0,9d00da08 <__divdi3+0x1cc>
9d00d9f0:	24a6ffff 	addiu	a2,a1,-1
9d00d9f4:	004c202b 	sltu	a0,v0,t4
9d00d9f8:	50800004 	beqzl	a0,9d00da0c <__divdi3+0x1d0>
9d00d9fc:	004c1023 	subu	v0,v0,t4
9d00da00:	24a6fffe 	addiu	a2,a1,-2
9d00da04:	00481021 	addu	v0,v0,t0
9d00da08:	004c1023 	subu	v0,v0,t4
9d00da0c:	0047001b 	divu	zero,v0,a3
9d00da10:	00e001f4 	teq	a3,zero,0x7
9d00da14:	3129ffff 	andi	t1,t1,0xffff
9d00da18:	00001012 	mflo	v0
9d00da1c:	00003810 	mfhi	a3
9d00da20:	00073c00 	sll	a3,a3,0x10
9d00da24:	00e93825 	or	a3,a3,t1
9d00da28:	71622802 	mul	a1,t3,v0
9d00da2c:	00e5482b 	sltu	t1,a3,a1
9d00da30:	11200008 	beqz	t1,9d00da54 <__divdi3+0x218>
9d00da34:	00402025 	move	a0,v0
9d00da38:	01073821 	addu	a3,t0,a3
9d00da3c:	00e8402b 	sltu	t0,a3,t0
9d00da40:	15000004 	bnez	t0,9d00da54 <__divdi3+0x218>
9d00da44:	2444ffff 	addiu	a0,v0,-1
9d00da48:	00e5382b 	sltu	a3,a3,a1
9d00da4c:	54e00001 	bnezl	a3,9d00da54 <__divdi3+0x218>
9d00da50:	2444fffe 	addiu	a0,v0,-2
9d00da54:	1000ffc3 	b	9d00d964 <__divdi3+0x128>
9d00da58:	00061400 	sll	v0,a2,0x10
9d00da5c:	24070020 	li	a3,32
9d00da60:	00eb3823 	subu	a3,a3,t3
9d00da64:	01684004 	sllv	t0,t0,t3
9d00da68:	01651004 	sllv	v0,a1,t3
9d00da6c:	00081c02 	srl	v1,t0,0x10
9d00da70:	00e52806 	srlv	a1,a1,a3
9d00da74:	00a3001b 	divu	zero,a1,v1
9d00da78:	006001f4 	teq	v1,zero,0x7
9d00da7c:	3106ffff 	andi	a2,t0,0xffff
9d00da80:	00e44806 	srlv	t1,a0,a3
9d00da84:	01224825 	or	t1,t1,v0
9d00da88:	00091402 	srl	v0,t1,0x10
9d00da8c:	00002812 	mflo	a1
9d00da90:	00003810 	mfhi	a3
9d00da94:	00073c00 	sll	a3,a3,0x10
9d00da98:	00e23825 	or	a3,a3,v0
9d00da9c:	70c56002 	mul	t4,a2,a1
9d00daa0:	00ec682b 	sltu	t5,a3,t4
9d00daa4:	11a0000a 	beqz	t5,9d00dad0 <__divdi3+0x294>
9d00daa8:	00a01025 	move	v0,a1
9d00daac:	00e83821 	addu	a3,a3,t0
9d00dab0:	00e8682b 	sltu	t5,a3,t0
9d00dab4:	15a00006 	bnez	t5,9d00dad0 <__divdi3+0x294>
9d00dab8:	24a2ffff 	addiu	v0,a1,-1
9d00dabc:	00ec682b 	sltu	t5,a3,t4
9d00dac0:	51a00004 	beqzl	t5,9d00dad4 <__divdi3+0x298>
9d00dac4:	00ec3823 	subu	a3,a3,t4
9d00dac8:	24a2fffe 	addiu	v0,a1,-2
9d00dacc:	00e83821 	addu	a3,a3,t0
9d00dad0:	00ec3823 	subu	a3,a3,t4
9d00dad4:	00e3001b 	divu	zero,a3,v1
9d00dad8:	006001f4 	teq	v1,zero,0x7
9d00dadc:	3125ffff 	andi	a1,t1,0xffff
9d00dae0:	00001812 	mflo	v1
9d00dae4:	00003810 	mfhi	a3
9d00dae8:	00073c00 	sll	a3,a3,0x10
9d00daec:	00e52825 	or	a1,a3,a1
9d00daf0:	70c33002 	mul	a2,a2,v1
9d00daf4:	00a6482b 	sltu	t1,a1,a2
9d00daf8:	1120000a 	beqz	t1,9d00db24 <__divdi3+0x2e8>
9d00dafc:	00603825 	move	a3,v1
9d00db00:	00a82821 	addu	a1,a1,t0
9d00db04:	00a8482b 	sltu	t1,a1,t0
9d00db08:	15200006 	bnez	t1,9d00db24 <__divdi3+0x2e8>
9d00db0c:	2467ffff 	addiu	a3,v1,-1
9d00db10:	00a6482b 	sltu	t1,a1,a2
9d00db14:	51200004 	beqzl	t1,9d00db28 <__divdi3+0x2ec>
9d00db18:	00021c00 	sll	v1,v0,0x10
9d00db1c:	2467fffe 	addiu	a3,v1,-2
9d00db20:	00a82821 	addu	a1,a1,t0
9d00db24:	00021c00 	sll	v1,v0,0x10
9d00db28:	01644804 	sllv	t1,a0,t3
9d00db2c:	00a62823 	subu	a1,a1,a2
9d00db30:	1000ff9f 	b	9d00d9b0 <__divdi3+0x174>
9d00db34:	00671825 	or	v1,v1,a3
9d00db38:	00a7402b 	sltu	t0,a1,a3
9d00db3c:	00001825 	move	v1,zero
9d00db40:	1500ff89 	bnez	t0,9d00d968 <__divdi3+0x12c>
9d00db44:	00001025 	move	v0,zero
9d00db48:	70eb5820 	clz	t3,a3
9d00db4c:	15600007 	bnez	t3,9d00db6c <__divdi3+0x330>
9d00db50:	24090020 	li	t1,32
9d00db54:	00e5282b 	sltu	a1,a3,a1
9d00db58:	14a0ff83 	bnez	a1,9d00d968 <__divdi3+0x12c>
9d00db5c:	24020001 	li	v0,1
9d00db60:	0086102b 	sltu	v0,a0,a2
9d00db64:	1000ff80 	b	9d00d968 <__divdi3+0x12c>
9d00db68:	38420001 	xori	v0,v0,0x1
9d00db6c:	012b4823 	subu	t1,t1,t3
9d00db70:	01261006 	srlv	v0,a2,t1
9d00db74:	01673804 	sllv	a3,a3,t3
9d00db78:	00473825 	or	a3,v0,a3
9d00db7c:	00074402 	srl	t0,a3,0x10
9d00db80:	01651004 	sllv	v0,a1,t3
9d00db84:	01252806 	srlv	a1,a1,t1
9d00db88:	00a8001b 	divu	zero,a1,t0
9d00db8c:	010001f4 	teq	t0,zero,0x7
9d00db90:	30ecffff 	andi	t4,a3,0xffff
9d00db94:	01241806 	srlv	v1,a0,t1
9d00db98:	00621025 	or	v0,v1,v0
9d00db9c:	00021c02 	srl	v1,v0,0x10
9d00dba0:	00002812 	mflo	a1
9d00dba4:	00004810 	mfhi	t1
9d00dba8:	00094c00 	sll	t1,t1,0x10
9d00dbac:	01234825 	or	t1,t1,v1
9d00dbb0:	71856802 	mul	t5,t4,a1
9d00dbb4:	012d702b 	sltu	t6,t1,t5
9d00dbb8:	11c0000a 	beqz	t6,9d00dbe4 <__divdi3+0x3a8>
9d00dbbc:	00a01825 	move	v1,a1
9d00dbc0:	01274821 	addu	t1,t1,a3
9d00dbc4:	0127702b 	sltu	t6,t1,a3
9d00dbc8:	15c00006 	bnez	t6,9d00dbe4 <__divdi3+0x3a8>
9d00dbcc:	24a3ffff 	addiu	v1,a1,-1
9d00dbd0:	012d702b 	sltu	t6,t1,t5
9d00dbd4:	51c00004 	beqzl	t6,9d00dbe8 <__divdi3+0x3ac>
9d00dbd8:	012d4823 	subu	t1,t1,t5
9d00dbdc:	24a3fffe 	addiu	v1,a1,-2
9d00dbe0:	01274821 	addu	t1,t1,a3
9d00dbe4:	012d4823 	subu	t1,t1,t5
9d00dbe8:	0128001b 	divu	zero,t1,t0
9d00dbec:	010001f4 	teq	t0,zero,0x7
9d00dbf0:	3045ffff 	andi	a1,v0,0xffff
9d00dbf4:	00004012 	mflo	t0
9d00dbf8:	00004810 	mfhi	t1
9d00dbfc:	00094c00 	sll	t1,t1,0x10
9d00dc00:	01252825 	or	a1,t1,a1
9d00dc04:	71886002 	mul	t4,t4,t0
9d00dc08:	00ac102b 	sltu	v0,a1,t4
9d00dc0c:	1040000a 	beqz	v0,9d00dc38 <__divdi3+0x3fc>
9d00dc10:	01004825 	move	t1,t0
9d00dc14:	00a72821 	addu	a1,a1,a3
9d00dc18:	00a7102b 	sltu	v0,a1,a3
9d00dc1c:	14400006 	bnez	v0,9d00dc38 <__divdi3+0x3fc>
9d00dc20:	2509ffff 	addiu	t1,t0,-1
9d00dc24:	00ac102b 	sltu	v0,a1,t4
9d00dc28:	10400004 	beqz	v0,9d00dc3c <__divdi3+0x400>
9d00dc2c:	00031400 	sll	v0,v1,0x10
9d00dc30:	2509fffe 	addiu	t1,t0,-2
9d00dc34:	00a72821 	addu	a1,a1,a3
9d00dc38:	00031400 	sll	v0,v1,0x10
9d00dc3c:	01663004 	sllv	a2,a2,t3
9d00dc40:	00491025 	or	v0,v0,t1
9d00dc44:	00c20019 	multu	a2,v0
9d00dc48:	00ac2823 	subu	a1,a1,t4
9d00dc4c:	00003810 	mfhi	a3
9d00dc50:	00a7182b 	sltu	v1,a1,a3
9d00dc54:	14600007 	bnez	v1,9d00dc74 <__divdi3+0x438>
9d00dc58:	00003012 	mflo	a2
9d00dc5c:	14a7ff42 	bne	a1,a3,9d00d968 <__divdi3+0x12c>
9d00dc60:	00001825 	move	v1,zero
9d00dc64:	01642004 	sllv	a0,a0,t3
9d00dc68:	0086202b 	sltu	a0,a0,a2
9d00dc6c:	1080ff3e 	beqz	a0,9d00d968 <__divdi3+0x12c>
9d00dc70:	00000000 	nop
9d00dc74:	2442ffff 	addiu	v0,v0,-1
9d00dc78:	1000ff3b 	b	9d00d968 <__divdi3+0x12c>
9d00dc7c:	00001825 	move	v1,zero

9d00dc80 <__moddi3>:
9d00dc80:	04a10007 	bgez	a1,9d00dca0 <__moddi3+0x20>
9d00dc84:	00006025 	move	t4,zero
9d00dc88:	00041023 	negu	v0,a0
9d00dc8c:	0002482b 	sltu	t1,zero,v0
9d00dc90:	00052823 	negu	a1,a1
9d00dc94:	00402025 	move	a0,v0
9d00dc98:	00a92823 	subu	a1,a1,t1
9d00dc9c:	240cffff 	li	t4,-1
9d00dca0:	04e10006 	bgez	a3,9d00dcbc <__moddi3+0x3c>
9d00dca4:	00c04825 	move	t1,a2
9d00dca8:	00063023 	negu	a2,a2
9d00dcac:	0006102b 	sltu	v0,zero,a2
9d00dcb0:	00073823 	negu	a3,a3
9d00dcb4:	00e23823 	subu	a3,a3,v0
9d00dcb8:	00c04825 	move	t1,a2
9d00dcbc:	00801025 	move	v0,a0
9d00dcc0:	14e0009c 	bnez	a3,9d00df34 <__moddi3+0x2b4>
9d00dcc4:	00a01825 	move	v1,a1
9d00dcc8:	00a6302b 	sltu	a2,a1,a2
9d00dccc:	10c00039 	beqz	a2,9d00ddb4 <__moddi3+0x134>
9d00dcd0:	712a5020 	clz	t2,t1
9d00dcd4:	51400008 	beqzl	t2,9d00dcf8 <__moddi3+0x78>
9d00dcd8:	00092402 	srl	a0,t1,0x10
9d00dcdc:	01451804 	sllv	v1,a1,t2
9d00dce0:	000a2823 	negu	a1,t2
9d00dce4:	00a42806 	srlv	a1,a0,a1
9d00dce8:	01494804 	sllv	t1,t1,t2
9d00dcec:	00a31825 	or	v1,a1,v1
9d00dcf0:	01441004 	sllv	v0,a0,t2
9d00dcf4:	00092402 	srl	a0,t1,0x10
9d00dcf8:	0064001b 	divu	zero,v1,a0
9d00dcfc:	008001f4 	teq	a0,zero,0x7
9d00dd00:	3127ffff 	andi	a3,t1,0xffff
9d00dd04:	00001812 	mflo	v1
9d00dd08:	00002810 	mfhi	a1
9d00dd0c:	70673002 	mul	a2,v1,a3
9d00dd10:	00051c00 	sll	v1,a1,0x10
9d00dd14:	00022c02 	srl	a1,v0,0x10
9d00dd18:	00651825 	or	v1,v1,a1
9d00dd1c:	0066282b 	sltu	a1,v1,a2
9d00dd20:	50a00008 	beqzl	a1,9d00dd44 <__moddi3+0xc4>
9d00dd24:	00661823 	subu	v1,v1,a2
9d00dd28:	00691821 	addu	v1,v1,t1
9d00dd2c:	0069282b 	sltu	a1,v1,t1
9d00dd30:	14a00003 	bnez	a1,9d00dd40 <__moddi3+0xc0>
9d00dd34:	0066282b 	sltu	a1,v1,a2
9d00dd38:	54a00001 	bnezl	a1,9d00dd40 <__moddi3+0xc0>
9d00dd3c:	00691821 	addu	v1,v1,t1
9d00dd40:	00661823 	subu	v1,v1,a2
9d00dd44:	0064001b 	divu	zero,v1,a0
9d00dd48:	008001f4 	teq	a0,zero,0x7
9d00dd4c:	3042ffff 	andi	v0,v0,0xffff
9d00dd50:	00001812 	mflo	v1
9d00dd54:	00003010 	mfhi	a2
9d00dd58:	70672002 	mul	a0,v1,a3
9d00dd5c:	00061c00 	sll	v1,a2,0x10
9d00dd60:	00621025 	or	v0,v1,v0
9d00dd64:	0044182b 	sltu	v1,v0,a0
9d00dd68:	50600008 	beqzl	v1,9d00dd8c <__moddi3+0x10c>
9d00dd6c:	00441023 	subu	v0,v0,a0
9d00dd70:	00491021 	addu	v0,v0,t1
9d00dd74:	0049182b 	sltu	v1,v0,t1
9d00dd78:	14600003 	bnez	v1,9d00dd88 <__moddi3+0x108>
9d00dd7c:	0044182b 	sltu	v1,v0,a0
9d00dd80:	54600001 	bnezl	v1,9d00dd88 <__moddi3+0x108>
9d00dd84:	00491021 	addu	v0,v0,t1
9d00dd88:	00441023 	subu	v0,v0,a0
9d00dd8c:	01421006 	srlv	v0,v0,t2
9d00dd90:	00001825 	move	v1,zero
9d00dd94:	11800005 	beqz	t4,9d00ddac <__moddi3+0x12c>
9d00dd98:	00000000 	nop
9d00dd9c:	00021023 	negu	v0,v0
9d00dda0:	0002202b 	sltu	a0,zero,v0
9d00dda4:	00031823 	negu	v1,v1
9d00dda8:	00641823 	subu	v1,v1,a0
9d00ddac:	03e00008 	jr	ra
9d00ddb0:	00000000 	nop
9d00ddb4:	15200006 	bnez	t1,9d00ddd0 <__moddi3+0x150>
9d00ddb8:	00000000 	nop
9d00ddbc:	24090001 	li	t1,1
9d00ddc0:	0127001b 	divu	zero,t1,a3
9d00ddc4:	00e001f4 	teq	a3,zero,0x7
9d00ddc8:	00004812 	mflo	t1
9d00ddcc:	712a5020 	clz	t2,t1
9d00ddd0:	15400029 	bnez	t2,9d00de78 <__moddi3+0x1f8>
9d00ddd4:	24070020 	li	a3,32
9d00ddd8:	00a92823 	subu	a1,a1,t1
9d00dddc:	00092402 	srl	a0,t1,0x10
9d00dde0:	00a4001b 	divu	zero,a1,a0
9d00dde4:	008001f4 	teq	a0,zero,0x7
9d00dde8:	3127ffff 	andi	a3,t1,0xffff
9d00ddec:	00002812 	mflo	a1
9d00ddf0:	00001810 	mfhi	v1
9d00ddf4:	70a73002 	mul	a2,a1,a3
9d00ddf8:	00032c00 	sll	a1,v1,0x10
9d00ddfc:	00021c02 	srl	v1,v0,0x10
9d00de00:	00a32825 	or	a1,a1,v1
9d00de04:	00a6182b 	sltu	v1,a1,a2
9d00de08:	50600008 	beqzl	v1,9d00de2c <__moddi3+0x1ac>
9d00de0c:	00a63023 	subu	a2,a1,a2
9d00de10:	00a92821 	addu	a1,a1,t1
9d00de14:	00a9182b 	sltu	v1,a1,t1
9d00de18:	14600003 	bnez	v1,9d00de28 <__moddi3+0x1a8>
9d00de1c:	00a6182b 	sltu	v1,a1,a2
9d00de20:	54600001 	bnezl	v1,9d00de28 <__moddi3+0x1a8>
9d00de24:	00a92821 	addu	a1,a1,t1
9d00de28:	00a63023 	subu	a2,a1,a2
9d00de2c:	00c4001b 	divu	zero,a2,a0
9d00de30:	008001f4 	teq	a0,zero,0x7
9d00de34:	3042ffff 	andi	v0,v0,0xffff
9d00de38:	00003012 	mflo	a2
9d00de3c:	00002810 	mfhi	a1
9d00de40:	70c71802 	mul	v1,a2,a3
9d00de44:	00053400 	sll	a2,a1,0x10
9d00de48:	00c21025 	or	v0,a2,v0
9d00de4c:	0043202b 	sltu	a0,v0,v1
9d00de50:	5080ffce 	beqzl	a0,9d00dd8c <__moddi3+0x10c>
9d00de54:	00431023 	subu	v0,v0,v1
9d00de58:	00491021 	addu	v0,v0,t1
9d00de5c:	0049202b 	sltu	a0,v0,t1
9d00de60:	14800003 	bnez	a0,9d00de70 <__moddi3+0x1f0>
9d00de64:	0043202b 	sltu	a0,v0,v1
9d00de68:	54800001 	bnezl	a0,9d00de70 <__moddi3+0x1f0>
9d00de6c:	00491021 	addu	v0,v0,t1
9d00de70:	1000ffc6 	b	9d00dd8c <__moddi3+0x10c>
9d00de74:	00431023 	subu	v0,v0,v1
9d00de78:	00ea3823 	subu	a3,a3,t2
9d00de7c:	01494804 	sllv	t1,t1,t2
9d00de80:	00e41806 	srlv	v1,a0,a3
9d00de84:	00093402 	srl	a2,t1,0x10
9d00de88:	00e53806 	srlv	a3,a1,a3
9d00de8c:	00e6001b 	divu	zero,a3,a2
9d00de90:	00c001f4 	teq	a2,zero,0x7
9d00de94:	01451004 	sllv	v0,a1,t2
9d00de98:	3128ffff 	andi	t0,t1,0xffff
9d00de9c:	00621825 	or	v1,v1,v0
9d00dea0:	00032c02 	srl	a1,v1,0x10
9d00dea4:	00003812 	mflo	a3
9d00dea8:	00005810 	mfhi	t3
9d00deac:	70e81002 	mul	v0,a3,t0
9d00deb0:	000b3c00 	sll	a3,t3,0x10
9d00deb4:	00e53825 	or	a3,a3,a1
9d00deb8:	00e2282b 	sltu	a1,a3,v0
9d00debc:	50a00008 	beqzl	a1,9d00dee0 <__moddi3+0x260>
9d00dec0:	00e23823 	subu	a3,a3,v0
9d00dec4:	00e93821 	addu	a3,a3,t1
9d00dec8:	00e9282b 	sltu	a1,a3,t1
9d00decc:	14a00003 	bnez	a1,9d00dedc <__moddi3+0x25c>
9d00ded0:	00e2282b 	sltu	a1,a3,v0
9d00ded4:	54a00001 	bnezl	a1,9d00dedc <__moddi3+0x25c>
9d00ded8:	00e93821 	addu	a3,a3,t1
9d00dedc:	00e23823 	subu	a3,a3,v0
9d00dee0:	00e6001b 	divu	zero,a3,a2
9d00dee4:	00c001f4 	teq	a2,zero,0x7
9d00dee8:	3065ffff 	andi	a1,v1,0xffff
9d00deec:	00003012 	mflo	a2
9d00def0:	00003810 	mfhi	a3
9d00def4:	00073c00 	sll	a3,a3,0x10
9d00def8:	00e52825 	or	a1,a3,a1
9d00defc:	70c83002 	mul	a2,a2,t0
9d00df00:	00a6102b 	sltu	v0,a1,a2
9d00df04:	10400009 	beqz	v0,9d00df2c <__moddi3+0x2ac>
9d00df08:	01441004 	sllv	v0,a0,t2
9d00df0c:	00a92821 	addu	a1,a1,t1
9d00df10:	00a9102b 	sltu	v0,a1,t1
9d00df14:	14400005 	bnez	v0,9d00df2c <__moddi3+0x2ac>
9d00df18:	01441004 	sllv	v0,a0,t2
9d00df1c:	00a6102b 	sltu	v0,a1,a2
9d00df20:	54400001 	bnezl	v0,9d00df28 <__moddi3+0x2a8>
9d00df24:	00a92821 	addu	a1,a1,t1
9d00df28:	01441004 	sllv	v0,a0,t2
9d00df2c:	1000ffab 	b	9d00dddc <__moddi3+0x15c>
9d00df30:	00a62823 	subu	a1,a1,a2
9d00df34:	00a7402b 	sltu	t0,a1,a3
9d00df38:	1500ff96 	bnez	t0,9d00dd94 <__moddi3+0x114>
9d00df3c:	70ed6820 	clz	t5,a3
9d00df40:	15a0000a 	bnez	t5,9d00df6c <__moddi3+0x2ec>
9d00df44:	00e5402b 	sltu	t0,a3,a1
9d00df48:	15000003 	bnez	t0,9d00df58 <__moddi3+0x2d8>
9d00df4c:	0086402b 	sltu	t0,a0,a2
9d00df50:	1500ff90 	bnez	t0,9d00dd94 <__moddi3+0x114>
9d00df54:	00000000 	nop
9d00df58:	00861023 	subu	v0,a0,a2
9d00df5c:	00a72823 	subu	a1,a1,a3
9d00df60:	0082182b 	sltu	v1,a0,v0
9d00df64:	1000ff8b 	b	9d00dd94 <__moddi3+0x114>
9d00df68:	00a31823 	subu	v1,a1,v1
9d00df6c:	240b0020 	li	t3,32
9d00df70:	016d5823 	subu	t3,t3,t5
9d00df74:	01664006 	srlv	t0,a2,t3
9d00df78:	01a73804 	sllv	a3,a3,t5
9d00df7c:	01073825 	or	a3,t0,a3
9d00df80:	01a51004 	sllv	v0,a1,t5
9d00df84:	00074c02 	srl	t1,a3,0x10
9d00df88:	01652806 	srlv	a1,a1,t3
9d00df8c:	00a9001b 	divu	zero,a1,t1
9d00df90:	012001f4 	teq	t1,zero,0x7
9d00df94:	30e8ffff 	andi	t0,a3,0xffff
9d00df98:	01641806 	srlv	v1,a0,t3
9d00df9c:	00621825 	or	v1,v1,v0
9d00dfa0:	00031402 	srl	v0,v1,0x10
9d00dfa4:	00002812 	mflo	a1
9d00dfa8:	00005010 	mfhi	t2
9d00dfac:	000a5400 	sll	t2,t2,0x10
9d00dfb0:	01425025 	or	t2,t2,v0
9d00dfb4:	71057002 	mul	t6,t0,a1
9d00dfb8:	014e782b 	sltu	t7,t2,t6
9d00dfbc:	11e0000a 	beqz	t7,9d00dfe8 <__moddi3+0x368>
9d00dfc0:	00a01025 	move	v0,a1
9d00dfc4:	01475021 	addu	t2,t2,a3
9d00dfc8:	0147782b 	sltu	t7,t2,a3
9d00dfcc:	15e00006 	bnez	t7,9d00dfe8 <__moddi3+0x368>
9d00dfd0:	24a2ffff 	addiu	v0,a1,-1
9d00dfd4:	014e782b 	sltu	t7,t2,t6
9d00dfd8:	51e00004 	beqzl	t7,9d00dfec <__moddi3+0x36c>
9d00dfdc:	014e5023 	subu	t2,t2,t6
9d00dfe0:	24a2fffe 	addiu	v0,a1,-2
9d00dfe4:	01475021 	addu	t2,t2,a3
9d00dfe8:	014e5023 	subu	t2,t2,t6
9d00dfec:	0149001b 	divu	zero,t2,t1
9d00dff0:	012001f4 	teq	t1,zero,0x7
9d00dff4:	00004812 	mflo	t1
9d00dff8:	00005010 	mfhi	t2
9d00dffc:	000a5400 	sll	t2,t2,0x10
9d00e000:	71092802 	mul	a1,t0,t1
9d00e004:	3068ffff 	andi	t0,v1,0xffff
9d00e008:	01484025 	or	t0,t2,t0
9d00e00c:	0105182b 	sltu	v1,t0,a1
9d00e010:	1060000a 	beqz	v1,9d00e03c <__moddi3+0x3bc>
9d00e014:	01205025 	move	t2,t1
9d00e018:	01074021 	addu	t0,t0,a3
9d00e01c:	0107182b 	sltu	v1,t0,a3
9d00e020:	14600006 	bnez	v1,9d00e03c <__moddi3+0x3bc>
9d00e024:	252affff 	addiu	t2,t1,-1
9d00e028:	0105182b 	sltu	v1,t0,a1
9d00e02c:	10600004 	beqz	v1,9d00e040 <__moddi3+0x3c0>
9d00e030:	00027400 	sll	t6,v0,0x10
9d00e034:	252afffe 	addiu	t2,t1,-2
9d00e038:	01074021 	addu	t0,t0,a3
9d00e03c:	00027400 	sll	t6,v0,0x10
9d00e040:	01ca7025 	or	t6,t6,t2
9d00e044:	01a63004 	sllv	a2,a2,t5
9d00e048:	01c60019 	multu	t6,a2
9d00e04c:	01054023 	subu	t0,t0,a1
9d00e050:	01a41804 	sllv	v1,a0,t5
9d00e054:	00007810 	mfhi	t7
9d00e058:	010f102b 	sltu	v0,t0,t7
9d00e05c:	01e02825 	move	a1,t7
9d00e060:	00007012 	mflo	t6
9d00e064:	14400006 	bnez	v0,9d00e080 <__moddi3+0x400>
9d00e068:	00002012 	mflo	a0
9d00e06c:	150f0009 	bne	t0,t7,9d00e094 <__moddi3+0x414>
9d00e070:	00642023 	subu	a0,v1,a0
9d00e074:	006e102b 	sltu	v0,v1,t6
9d00e078:	50400007 	beqzl	v0,9d00e098 <__moddi3+0x418>
9d00e07c:	0064182b 	sltu	v1,v1,a0
9d00e080:	01c62023 	subu	a0,t6,a2
9d00e084:	01e73823 	subu	a3,t7,a3
9d00e088:	01c4702b 	sltu	t6,t6,a0
9d00e08c:	00ee2823 	subu	a1,a3,t6
9d00e090:	00642023 	subu	a0,v1,a0
9d00e094:	0064182b 	sltu	v1,v1,a0
9d00e098:	01054023 	subu	t0,t0,a1
9d00e09c:	01031823 	subu	v1,t0,v1
9d00e0a0:	01631004 	sllv	v0,v1,t3
9d00e0a4:	01a42006 	srlv	a0,a0,t5
9d00e0a8:	00441025 	or	v0,v0,a0
9d00e0ac:	1000ff39 	b	9d00dd94 <__moddi3+0x114>
9d00e0b0:	01a31806 	srlv	v1,v1,t5

Disassembly of section .text.dp32subadd:

9d00e0b4 <__subdf3>:
9d00e0b4:	3c018000 00e13826                       ...<&8..

9d00e0bc <__adddf3>:
9d00e0bc:	00055840 000b5d42 000552c0 00047d42     @X..B]...R..B}..
9d00e0cc:	014f5025 00044ac0 3c088000 01485025     %PO..J.....<%PH.
9d00e0dc:	00077040 000e7542 00076ac0 00067d42     @p..Bu...j..B}..
9d00e0ec:	01af6825 000662c0 01a86825 256fffff     %h...b..%h....o%
9d00e0fc:	2de107fe 1020008d 00000000              ...-.. .....

9d00e108 <Blab1>:
9d00e108:	25cfffff 	addiu	t7,t6,-1
9d00e10c:	2de107fe 	sltiu	at,t7,2046
9d00e110:	102000bb 	beqz	at,9d00e400 <BspecB>
9d00e114:	00000000 	nop

9d00e118 <Blab2>:
9d00e118:	3c018000 	lui	at,0x8000
9d00e11c:	00a12824 	and	a1,a1,at
9d00e120:	016e4023 	subu	t0,t3,t6
9d00e124:	1100002c 	beqz	t0,9d00e1d8 <Badd3>
9d00e128:	00000000 	nop
9d00e12c:	19000015 	blez	t0,9d00e184 <i1>
9d00e130:	00000000 	nop

9d00e134 <L1>:
9d00e134:	2d010020 	sltiu	at,t0,32
9d00e138:	14200007 	bnez	at,9d00e158 <L2>
9d00e13c:	00000000 	nop
9d00e140:	2108ffe0 	addi	t0,t0,-32
9d00e144:	000c302b 	sltu	a2,zero,t4
9d00e148:	100d0023 	beq	zero,t5,9d00e1d8 <Badd3>
9d00e14c:	01a66025 	or	t4,t5,a2
9d00e150:	1000fff8 	b	9d00e134 <L1>
9d00e154:	340d0000 	li	t5,0x0

9d00e158 <L2>:
9d00e158:	1100001f 	beqz	t0,9d00e1d8 <Badd3>
9d00e15c:	00000000 	nop
9d00e160:	00082022 	neg	a0,t0
9d00e164:	008c3004 	sllv	a2,t4,a0
9d00e168:	008d2004 	sllv	a0,t5,a0
9d00e16c:	010c6006 	srlv	t4,t4,t0
9d00e170:	010d6806 	srlv	t5,t5,t0
9d00e174:	10c00018 	beqz	a2,9d00e1d8 <Badd3>
9d00e178:	008c6025 	or	t4,a0,t4
9d00e17c:	10000016 	b	9d00e1d8 <Badd3>
9d00e180:	358c0002 	ori	t4,t4,0x2

9d00e184 <i1>:
9d00e184:	000e5825 	or	t3,zero,t6
9d00e188:	00084023 	negu	t0,t0

9d00e18c <L4>:
9d00e18c:	2d010020 	sltiu	at,t0,32
9d00e190:	14200007 	bnez	at,9d00e1b0 <L5>
9d00e194:	00000000 	nop
9d00e198:	2108ffe0 	addi	t0,t0,-32
9d00e19c:	0009302b 	sltu	a2,zero,t1
9d00e1a0:	100a000d 	beq	zero,t2,9d00e1d8 <Badd3>
9d00e1a4:	01464825 	or	t1,t2,a2
9d00e1a8:	1000fff8 	b	9d00e18c <L4>
9d00e1ac:	340a0000 	li	t2,0x0

9d00e1b0 <L5>:
9d00e1b0:	11000009 	beqz	t0,9d00e1d8 <Badd3>
9d00e1b4:	00000000 	nop
9d00e1b8:	00082022 	neg	a0,t0
9d00e1bc:	00893004 	sllv	a2,t1,a0
9d00e1c0:	008a2004 	sllv	a0,t2,a0
9d00e1c4:	01094806 	srlv	t1,t1,t0
9d00e1c8:	010a5006 	srlv	t2,t2,t0
9d00e1cc:	10c00002 	beqz	a2,9d00e1d8 <Badd3>
9d00e1d0:	00894825 	or	t1,a0,t1
9d00e1d4:	35290002 	ori	t1,t1,0x2

9d00e1d8 <Badd3>:
9d00e1d8:	00a77826 	xor	t7,a1,a3
9d00e1dc:	05e0001c 	bltz	t7,9d00e250 <Bsub1>
9d00e1e0:	00000000 	nop
9d00e1e4:	012c4821 	addu	t1,t1,t4
9d00e1e8:	012c782b 	sltu	t7,t1,t4
9d00e1ec:	014d5021 	addu	t2,t2,t5
9d00e1f0:	014f5021 	addu	t2,t2,t7
9d00e1f4:	114d0002 	beq	t2,t5,9d00e200 <L7>
9d00e1f8:	00000000 	nop
9d00e1fc:	014d782b 	sltu	t7,t2,t5

9d00e200 <L7>:
9d00e200:	11e00037 	beqz	t7,9d00e2e0 <Bres>
9d00e204:	00000000 	nop
9d00e208:	312f0001 	andi	t7,t1,0x1
9d00e20c:	11e00002 	beqz	t7,9d00e218 <i3>
9d00e210:	00000000 	nop
9d00e214:	35290002 	ori	t1,t1,0x2

9d00e218 <i3>:
9d00e218:	00094842 	srl	t1,t1,0x1
9d00e21c:	000a7fc0 	sll	t7,t2,0x1f
9d00e220:	012f4825 	or	t1,t1,t7
9d00e224:	000a5042 	srl	t2,t2,0x1
9d00e228:	3c018000 	lui	at,0x8000
9d00e22c:	01415025 	or	t2,t2,at
9d00e230:	256b0001 	addiu	t3,t3,1
9d00e234:	240107ff 	li	at,2047
9d00e238:	15610029 	bne	t3,at,9d00e2e0 <Bres>
9d00e23c:	00000000 	nop
9d00e240:	3c017ff0 	lui	at,0x7ff0
9d00e244:	00a12825 	or	a1,a1,at
9d00e248:	10000037 	b	9d00e328 <BretA>
9d00e24c:	24040000 	li	a0,0

9d00e250 <Bsub1>:
9d00e250:	012c782b 	sltu	t7,t1,t4
9d00e254:	012c4823 	subu	t1,t1,t4
9d00e258:	014f102b 	sltu	v0,t2,t7
9d00e25c:	014f5023 	subu	t2,t2,t7
9d00e260:	014d782b 	sltu	t7,t2,t5
9d00e264:	01e27825 	or	t7,t7,v0
9d00e268:	11e00007 	beqz	t7,9d00e288 <i5>
9d00e26c:	014d5023 	subu	t2,t2,t5
9d00e270:	3c018000 	lui	at,0x8000
9d00e274:	00a12826 	xor	a1,a1,at
9d00e278:	0009782b 	sltu	t7,zero,t1
9d00e27c:	00094823 	negu	t1,t1
9d00e280:	000a5023 	negu	t2,t2
9d00e284:	014f5023 	subu	t2,t2,t7

9d00e288 <i5>:
9d00e288:	15400008 	bnez	t2,9d00e2ac <L8>
9d00e28c:	00000000 	nop
9d00e290:	15200003 	bnez	t1,9d00e2a0 <L9>
9d00e294:	00000000 	nop
9d00e298:	1000000d 	b	9d00e2d0 <L10>
9d00e29c:	240b0000 	li	t3,0

9d00e2a0 <L9>:
9d00e2a0:	01205025 	move	t2,t1
9d00e2a4:	24090000 	li	t1,0
9d00e2a8:	256bffe0 	addiu	t3,t3,-32

9d00e2ac <L8>:
9d00e2ac:	71484020 	clz	t0,t2
9d00e2b0:	11000007 	beqz	t0,9d00e2d0 <L10>
9d00e2b4:	00000000 	nop
9d00e2b8:	01685823 	subu	t3,t3,t0
9d00e2bc:	00082022 	neg	a0,t0
9d00e2c0:	00892006 	srlv	a0,t1,a0
9d00e2c4:	01094804 	sllv	t1,t1,t0
9d00e2c8:	010a5004 	sllv	t2,t2,t0
9d00e2cc:	01445025 	or	t2,t2,a0

9d00e2d0 <L10>:
9d00e2d0:	01497825 	or	t7,t2,t1
9d00e2d4:	15e00002 	bnez	t7,9d00e2e0 <Bres>
9d00e2d8:	00000000 	nop
9d00e2dc:	24050000 	li	a1,0

9d00e2e0 <Bres>:
9d00e2e0:	19600068 	blez	t3,9d00e484 <Bund>
9d00e2e4:	00000000 	nop

9d00e2e8 <Blab8>:
9d00e2e8:	25290400 	addiu	t1,t1,1024
9d00e2ec:	2d2f0400 	sltiu	t7,t1,1024
9d00e2f0:	014f5021 	addu	t2,t2,t7
9d00e2f4:	014f782b 	sltu	t7,t2,t7
9d00e2f8:	016f5821 	addu	t3,t3,t7
9d00e2fc:	00097ac2 	srl	t7,t1,0xb
9d00e300:	31ef0001 	andi	t7,t7,0x1
9d00e304:	012f4823 	subu	t1,t1,t7
9d00e308:	000922c2 	srl	a0,t1,0xb
9d00e30c:	000a7d40 	sll	t7,t2,0x15
9d00e310:	008f2025 	or	a0,a0,t7
9d00e314:	000a7840 	sll	t7,t2,0x1
9d00e318:	000f7b02 	srl	t7,t7,0xc
9d00e31c:	00af2825 	or	a1,a1,t7
9d00e320:	000b7d00 	sll	t7,t3,0x14
9d00e324:	00af2825 	or	a1,a1,t7

9d00e328 <BretA>:
9d00e328:	00041025 	or	v0,zero,a0
9d00e32c:	00051825 	or	v1,zero,a1

9d00e330 <B999>:
9d00e330:	03e00008 	jr	ra
9d00e334:	00000000 	nop

9d00e338 <BspecA>:
9d00e338:	0120782a 	slt	t7,t1,zero
9d00e33c:	01294821 	addu	t1,t1,t1
9d00e340:	014a5021 	addu	t2,t2,t2
9d00e344:	15600023 	bnez	t3,9d00e3d4 <i7>
9d00e348:	014f5021 	addu	t2,t2,t7
9d00e34c:	01497825 	or	t7,t2,t1
9d00e350:	11e00014 	beqz	t7,9d00e3a4 <i8>
9d00e354:	00000000 	nop
9d00e358:	15400008 	bnez	t2,9d00e37c <L11>
9d00e35c:	00000000 	nop
9d00e360:	15200003 	bnez	t1,9d00e370 <L12>
9d00e364:	00000000 	nop
9d00e368:	1000ff67 	b	9d00e108 <Blab1>
9d00e36c:	240b0000 	li	t3,0

9d00e370 <L12>:
9d00e370:	01205025 	move	t2,t1
9d00e374:	24090000 	li	t1,0
9d00e378:	256bffe0 	addiu	t3,t3,-32

9d00e37c <L11>:
9d00e37c:	71484020 	clz	t0,t2
9d00e380:	1100ff61 	beqz	t0,9d00e108 <Blab1>
9d00e384:	00000000 	nop
9d00e388:	01685823 	subu	t3,t3,t0
9d00e38c:	00082022 	neg	a0,t0
9d00e390:	00892006 	srlv	a0,t1,a0
9d00e394:	01094804 	sllv	t1,t1,t0
9d00e398:	010a5004 	sllv	t2,t2,t0
9d00e39c:	1000ff5a 	b	9d00e108 <Blab1>
9d00e3a0:	01445025 	or	t2,t2,a0

9d00e3a4 <i8>:
9d00e3a4:	240107ff 	li	at,2047
9d00e3a8:	11c10015 	beq	t6,at,9d00e400 <BspecB>
9d00e3ac:	00000000 	nop
9d00e3b0:	00e74021 	addu	t0,a3,a3
9d00e3b4:	01067825 	or	t7,t0,a2
9d00e3b8:	15e00003 	bnez	t7,9d00e3c8 <BretB>
9d00e3bc:	00000000 	nop
9d00e3c0:	04e0ffd9 	bltz	a3,9d00e328 <BretA>
9d00e3c4:	00000000 	nop

9d00e3c8 <BretB>:
9d00e3c8:	00061025 	or	v0,zero,a2
9d00e3cc:	1000ffd8 	b	9d00e330 <B999>
9d00e3d0:	00071825 	or	v1,zero,a3

9d00e3d4 <i7>:
9d00e3d4:	01497825 	or	t7,t2,t1
9d00e3d8:	15e00027 	bnez	t7,9d00e478 <Bnan>
9d00e3dc:	00000000 	nop
9d00e3e0:	240107ff 	li	at,2047
9d00e3e4:	15c1ffd0 	bne	t6,at,9d00e328 <BretA>
9d00e3e8:	00000000 	nop
9d00e3ec:	00a77826 	xor	t7,a1,a3
9d00e3f0:	05e00021 	bltz	t7,9d00e478 <Bnan>
9d00e3f4:	00000000 	nop
9d00e3f8:	1000fff3 	b	9d00e3c8 <BretB>
9d00e3fc:	00000000 	nop

9d00e400 <BspecB>:
9d00e400:	0180782a 	slt	t7,t4,zero
9d00e404:	018c6021 	addu	t4,t4,t4
9d00e408:	01ad6821 	addu	t5,t5,t5
9d00e40c:	15c00017 	bnez	t6,9d00e46c <i11>
9d00e410:	01af6821 	addu	t5,t5,t7
9d00e414:	01ac7825 	or	t7,t5,t4
9d00e418:	11e0ffc3 	beqz	t7,9d00e328 <BretA>
9d00e41c:	00000000 	nop
9d00e420:	15a00008 	bnez	t5,9d00e444 <L14>
9d00e424:	00000000 	nop
9d00e428:	15800003 	bnez	t4,9d00e438 <L15>
9d00e42c:	00000000 	nop
9d00e430:	1000ff39 	b	9d00e118 <Blab2>
9d00e434:	240e0000 	li	t6,0

9d00e438 <L15>:
9d00e438:	01806825 	move	t5,t4
9d00e43c:	240c0000 	li	t4,0
9d00e440:	25ceffe0 	addiu	t6,t6,-32

9d00e444 <L14>:
9d00e444:	71a84020 	clz	t0,t5
9d00e448:	1100ff33 	beqz	t0,9d00e118 <Blab2>
9d00e44c:	00000000 	nop
9d00e450:	01c87023 	subu	t6,t6,t0
9d00e454:	00082022 	neg	a0,t0
9d00e458:	008c2006 	srlv	a0,t4,a0
9d00e45c:	010c6004 	sllv	t4,t4,t0
9d00e460:	010d6804 	sllv	t5,t5,t0
9d00e464:	1000ff2c 	b	9d00e118 <Blab2>
9d00e468:	01a46825 	or	t5,t5,a0

9d00e46c <i11>:
9d00e46c:	01ac7825 	or	t7,t5,t4
9d00e470:	11e0ffd5 	beqz	t7,9d00e3c8 <BretB>
9d00e474:	00000000 	nop

9d00e478 <Bnan>:
9d00e478:	3c05fff8 	lui	a1,0xfff8
9d00e47c:	1000ffaa 	b	9d00e328 <BretA>
9d00e480:	24040000 	li	a0,0

9d00e484 <Bund>:
9d00e484:	24080001 	li	t0,1
9d00e488:	010b4023 	subu	t0,t0,t3

9d00e48c <L17>:
9d00e48c:	2d010020 	sltiu	at,t0,32
9d00e490:	14200007 	bnez	at,9d00e4b0 <L18>
9d00e494:	00000000 	nop
9d00e498:	2108ffe0 	addi	t0,t0,-32
9d00e49c:	0009302b 	sltu	a2,zero,t1
9d00e4a0:	100a000d 	beq	zero,t2,9d00e4d8 <L19>
9d00e4a4:	01464825 	or	t1,t2,a2
9d00e4a8:	1000fff8 	b	9d00e48c <L17>
9d00e4ac:	340a0000 	li	t2,0x0

9d00e4b0 <L18>:
9d00e4b0:	11000009 	beqz	t0,9d00e4d8 <L19>
9d00e4b4:	00000000 	nop
9d00e4b8:	00082022 	neg	a0,t0
9d00e4bc:	00893004 	sllv	a2,t1,a0
9d00e4c0:	008a2004 	sllv	a0,t2,a0
9d00e4c4:	01094806 	srlv	t1,t1,t0
9d00e4c8:	010a5006 	srlv	t2,t2,t0
9d00e4cc:	10c00002 	beqz	a2,9d00e4d8 <L19>
9d00e4d0:	00894825 	or	t1,a0,t1
9d00e4d4:	35290002 	ori	t1,t1,0x2

9d00e4d8 <L19>:
9d00e4d8:	1000ff83 	b	9d00e2e8 <Blab8>
9d00e4dc:	240b0000 	li	t3,0
9d00e4e0:	00000000 	nop

Disassembly of section .text.__scan_fp:

9d00e4e4 <__scan_fp>:
9d00e4e4:	8cc2000c 	lw	v0,12(a2)
9d00e4e8:	27bdffb0 	addiu	sp,sp,-80
9d00e4ec:	afb40038 	sw	s4,56(sp)
9d00e4f0:	afb00028 	sw	s0,40(sp)
9d00e4f4:	00e0a025 	move	s4,a3
9d00e4f8:	8cd00010 	lw	s0,16(a2)
9d00e4fc:	afb70044 	sw	s7,68(sp)
9d00e500:	afb60040 	sw	s6,64(sp)
9d00e504:	afb5003c 	sw	s5,60(sp)
9d00e508:	afb30034 	sw	s3,52(sp)
9d00e50c:	afb20030 	sw	s2,48(sp)
9d00e510:	afb1002c 	sw	s1,44(sp)
9d00e514:	00809825 	move	s3,a0
9d00e518:	8cd10008 	lw	s1,8(a2)
9d00e51c:	afbf004c 	sw	ra,76(sp)
9d00e520:	afbe0048 	sw	s8,72(sp)
9d00e524:	afa50054 	sw	a1,84(sp)
9d00e528:	0f404b54 	jal	9d012d50 <__skipws>
9d00e52c:	afa20018 	sw	v0,24(sp)
9d00e530:	8e840000 	lw	a0,0(s4)
9d00e534:	2603ffff 	addiu	v1,s0,-1
9d00e538:	0071880a 	movz	s1,v1,s1
9d00e53c:	00821021 	addu	v0,a0,v0
9d00e540:	ae820000 	sw	v0,0(s4)
9d00e544:	0071102a 	slt	v0,v1,s1
9d00e548:	0222180a 	movz	v1,s1,v0
9d00e54c:	8fb10018 	lw	s1,24(sp)
9d00e550:	afa30024 	sw	v1,36(sp)
9d00e554:	24170001 	li	s7,1
9d00e558:	00008025 	move	s0,zero
9d00e55c:	0000b025 	move	s6,zero
9d00e560:	00009025 	move	s2,zero
9d00e564:	0000a825 	move	s5,zero
9d00e568:	afa00020 	sw	zero,32(sp)
9d00e56c:	8fa20024 	lw	v0,36(sp)
9d00e570:	0202102a 	slt	v0,s0,v0
9d00e574:	10400017 	beqz	v0,9d00e5d4 <__scan_fp+0xf0>
9d00e578:	afb0001c 	sw	s0,28(sp)
9d00e57c:	8e62003c 	lw	v0,60(s3)
9d00e580:	8e63004c 	lw	v1,76(s3)
9d00e584:	0043182b 	sltu	v1,v0,v1
9d00e588:	10600024 	beqz	v1,9d00e61c <__scan_fp+0x138>
9d00e58c:	24430001 	addiu	v1,v0,1
9d00e590:	ae63003c 	sw	v1,60(s3)
9d00e594:	905e0000 	lbu	s8,0(v0)
9d00e598:	27c2ffd5 	addiu	v0,s8,-43
9d00e59c:	7c020844 	ins	v0,zero,0x1,0x1
9d00e5a0:	00521025 	or	v0,v0,s2
9d00e5a4:	5440003a 	bnezl	v0,9d00e690 <__scan_fp+0x1ac>
9d00e5a8:	8fa20020 	lw	v0,32(sp)
9d00e5ac:	52000030 	beqzl	s0,9d00e670 <__scan_fp+0x18c>
9d00e5b0:	a23e0000 	sb	s8,0(s1)
9d00e5b4:	52b0002e 	beql	s5,s0,9d00e670 <__scan_fp+0x18c>
9d00e5b8:	a23e0000 	sb	s8,0(s1)
9d00e5bc:	8e62004c 	lw	v0,76(s3)
9d00e5c0:	10400005 	beqz	v0,9d00e5d8 <__scan_fp+0xf4>
9d00e5c4:	8fa20018 	lw	v0,24(sp)
9d00e5c8:	8e62003c 	lw	v0,60(s3)
9d00e5cc:	2442ffff 	addiu	v0,v0,-1
9d00e5d0:	ae62003c 	sw	v0,60(s3)
9d00e5d4:	8fa20018 	lw	v0,24(sp)
9d00e5d8:	8fa3001c 	lw	v1,28(sp)
9d00e5dc:	27a50010 	addiu	a1,sp,16
9d00e5e0:	00402025 	move	a0,v0
9d00e5e4:	00439821 	addu	s3,v0,v1
9d00e5e8:	0f405242 	jal	9d014908 <strtold>
9d00e5ec:	a2600000 	sb	zero,0(s3)
9d00e5f0:	8fa40054 	lw	a0,84(sp)
9d00e5f4:	ac820000 	sw	v0,0(a0)
9d00e5f8:	ac830004 	sw	v1,4(a0)
9d00e5fc:	8fa20018 	lw	v0,24(sp)
9d00e600:	8fa30010 	lw	v1,16(sp)
9d00e604:	0062a026 	xor	s4,v1,v0
9d00e608:	2402fffe 	li	v0,-2
9d00e60c:	24030001 	li	v1,1
9d00e610:	0054180a 	movz	v1,v0,s4
9d00e614:	10000009 	b	9d00e63c <__scan_fp+0x158>
9d00e618:	0060f025 	move	s8,v1
9d00e61c:	0f404a27 	jal	9d01289c <__shgetc>
9d00e620:	02602025 	move	a0,s3
9d00e624:	0040f025 	move	s8,v0
9d00e628:	2402ffff 	li	v0,-1
9d00e62c:	17c2ffda 	bne	s8,v0,9d00e598 <__scan_fp+0xb4>
9d00e630:	8fa2001c 	lw	v0,28(sp)
9d00e634:	1440ffe8 	bnez	v0,9d00e5d8 <__scan_fp+0xf4>
9d00e638:	8fa20018 	lw	v0,24(sp)
9d00e63c:	8fbf004c 	lw	ra,76(sp)
9d00e640:	03c01025 	move	v0,s8
9d00e644:	8fb70044 	lw	s7,68(sp)
9d00e648:	8fbe0048 	lw	s8,72(sp)
9d00e64c:	8fb60040 	lw	s6,64(sp)
9d00e650:	8fb5003c 	lw	s5,60(sp)
9d00e654:	8fb40038 	lw	s4,56(sp)
9d00e658:	8fb30034 	lw	s3,52(sp)
9d00e65c:	8fb20030 	lw	s2,48(sp)
9d00e660:	8fb1002c 	lw	s1,44(sp)
9d00e664:	8fb00028 	lw	s0,40(sp)
9d00e668:	03e00008 	jr	ra
9d00e66c:	27bd0050 	addiu	sp,sp,80
9d00e670:	8e820000 	lw	v0,0(s4)
9d00e674:	24120001 	li	s2,1
9d00e678:	24420001 	addiu	v0,v0,1
9d00e67c:	ae820000 	sw	v0,0(s4)
9d00e680:	26100001 	addiu	s0,s0,1
9d00e684:	26f70001 	addiu	s7,s7,1
9d00e688:	1000ffb8 	b	9d00e56c <__scan_fp+0x88>
9d00e68c:	26310001 	addiu	s1,s1,1
9d00e690:	1440000c 	bnez	v0,9d00e6c4 <__scan_fp+0x1e0>
9d00e694:	2402002e 	li	v0,46
9d00e698:	17c2000a 	bne	s8,v0,9d00e6c4 <__scan_fp+0x1e0>
9d00e69c:	00000000 	nop
9d00e6a0:	56a0ffc7 	bnezl	s5,9d00e5c0 <__scan_fp+0xdc>
9d00e6a4:	8e62004c 	lw	v0,76(s3)
9d00e6a8:	a23e0000 	sb	s8,0(s1)
9d00e6ac:	8e820000 	lw	v0,0(s4)
9d00e6b0:	24420001 	addiu	v0,v0,1
9d00e6b4:	ae820000 	sw	v0,0(s4)
9d00e6b8:	24020001 	li	v0,1
9d00e6bc:	1000fff0 	b	9d00e680 <__scan_fp+0x19c>
9d00e6c0:	afa20020 	sw	v0,32(sp)
9d00e6c4:	16a0004c 	bnez	s5,9d00e7f8 <__scan_fp+0x314>
9d00e6c8:	00000000 	nop
9d00e6cc:	12c0000e 	beqz	s6,9d00e708 <__scan_fp+0x224>
9d00e6d0:	03c02025 	move	a0,s8
9d00e6d4:	0f40525e 	jal	9d014978 <tolower>
9d00e6d8:	00000000 	nop
9d00e6dc:	38420070 	xori	v0,v0,0x70
9d00e6e0:	2c420001 	sltiu	v0,v0,1
9d00e6e4:	10400042 	beqz	v0,9d00e7f0 <__scan_fp+0x30c>
9d00e6e8:	26420001 	addiu	v0,s2,1
9d00e6ec:	a23e0000 	sb	s8,0(s1)
9d00e6f0:	8e820000 	lw	v0,0(s4)
9d00e6f4:	00009025 	move	s2,zero
9d00e6f8:	02e0a825 	move	s5,s7
9d00e6fc:	24420001 	addiu	v0,v0,1
9d00e700:	1000ffdf 	b	9d00e680 <__scan_fp+0x19c>
9d00e704:	ae820000 	sw	v0,0(s4)
9d00e708:	0f40525e 	jal	9d014978 <tolower>
9d00e70c:	00000000 	nop
9d00e710:	1000fff3 	b	9d00e6e0 <__scan_fp+0x1fc>
9d00e714:	38420065 	xori	v0,v0,0x65
9d00e718:	0f40525e 	jal	9d014978 <tolower>
9d00e71c:	03c02025 	move	a0,s8
9d00e720:	24040078 	li	a0,120
9d00e724:	14440034 	bne	v0,a0,9d00e7f8 <__scan_fp+0x314>
9d00e728:	24020030 	li	v0,48
9d00e72c:	8224ffff 	lb	a0,-1(s1)
9d00e730:	14820031 	bne	a0,v0,9d00e7f8 <__scan_fp+0x314>
9d00e734:	00000000 	nop
9d00e738:	a23e0000 	sb	s8,0(s1)
9d00e73c:	8e820000 	lw	v0,0(s4)
9d00e740:	24160001 	li	s6,1
9d00e744:	24420001 	addiu	v0,v0,1
9d00e748:	1000ffcd 	b	9d00e680 <__scan_fp+0x19c>
9d00e74c:	ae820000 	sw	v0,0(s4)
9d00e750:	2c42000a 	sltiu	v0,v0,10
9d00e754:	1000002d 	b	9d00e80c <__scan_fp+0x328>
9d00e758:	38420001 	xori	v0,v0,0x1
9d00e75c:	0f404a27 	jal	9d01289c <__shgetc>
9d00e760:	02602025 	move	a0,s3
9d00e764:	00408825 	move	s1,v0
9d00e768:	2402ffff 	li	v0,-1
9d00e76c:	5222ff9a 	beql	s1,v0,9d00e5d8 <__scan_fp+0xf4>
9d00e770:	8fa20018 	lw	v0,24(sp)
9d00e774:	10000044 	b	9d00e888 <__scan_fp+0x3a4>
9d00e778:	02202025 	move	a0,s1
9d00e77c:	0f40525e 	jal	9d014978 <tolower>
9d00e780:	00000000 	nop
9d00e784:	00171880 	sll	v1,s7,0x2
9d00e788:	03a31821 	addu	v1,sp,v1
9d00e78c:	8c630010 	lw	v1,16(v1)
9d00e790:	00761821 	addu	v1,v1,s6
9d00e794:	80630000 	lb	v1,0(v1)
9d00e798:	14430045 	bne	v0,v1,9d00e8b0 <__scan_fp+0x3cc>
9d00e79c:	0255102a 	slt	v0,s2,s5
9d00e7a0:	8fa20018 	lw	v0,24(sp)
9d00e7a4:	26d60001 	addiu	s6,s6,1
9d00e7a8:	0055a821 	addu	s5,v0,s5
9d00e7ac:	24020003 	li	v0,3
9d00e7b0:	16c2002b 	bne	s6,v0,9d00e860 <__scan_fp+0x37c>
9d00e7b4:	a2b10000 	sb	s1,0(s5)
9d00e7b8:	26020003 	addiu	v0,s0,3
9d00e7bc:	afa2001c 	sw	v0,28(sp)
9d00e7c0:	8e820000 	lw	v0,0(s4)
9d00e7c4:	24420003 	addiu	v0,v0,3
9d00e7c8:	1000ff82 	b	9d00e5d4 <__scan_fp+0xf0>
9d00e7cc:	ae820000 	sw	v0,0(s4)
9d00e7d0:	1000fff3 	b	9d00e7a0 <__scan_fp+0x2bc>
9d00e7d4:	0000b825 	move	s7,zero
9d00e7d8:	1000fff1 	b	9d00e7a0 <__scan_fp+0x2bc>
9d00e7dc:	24170001 	li	s7,1
9d00e7e0:	8e820000 	lw	v0,0(s4)
9d00e7e4:	24420001 	addiu	v0,v0,1
9d00e7e8:	1000ffa5 	b	9d00e680 <__scan_fp+0x19c>
9d00e7ec:	ae820000 	sw	v0,0(s4)
9d00e7f0:	1050ffc9 	beq	v0,s0,9d00e718 <__scan_fp+0x234>
9d00e7f4:	00000000 	nop
9d00e7f8:	12c0ffd5 	beqz	s6,9d00e750 <__scan_fp+0x26c>
9d00e7fc:	27c2ffd0 	addiu	v0,s8,-48
9d00e800:	0f40521a 	jal	9d014868 <isxdigit>
9d00e804:	03c02025 	move	a0,s8
9d00e808:	2c420001 	sltiu	v0,v0,1
9d00e80c:	5040fff4 	beqzl	v0,9d00e7e0 <__scan_fp+0x2fc>
9d00e810:	a23e0000 	sb	s8,0(s1)
9d00e814:	8e62004c 	lw	v0,76(s3)
9d00e818:	10400004 	beqz	v0,9d00e82c <__scan_fp+0x348>
9d00e81c:	00000000 	nop
9d00e820:	8e62003c 	lw	v0,60(s3)
9d00e824:	2442ffff 	addiu	v0,v0,-1
9d00e828:	ae62003c 	sw	v0,60(s3)
9d00e82c:	1612ff69 	bne	s0,s2,9d00e5d4 <__scan_fp+0xf0>
9d00e830:	3c029d00 	lui	v0,0x9d00
9d00e834:	244274d4 	addiu	v0,v0,29908
9d00e838:	afa20010 	sw	v0,16(sp)
9d00e83c:	8fa20024 	lw	v0,36(sp)
9d00e840:	26120002 	addiu	s2,s0,2
9d00e844:	0242102a 	slt	v0,s2,v0
9d00e848:	1040ff62 	beqz	v0,9d00e5d4 <__scan_fp+0xf0>
9d00e84c:	3c029d00 	lui	v0,0x9d00
9d00e850:	244274d8 	addiu	v0,v0,29912
9d00e854:	afa20014 	sw	v0,20(sp)
9d00e858:	0000b025 	move	s6,zero
9d00e85c:	2417ffff 	li	s7,-1
9d00e860:	8e62003c 	lw	v0,60(s3)
9d00e864:	8e63004c 	lw	v1,76(s3)
9d00e868:	0043182b 	sltu	v1,v0,v1
9d00e86c:	1060ffbb 	beqz	v1,9d00e75c <__scan_fp+0x278>
9d00e870:	02d0a821 	addu	s5,s6,s0
9d00e874:	24430001 	addiu	v1,v0,1
9d00e878:	ae63003c 	sw	v1,60(s3)
9d00e87c:	90510000 	lbu	s1,0(v0)
9d00e880:	2402ffff 	li	v0,-1
9d00e884:	02202025 	move	a0,s1
9d00e888:	16e2ffbc 	bne	s7,v0,9d00e77c <__scan_fp+0x298>
9d00e88c:	00000000 	nop
9d00e890:	0f40525e 	jal	9d014978 <tolower>
9d00e894:	00000000 	nop
9d00e898:	00408825 	move	s1,v0
9d00e89c:	24020069 	li	v0,105
9d00e8a0:	1222ffcb 	beq	s1,v0,9d00e7d0 <__scan_fp+0x2ec>
9d00e8a4:	2402006e 	li	v0,110
9d00e8a8:	1222ffcb 	beq	s1,v0,9d00e7d8 <__scan_fp+0x2f4>
9d00e8ac:	0255102a 	slt	v0,s2,s5
9d00e8b0:	1440ffc2 	bnez	v0,9d00e7bc <__scan_fp+0x2d8>
9d00e8b4:	26020003 	addiu	v0,s0,3
9d00e8b8:	26b5ffff 	addiu	s5,s5,-1
9d00e8bc:	02b0102a 	slt	v0,s5,s0
9d00e8c0:	1440ff45 	bnez	v0,9d00e5d8 <__scan_fp+0xf4>
9d00e8c4:	8fa20018 	lw	v0,24(sp)
9d00e8c8:	8e62004c 	lw	v0,76(s3)
9d00e8cc:	5040fffb 	beqzl	v0,9d00e8bc <__scan_fp+0x3d8>
9d00e8d0:	26b5ffff 	addiu	s5,s5,-1
9d00e8d4:	8e62003c 	lw	v0,60(s3)
9d00e8d8:	2442ffff 	addiu	v0,v0,-1
9d00e8dc:	1000fff6 	b	9d00e8b8 <__scan_fp+0x3d4>
9d00e8e0:	ae62003c 	sw	v0,60(s3)

Disassembly of section .text:

9d00e8e4 <get_encoder_flag>:
volatile int rx_num_bytes = 0;
char rx_message[MAX_RX_MESSAGE];
volatile int pos = 0;
volatile int newPosFlag = 0;

int get_encoder_flag(){
9d00e8e4:	27bdfff8 	addiu	sp,sp,-8
9d00e8e8:	afbe0004 	sw	s8,4(sp)
9d00e8ec:	03a0f025 	move	s8,sp
    return newPosFlag;
9d00e8f0:	8f82802c 	lw	v0,-32724(gp)
}
9d00e8f4:	03c0e825 	move	sp,s8
9d00e8f8:	8fbe0004 	lw	s8,4(sp)
9d00e8fc:	27bd0008 	addiu	sp,sp,8
9d00e900:	03e00008 	jr	ra
9d00e904:	00000000 	nop

9d00e908 <set_encoder_flag>:

void set_encoder_flag(int f){
9d00e908:	27bdfff8 	addiu	sp,sp,-8
9d00e90c:	afbe0004 	sw	s8,4(sp)
9d00e910:	03a0f025 	move	s8,sp
9d00e914:	afc40008 	sw	a0,8(s8)
    newPosFlag = f;
9d00e918:	8fc20008 	lw	v0,8(s8)
9d00e91c:	af82802c 	sw	v0,-32724(gp)
}
9d00e920:	00000000 	nop
9d00e924:	03c0e825 	move	sp,s8
9d00e928:	8fbe0004 	lw	s8,4(sp)
9d00e92c:	27bd0008 	addiu	sp,sp,8
9d00e930:	03e00008 	jr	ra
9d00e934:	00000000 	nop

9d00e938 <get_encoder_count>:

int get_encoder_count(){
9d00e938:	27bdfff8 	addiu	sp,sp,-8
9d00e93c:	afbe0004 	sw	s8,4(sp)
9d00e940:	03a0f025 	move	s8,sp
    return pos;
9d00e944:	8f828028 	lw	v0,-32728(gp)
}
9d00e948:	03c0e825 	move	sp,s8
9d00e94c:	8fbe0004 	lw	s8,4(sp)
9d00e950:	27bd0008 	addiu	sp,sp,8
9d00e954:	03e00008 	jr	ra
9d00e958:	00000000 	nop

9d00e95c <U2ISR>:

void __ISR(_UART_2_VECTOR, IPL7SOFT) U2ISR(void) { 
9d00e95c:	415de800 	rdpgpr	sp,sp
9d00e960:	401a7000 	mfc0	k0,c0_epc
9d00e964:	401b6000 	mfc0	k1,c0_status
9d00e968:	27bdff80 	addiu	sp,sp,-128
9d00e96c:	afbb007c 	sw	k1,124(sp)
9d00e970:	7c1b7844 	ins	k1,zero,0x1,0xf
9d00e974:	377b1c00 	ori	k1,k1,0x1c00
9d00e978:	409b6000 	mtc0	k1,c0_status
9d00e97c:	afbf0064 	sw	ra,100(sp)
9d00e980:	afbe0060 	sw	s8,96(sp)
9d00e984:	afb9005c 	sw	t9,92(sp)
9d00e988:	afb80058 	sw	t8,88(sp)
9d00e98c:	afaf0054 	sw	t7,84(sp)
9d00e990:	afae0050 	sw	t6,80(sp)
9d00e994:	afad004c 	sw	t5,76(sp)
9d00e998:	afac0048 	sw	t4,72(sp)
9d00e99c:	afab0044 	sw	t3,68(sp)
9d00e9a0:	afaa0040 	sw	t2,64(sp)
9d00e9a4:	afa9003c 	sw	t1,60(sp)
9d00e9a8:	afa80038 	sw	t0,56(sp)
9d00e9ac:	afa70034 	sw	a3,52(sp)
9d00e9b0:	afa60030 	sw	a2,48(sp)
9d00e9b4:	afa5002c 	sw	a1,44(sp)
9d00e9b8:	afa40028 	sw	a0,40(sp)
9d00e9bc:	afa30024 	sw	v1,36(sp)
9d00e9c0:	afa20020 	sw	v0,32(sp)
9d00e9c4:	afa1001c 	sw	at,28(sp)
9d00e9c8:	00001012 	mflo	v0
9d00e9cc:	afa2006c 	sw	v0,108(sp)
9d00e9d0:	00001810 	mfhi	v1
9d00e9d4:	afa30068 	sw	v1,104(sp)
9d00e9d8:	03a0f025 	move	s8,sp
  char data = U2RXREG; // read the data
9d00e9dc:	3c02bf80 	lui	v0,0xbf80
9d00e9e0:	8c426230 	lw	v0,25136(v0)
9d00e9e4:	a3c20010 	sb	v0,16(s8)
  if (data == '\n') {
9d00e9e8:	83c30010 	lb	v1,16(s8)
9d00e9ec:	2402000a 	li	v0,10
9d00e9f0:	14620012 	bne	v1,v0,9d00ea3c <U2ISR+0xe0>
9d00e9f4:	00000000 	nop
    rx_message[rx_num_bytes] = '\0';
9d00e9f8:	8f838024 	lw	v1,-32732(gp)
9d00e9fc:	3c02a000 	lui	v0,0xa000
9d00ea00:	24420054 	addiu	v0,v0,84
9d00ea04:	00621021 	addu	v0,v1,v0
9d00ea08:	a0400000 	sb	zero,0(v0)
    sscanf(rx_message,"%d",&pos);
9d00ea0c:	27868028 	addiu	a2,gp,-32728
9d00ea10:	3c029d01 	lui	v0,0x9d01
9d00ea14:	24451774 	addiu	a1,v0,6004
9d00ea18:	3c02a000 	lui	v0,0xa000
9d00ea1c:	24440054 	addiu	a0,v0,84
9d00ea20:	0f4051d4 	jal	9d014750 <_dsscanf_deEfFgGn>
9d00ea24:	00000000 	nop
    newPosFlag = 1;
9d00ea28:	24020001 	li	v0,1
9d00ea2c:	af82802c 	sw	v0,-32724(gp)
    rx_num_bytes = 0;
9d00ea30:	af808024 	sw	zero,-32732(gp)
9d00ea34:	1000000f 	b	9d00ea74 <U2ISR+0x118>
9d00ea38:	00000000 	nop
  } 
  else {
    rx_message[rx_num_bytes] = data;
9d00ea3c:	8f838024 	lw	v1,-32732(gp)
9d00ea40:	3c02a000 	lui	v0,0xa000
9d00ea44:	24420054 	addiu	v0,v0,84
9d00ea48:	00621021 	addu	v0,v1,v0
9d00ea4c:	93c30010 	lbu	v1,16(s8)
9d00ea50:	a0430000 	sb	v1,0(v0)
    ++rx_num_bytes;
9d00ea54:	8f828024 	lw	v0,-32732(gp)
9d00ea58:	24420001 	addiu	v0,v0,1
9d00ea5c:	af828024 	sw	v0,-32732(gp)
    // roll over if got more bytes than the size of the array
    if (rx_num_bytes >= MAX_RX_MESSAGE) {
9d00ea60:	8f828024 	lw	v0,-32732(gp)
9d00ea64:	28420064 	slti	v0,v0,100
9d00ea68:	14400002 	bnez	v0,9d00ea74 <U2ISR+0x118>
9d00ea6c:	00000000 	nop
      rx_num_bytes = 0;
9d00ea70:	af808024 	sw	zero,-32732(gp)
    }
  }
  IFS1bits.U2RXIF = 0;
9d00ea74:	3c03bf88 	lui	v1,0xbf88
9d00ea78:	8c621040 	lw	v0,4160(v1)
9d00ea7c:	7c02b584 	ins	v0,zero,0x16,0x1
9d00ea80:	ac621040 	sw	v0,4160(v1)
}
9d00ea84:	00000000 	nop
9d00ea88:	03c0e825 	move	sp,s8
9d00ea8c:	8fa2006c 	lw	v0,108(sp)
9d00ea90:	00400013 	mtlo	v0
9d00ea94:	8fa30068 	lw	v1,104(sp)
9d00ea98:	00600011 	mthi	v1
9d00ea9c:	8fbf0064 	lw	ra,100(sp)
9d00eaa0:	8fbe0060 	lw	s8,96(sp)
9d00eaa4:	8fb9005c 	lw	t9,92(sp)
9d00eaa8:	8fb80058 	lw	t8,88(sp)
9d00eaac:	8faf0054 	lw	t7,84(sp)
9d00eab0:	8fae0050 	lw	t6,80(sp)
9d00eab4:	8fad004c 	lw	t5,76(sp)
9d00eab8:	8fac0048 	lw	t4,72(sp)
9d00eabc:	8fab0044 	lw	t3,68(sp)
9d00eac0:	8faa0040 	lw	t2,64(sp)
9d00eac4:	8fa9003c 	lw	t1,60(sp)
9d00eac8:	8fa80038 	lw	t0,56(sp)
9d00eacc:	8fa70034 	lw	a3,52(sp)
9d00ead0:	8fa60030 	lw	a2,48(sp)
9d00ead4:	8fa5002c 	lw	a1,44(sp)
9d00ead8:	8fa40028 	lw	a0,40(sp)
9d00eadc:	8fa30024 	lw	v1,36(sp)
9d00eae0:	8fa20020 	lw	v0,32(sp)
9d00eae4:	8fa1001c 	lw	at,28(sp)
9d00eae8:	8fbb007c 	lw	k1,124(sp)
9d00eaec:	27bd0080 	addiu	sp,sp,128
9d00eaf0:	41dde800 	wrpgpr	sp,sp
9d00eaf4:	409b6000 	mtc0	k1,c0_status
9d00eaf8:	42000018 	eret

9d00eafc <WriteUART2>:

// Write a character array using UART2
void WriteUART2(const char * string) {
9d00eafc:	27bdfff8 	addiu	sp,sp,-8
9d00eb00:	afbe0004 	sw	s8,4(sp)
9d00eb04:	03a0f025 	move	s8,sp
9d00eb08:	afc40008 	sw	a0,8(s8)
  while (*string != '\0') {
9d00eb0c:	10000010 	b	9d00eb50 <WriteUART2+0x54>
9d00eb10:	00000000 	nop
    while (U2STAbits.UTXBF) {
9d00eb14:	00000000 	nop
9d00eb18:	3c02bf80 	lui	v0,0xbf80
9d00eb1c:	8c426210 	lw	v0,25104(v0)
9d00eb20:	7c420240 	ext	v0,v0,0x9,0x1
9d00eb24:	304200ff 	andi	v0,v0,0xff
9d00eb28:	1440fffb 	bnez	v0,9d00eb18 <WriteUART2+0x1c>
9d00eb2c:	00000000 	nop
      ; // wait until tx buffer isn't full
    }
    U2TXREG = *string;
9d00eb30:	8fc20008 	lw	v0,8(s8)
9d00eb34:	80420000 	lb	v0,0(v0)
9d00eb38:	00401825 	move	v1,v0
9d00eb3c:	3c02bf80 	lui	v0,0xbf80
9d00eb40:	ac436220 	sw	v1,25120(v0)
    ++string;
9d00eb44:	8fc20008 	lw	v0,8(s8)
9d00eb48:	24420001 	addiu	v0,v0,1
9d00eb4c:	afc20008 	sw	v0,8(s8)
  while (*string != '\0') {
9d00eb50:	8fc20008 	lw	v0,8(s8)
9d00eb54:	80420000 	lb	v0,0(v0)
9d00eb58:	1440ffee 	bnez	v0,9d00eb14 <WriteUART2+0x18>
9d00eb5c:	00000000 	nop
  }
}
9d00eb60:	00000000 	nop
9d00eb64:	03c0e825 	move	sp,s8
9d00eb68:	8fbe0004 	lw	s8,4(sp)
9d00eb6c:	27bd0008 	addiu	sp,sp,8
9d00eb70:	03e00008 	jr	ra
9d00eb74:	00000000 	nop

9d00eb78 <UART2_Startup>:

//  Initialize the serial port - UART2 
void UART2_Startup() {
9d00eb78:	27bdfff8 	addiu	sp,sp,-8
9d00eb7c:	afbf0004 	sw	ra,4(sp)
9d00eb80:	afbe0000 	sw	s8,0(sp)
9d00eb84:	03a0f025 	move	s8,sp
  // disable interrupts
  __builtin_disable_interrupts();
9d00eb88:	41626000 	di	v0
9d00eb8c:	000000c0 	ehb
9d00eb90:	00000000 	nop

  // set UART2 TX and RX pins
  ANSELBCLR = 0b11;
9d00eb94:	3c02bf88 	lui	v0,0xbf88
9d00eb98:	24030003 	li	v1,3
9d00eb9c:	ac436104 	sw	v1,24836(v0)
  U2RXRbits.U2RXR = 0b0010; // U2RX on B1, pin 5
9d00eba0:	3c03bf81 	lui	v1,0xbf81
9d00eba4:	9062fa58 	lbu	v0,-1448(v1)
9d00eba8:	24040002 	li	a0,2
9d00ebac:	7c821804 	ins	v0,a0,0x0,0x4
9d00ebb0:	a062fa58 	sb	v0,-1448(v1)
  RPB0Rbits.RPB0R = 0b0010; // U2TX on B0, pin 4
9d00ebb4:	3c03bf81 	lui	v1,0xbf81
9d00ebb8:	9062fb2c 	lbu	v0,-1236(v1)
9d00ebbc:	24040002 	li	a0,2
9d00ebc0:	7c821804 	ins	v0,a0,0x0,0x4
9d00ebc4:	a062fb2c 	sb	v0,-1236(v1)

  // turn on UART2 with interrupt on RX
  U2MODEbits.BRGH = 0; // set baud to NU32_DESIRED_BAUD
9d00ebc8:	3c03bf80 	lui	v1,0xbf80
9d00ebcc:	94626200 	lhu	v0,25088(v1)
9d00ebd0:	7c0218c4 	ins	v0,zero,0x3,0x1
9d00ebd4:	a4626200 	sh	v0,25088(v1)
  U2BRG = ((NU32DIP_SYS_FREQ / UART2_DESIRED_BAUD) / 16) - 1;
9d00ebd8:	3c02bf80 	lui	v0,0xbf80
9d00ebdc:	2403000c 	li	v1,12
9d00ebe0:	ac436240 	sw	v1,25152(v0)

  // 8 bit, no parity bit, and 1 stop bit (8N1 setup)
  U2MODEbits.PDSEL = 0;
9d00ebe4:	3c03bf80 	lui	v1,0xbf80
9d00ebe8:	94626200 	lhu	v0,25088(v1)
9d00ebec:	7c021044 	ins	v0,zero,0x1,0x2
9d00ebf0:	a4626200 	sh	v0,25088(v1)
  U2MODEbits.STSEL = 0;
9d00ebf4:	3c03bf80 	lui	v1,0xbf80
9d00ebf8:	94626200 	lhu	v0,25088(v1)
9d00ebfc:	7c020004 	ins	v0,zero,0x0,0x1
9d00ec00:	a4626200 	sh	v0,25088(v1)

  // configure TX & RX pins as output & input pins
  U2STAbits.UTXEN = 1;
9d00ec04:	3c03bf80 	lui	v1,0xbf80
9d00ec08:	8c626210 	lw	v0,25104(v1)
9d00ec0c:	24040001 	li	a0,1
9d00ec10:	7c825284 	ins	v0,a0,0xa,0x1
9d00ec14:	ac626210 	sw	v0,25104(v1)
  U2STAbits.URXEN = 1;
9d00ec18:	3c03bf80 	lui	v1,0xbf80
9d00ec1c:	8c626210 	lw	v0,25104(v1)
9d00ec20:	24040001 	li	a0,1
9d00ec24:	7c826304 	ins	v0,a0,0xc,0x1
9d00ec28:	ac626210 	sw	v0,25104(v1)

  U2STAbits.URXISEL = 0; // interrupt when a char is rcvd
9d00ec2c:	3c03bf80 	lui	v1,0xbf80
9d00ec30:	8c626210 	lw	v0,25104(v1)
9d00ec34:	7c023984 	ins	v0,zero,0x6,0x2
9d00ec38:	ac626210 	sw	v0,25104(v1)
  IPC9bits.U2IP = 7;
9d00ec3c:	3c03bf88 	lui	v1,0xbf88
9d00ec40:	8c621120 	lw	v0,4384(v1)
9d00ec44:	24040007 	li	a0,7
9d00ec48:	7c826284 	ins	v0,a0,0xa,0x3
9d00ec4c:	ac621120 	sw	v0,4384(v1)
  IPC9bits.U2IS = 0;
9d00ec50:	3c03bf88 	lui	v1,0xbf88
9d00ec54:	8c621120 	lw	v0,4384(v1)
9d00ec58:	7c024a04 	ins	v0,zero,0x8,0x2
9d00ec5c:	ac621120 	sw	v0,4384(v1)
  IFS1bits.U2RXIF = 0;
9d00ec60:	3c03bf88 	lui	v1,0xbf88
9d00ec64:	8c621040 	lw	v0,4160(v1)
9d00ec68:	7c02b584 	ins	v0,zero,0x16,0x1
9d00ec6c:	ac621040 	sw	v0,4160(v1)
  IEC1bits.U2RXIE = 1;
9d00ec70:	3c03bf88 	lui	v1,0xbf88
9d00ec74:	8c621070 	lw	v0,4208(v1)
9d00ec78:	24040001 	li	a0,1
9d00ec7c:	7c82b584 	ins	v0,a0,0x16,0x1
9d00ec80:	ac621070 	sw	v0,4208(v1)

  // enable the uart
  U2MODEbits.ON = 1;
9d00ec84:	3c03bf80 	lui	v1,0xbf80
9d00ec88:	94626200 	lhu	v0,25088(v1)
9d00ec8c:	24040001 	li	a0,1
9d00ec90:	7c827bc4 	ins	v0,a0,0xf,0x1
9d00ec94:	a4626200 	sh	v0,25088(v1)

  __builtin_enable_interrupts();
9d00ec98:	41626020 	ei	v0
}
9d00ec9c:	00000000 	nop
9d00eca0:	03c0e825 	move	sp,s8
9d00eca4:	8fbf0004 	lw	ra,4(sp)
9d00eca8:	8fbe0000 	lw	s8,0(sp)
9d00ecac:	27bd0008 	addiu	sp,sp,8
9d00ecb0:	03e00008 	jr	ra
9d00ecb4:	00000000 	nop

9d00ecb8 <__udivdi3>:
9d00ecb8:	00c04025 	move	t0,a2
9d00ecbc:	00e01825 	move	v1,a3
9d00ecc0:	00805025 	move	t2,a0
9d00ecc4:	14e00098 	bnez	a3,9d00ef28 <__udivdi3+0x270>
9d00ecc8:	00a01025 	move	v0,a1
9d00eccc:	00a6302b 	sltu	a2,a1,a2
9d00ecd0:	10c00035 	beqz	a2,9d00eda8 <__udivdi3+0xf0>
9d00ecd4:	00000000 	nop
9d00ecd8:	71052820 	clz	a1,t0
9d00ecdc:	10a00006 	beqz	a1,9d00ecf8 <__udivdi3+0x40>
9d00ece0:	00052023 	negu	a0,a1
9d00ece4:	008a2006 	srlv	a0,t2,a0
9d00ece8:	00a21004 	sllv	v0,v0,a1
9d00ecec:	00a84004 	sllv	t0,t0,a1
9d00ecf0:	00821025 	or	v0,a0,v0
9d00ecf4:	00aa5004 	sllv	t2,t2,a1
9d00ecf8:	00083402 	srl	a2,t0,0x10
9d00ecfc:	0046001b 	divu	zero,v0,a2
9d00ed00:	00c001f4 	teq	a2,zero,0x7
9d00ed04:	3105ffff 	andi	a1,t0,0xffff
9d00ed08:	000a2402 	srl	a0,t2,0x10
9d00ed0c:	00003812 	mflo	a3
9d00ed10:	00001010 	mfhi	v0
9d00ed14:	00021400 	sll	v0,v0,0x10
9d00ed18:	00442025 	or	a0,v0,a0
9d00ed1c:	70a74802 	mul	t1,a1,a3
9d00ed20:	0089582b 	sltu	t3,a0,t1
9d00ed24:	1160000a 	beqz	t3,9d00ed50 <__udivdi3+0x98>
9d00ed28:	00e01025 	move	v0,a3
9d00ed2c:	00882021 	addu	a0,a0,t0
9d00ed30:	0088582b 	sltu	t3,a0,t0
9d00ed34:	15600006 	bnez	t3,9d00ed50 <__udivdi3+0x98>
9d00ed38:	24e2ffff 	addiu	v0,a3,-1
9d00ed3c:	0089582b 	sltu	t3,a0,t1
9d00ed40:	51600004 	beqzl	t3,9d00ed54 <__udivdi3+0x9c>
9d00ed44:	00892023 	subu	a0,a0,t1
9d00ed48:	24e2fffe 	addiu	v0,a3,-2
9d00ed4c:	00882021 	addu	a0,a0,t0
9d00ed50:	00892023 	subu	a0,a0,t1
9d00ed54:	0086001b 	divu	zero,a0,a2
9d00ed58:	00c001f4 	teq	a2,zero,0x7
9d00ed5c:	00003010 	mfhi	a2
9d00ed60:	00063400 	sll	a2,a2,0x10
9d00ed64:	00002012 	mflo	a0
9d00ed68:	70a43802 	mul	a3,a1,a0
9d00ed6c:	3145ffff 	andi	a1,t2,0xffff
9d00ed70:	00c52825 	or	a1,a2,a1
9d00ed74:	00a7482b 	sltu	t1,a1,a3
9d00ed78:	11200008 	beqz	t1,9d00ed9c <__udivdi3+0xe4>
9d00ed7c:	00803025 	move	a2,a0
9d00ed80:	01052821 	addu	a1,t0,a1
9d00ed84:	00a8402b 	sltu	t0,a1,t0
9d00ed88:	15000004 	bnez	t0,9d00ed9c <__udivdi3+0xe4>
9d00ed8c:	2486ffff 	addiu	a2,a0,-1
9d00ed90:	00a7282b 	sltu	a1,a1,a3
9d00ed94:	54a00001 	bnezl	a1,9d00ed9c <__udivdi3+0xe4>
9d00ed98:	2486fffe 	addiu	a2,a0,-2
9d00ed9c:	00021400 	sll	v0,v0,0x10
9d00eda0:	03e00008 	jr	ra
9d00eda4:	00461025 	or	v0,v0,a2
9d00eda8:	15000004 	bnez	t0,9d00edbc <__udivdi3+0x104>
9d00edac:	24020001 	li	v0,1
9d00edb0:	0048001b 	divu	zero,v0,t0
9d00edb4:	010001f4 	teq	t0,zero,0x7
9d00edb8:	00004012 	mflo	t0
9d00edbc:	710b5820 	clz	t3,t0
9d00edc0:	15600023 	bnez	t3,9d00ee50 <__udivdi3+0x198>
9d00edc4:	24070020 	li	a3,32
9d00edc8:	00a82823 	subu	a1,a1,t0
9d00edcc:	24030001 	li	v1,1
9d00edd0:	00083402 	srl	a2,t0,0x10
9d00edd4:	00a6001b 	divu	zero,a1,a2
9d00edd8:	00c001f4 	teq	a2,zero,0x7
9d00eddc:	3107ffff 	andi	a3,t0,0xffff
9d00ede0:	000a2402 	srl	a0,t2,0x10
9d00ede4:	00002812 	mflo	a1
9d00ede8:	00001010 	mfhi	v0
9d00edec:	00021400 	sll	v0,v0,0x10
9d00edf0:	00442025 	or	a0,v0,a0
9d00edf4:	70e54802 	mul	t1,a3,a1
9d00edf8:	0089582b 	sltu	t3,a0,t1
9d00edfc:	1160000a 	beqz	t3,9d00ee28 <__udivdi3+0x170>
9d00ee00:	00a01025 	move	v0,a1
9d00ee04:	00882021 	addu	a0,a0,t0
9d00ee08:	0088582b 	sltu	t3,a0,t0
9d00ee0c:	15600006 	bnez	t3,9d00ee28 <__udivdi3+0x170>
9d00ee10:	24a2ffff 	addiu	v0,a1,-1
9d00ee14:	0089582b 	sltu	t3,a0,t1
9d00ee18:	51600004 	beqzl	t3,9d00ee2c <__udivdi3+0x174>
9d00ee1c:	00892023 	subu	a0,a0,t1
9d00ee20:	24a2fffe 	addiu	v0,a1,-2
9d00ee24:	00882021 	addu	a0,a0,t0
9d00ee28:	00892023 	subu	a0,a0,t1
9d00ee2c:	0086001b 	divu	zero,a0,a2
9d00ee30:	00c001f4 	teq	a2,zero,0x7
9d00ee34:	314affff 	andi	t2,t2,0xffff
9d00ee38:	00002810 	mfhi	a1
9d00ee3c:	00052c00 	sll	a1,a1,0x10
9d00ee40:	00aa2825 	or	a1,a1,t2
9d00ee44:	00002012 	mflo	a0
9d00ee48:	1000ffca 	b	9d00ed74 <__udivdi3+0xbc>
9d00ee4c:	70e43802 	mul	a3,a3,a0
9d00ee50:	00eb3823 	subu	a3,a3,t3
9d00ee54:	01684004 	sllv	t0,t0,t3
9d00ee58:	00e44806 	srlv	t1,a0,a3
9d00ee5c:	00083402 	srl	a2,t0,0x10
9d00ee60:	00e53806 	srlv	a3,a1,a3
9d00ee64:	00e6001b 	divu	zero,a3,a2
9d00ee68:	00c001f4 	teq	a2,zero,0x7
9d00ee6c:	01651004 	sllv	v0,a1,t3
9d00ee70:	01224825 	or	t1,t1,v0
9d00ee74:	3102ffff 	andi	v0,t0,0xffff
9d00ee78:	00091c02 	srl	v1,t1,0x10
9d00ee7c:	00002812 	mflo	a1
9d00ee80:	00003810 	mfhi	a3
9d00ee84:	00073c00 	sll	a3,a3,0x10
9d00ee88:	00e33825 	or	a3,a3,v1
9d00ee8c:	70455002 	mul	t2,v0,a1
9d00ee90:	00ea602b 	sltu	t4,a3,t2
9d00ee94:	1180000a 	beqz	t4,9d00eec0 <__udivdi3+0x208>
9d00ee98:	00a01825 	move	v1,a1
9d00ee9c:	00e83821 	addu	a3,a3,t0
9d00eea0:	00e8602b 	sltu	t4,a3,t0
9d00eea4:	15800006 	bnez	t4,9d00eec0 <__udivdi3+0x208>
9d00eea8:	24a3ffff 	addiu	v1,a1,-1
9d00eeac:	00ea602b 	sltu	t4,a3,t2
9d00eeb0:	51800004 	beqzl	t4,9d00eec4 <__udivdi3+0x20c>
9d00eeb4:	00ea3823 	subu	a3,a3,t2
9d00eeb8:	24a3fffe 	addiu	v1,a1,-2
9d00eebc:	00e83821 	addu	a3,a3,t0
9d00eec0:	00ea3823 	subu	a3,a3,t2
9d00eec4:	00e6001b 	divu	zero,a3,a2
9d00eec8:	00c001f4 	teq	a2,zero,0x7
9d00eecc:	3125ffff 	andi	a1,t1,0xffff
9d00eed0:	00003012 	mflo	a2
9d00eed4:	00003810 	mfhi	a3
9d00eed8:	00073c00 	sll	a3,a3,0x10
9d00eedc:	00e52825 	or	a1,a3,a1
9d00eee0:	70461002 	mul	v0,v0,a2
9d00eee4:	00a2482b 	sltu	t1,a1,v0
9d00eee8:	1120000a 	beqz	t1,9d00ef14 <__udivdi3+0x25c>
9d00eeec:	00c03825 	move	a3,a2
9d00eef0:	00a82821 	addu	a1,a1,t0
9d00eef4:	00a8482b 	sltu	t1,a1,t0
9d00eef8:	15200006 	bnez	t1,9d00ef14 <__udivdi3+0x25c>
9d00eefc:	24c7ffff 	addiu	a3,a2,-1
9d00ef00:	00a2482b 	sltu	t1,a1,v0
9d00ef04:	51200004 	beqzl	t1,9d00ef18 <__udivdi3+0x260>
9d00ef08:	00031c00 	sll	v1,v1,0x10
9d00ef0c:	24c7fffe 	addiu	a3,a2,-2
9d00ef10:	00a82821 	addu	a1,a1,t0
9d00ef14:	00031c00 	sll	v1,v1,0x10
9d00ef18:	01645004 	sllv	t2,a0,t3
9d00ef1c:	00a22823 	subu	a1,a1,v0
9d00ef20:	1000ffab 	b	9d00edd0 <__udivdi3+0x118>
9d00ef24:	00671825 	or	v1,v1,a3
9d00ef28:	00a7402b 	sltu	t0,a1,a3
9d00ef2c:	00001825 	move	v1,zero
9d00ef30:	1500004e 	bnez	t0,9d00f06c <__udivdi3+0x3b4>
9d00ef34:	00001025 	move	v0,zero
9d00ef38:	70ea5020 	clz	t2,a3
9d00ef3c:	15400007 	bnez	t2,9d00ef5c <__udivdi3+0x2a4>
9d00ef40:	24090020 	li	t1,32
9d00ef44:	00e5282b 	sltu	a1,a3,a1
9d00ef48:	14a00048 	bnez	a1,9d00f06c <__udivdi3+0x3b4>
9d00ef4c:	24020001 	li	v0,1
9d00ef50:	0086102b 	sltu	v0,a0,a2
9d00ef54:	03e00008 	jr	ra
9d00ef58:	38420001 	xori	v0,v0,0x1
9d00ef5c:	012a4823 	subu	t1,t1,t2
9d00ef60:	01261006 	srlv	v0,a2,t1
9d00ef64:	01473804 	sllv	a3,a3,t2
9d00ef68:	00473825 	or	a3,v0,a3
9d00ef6c:	01451804 	sllv	v1,a1,t2
9d00ef70:	00074402 	srl	t0,a3,0x10
9d00ef74:	01252806 	srlv	a1,a1,t1
9d00ef78:	00a8001b 	divu	zero,a1,t0
9d00ef7c:	010001f4 	teq	t0,zero,0x7
9d00ef80:	30ebffff 	andi	t3,a3,0xffff
9d00ef84:	01241006 	srlv	v0,a0,t1
9d00ef88:	00431025 	or	v0,v0,v1
9d00ef8c:	00021c02 	srl	v1,v0,0x10
9d00ef90:	00002812 	mflo	a1
9d00ef94:	00004810 	mfhi	t1
9d00ef98:	00094c00 	sll	t1,t1,0x10
9d00ef9c:	01234825 	or	t1,t1,v1
9d00efa0:	71656002 	mul	t4,t3,a1
9d00efa4:	012c682b 	sltu	t5,t1,t4
9d00efa8:	11a0000a 	beqz	t5,9d00efd4 <__udivdi3+0x31c>
9d00efac:	00a01825 	move	v1,a1
9d00efb0:	01274821 	addu	t1,t1,a3
9d00efb4:	0127682b 	sltu	t5,t1,a3
9d00efb8:	15a00006 	bnez	t5,9d00efd4 <__udivdi3+0x31c>
9d00efbc:	24a3ffff 	addiu	v1,a1,-1
9d00efc0:	012c682b 	sltu	t5,t1,t4
9d00efc4:	51a00004 	beqzl	t5,9d00efd8 <__udivdi3+0x320>
9d00efc8:	012c4823 	subu	t1,t1,t4
9d00efcc:	24a3fffe 	addiu	v1,a1,-2
9d00efd0:	01274821 	addu	t1,t1,a3
9d00efd4:	012c4823 	subu	t1,t1,t4
9d00efd8:	0128001b 	divu	zero,t1,t0
9d00efdc:	010001f4 	teq	t0,zero,0x7
9d00efe0:	3045ffff 	andi	a1,v0,0xffff
9d00efe4:	00004012 	mflo	t0
9d00efe8:	00004810 	mfhi	t1
9d00efec:	00094c00 	sll	t1,t1,0x10
9d00eff0:	01252825 	or	a1,t1,a1
9d00eff4:	71685802 	mul	t3,t3,t0
9d00eff8:	00ab102b 	sltu	v0,a1,t3
9d00effc:	1040000a 	beqz	v0,9d00f028 <__udivdi3+0x370>
9d00f000:	01004825 	move	t1,t0
9d00f004:	00a72821 	addu	a1,a1,a3
9d00f008:	00a7102b 	sltu	v0,a1,a3
9d00f00c:	14400006 	bnez	v0,9d00f028 <__udivdi3+0x370>
9d00f010:	2509ffff 	addiu	t1,t0,-1
9d00f014:	00ab102b 	sltu	v0,a1,t3
9d00f018:	10400004 	beqz	v0,9d00f02c <__udivdi3+0x374>
9d00f01c:	00031400 	sll	v0,v1,0x10
9d00f020:	2509fffe 	addiu	t1,t0,-2
9d00f024:	00a72821 	addu	a1,a1,a3
9d00f028:	00031400 	sll	v0,v1,0x10
9d00f02c:	01463004 	sllv	a2,a2,t2
9d00f030:	00491025 	or	v0,v0,t1
9d00f034:	00c20019 	multu	a2,v0
9d00f038:	00ab2823 	subu	a1,a1,t3
9d00f03c:	00003810 	mfhi	a3
9d00f040:	00a7182b 	sltu	v1,a1,a3
9d00f044:	14600007 	bnez	v1,9d00f064 <__udivdi3+0x3ac>
9d00f048:	00003012 	mflo	a2
9d00f04c:	14a70007 	bne	a1,a3,9d00f06c <__udivdi3+0x3b4>
9d00f050:	00001825 	move	v1,zero
9d00f054:	01442004 	sllv	a0,a0,t2
9d00f058:	0086202b 	sltu	a0,a0,a2
9d00f05c:	10800003 	beqz	a0,9d00f06c <__udivdi3+0x3b4>
9d00f060:	00000000 	nop
9d00f064:	2442ffff 	addiu	v0,v0,-1
9d00f068:	00001825 	move	v1,zero
9d00f06c:	03e00008 	jr	ra
9d00f070:	00000000 	nop

Disassembly of section .text:

9d00f074 <__umoddi3>:
9d00f074:	00c04825 	move	t1,a2
9d00f078:	00801025 	move	v0,a0
9d00f07c:	14e0008b 	bnez	a3,9d00f2ac <__umoddi3+0x238>
9d00f080:	00a01825 	move	v1,a1
9d00f084:	00a6302b 	sltu	a2,a1,a2
9d00f088:	10c00033 	beqz	a2,9d00f158 <__umoddi3+0xe4>
9d00f08c:	712a5020 	clz	t2,t1
9d00f090:	11400008 	beqz	t2,9d00f0b4 <__umoddi3+0x40>
9d00f094:	00095c02 	srl	t3,t1,0x10
9d00f098:	01451804 	sllv	v1,a1,t2
9d00f09c:	000a2823 	negu	a1,t2
9d00f0a0:	00a42806 	srlv	a1,a0,a1
9d00f0a4:	01494804 	sllv	t1,t1,t2
9d00f0a8:	00a31825 	or	v1,a1,v1
9d00f0ac:	01441004 	sllv	v0,a0,t2
9d00f0b0:	00095c02 	srl	t3,t1,0x10
9d00f0b4:	006b001b 	divu	zero,v1,t3
9d00f0b8:	016001f4 	teq	t3,zero,0x7
9d00f0bc:	3124ffff 	andi	a0,t1,0xffff
9d00f0c0:	00001812 	mflo	v1
9d00f0c4:	00002810 	mfhi	a1
9d00f0c8:	70643002 	mul	a2,v1,a0
9d00f0cc:	00051c00 	sll	v1,a1,0x10
9d00f0d0:	00022c02 	srl	a1,v0,0x10
9d00f0d4:	00651825 	or	v1,v1,a1
9d00f0d8:	0066282b 	sltu	a1,v1,a2
9d00f0dc:	50a00008 	beqzl	a1,9d00f100 <__umoddi3+0x8c>
9d00f0e0:	00661823 	subu	v1,v1,a2
9d00f0e4:	00691821 	addu	v1,v1,t1
9d00f0e8:	0069282b 	sltu	a1,v1,t1
9d00f0ec:	14a00003 	bnez	a1,9d00f0fc <__umoddi3+0x88>
9d00f0f0:	0066282b 	sltu	a1,v1,a2
9d00f0f4:	54a00001 	bnezl	a1,9d00f0fc <__umoddi3+0x88>
9d00f0f8:	00691821 	addu	v1,v1,t1
9d00f0fc:	00661823 	subu	v1,v1,a2
9d00f100:	006b001b 	divu	zero,v1,t3
9d00f104:	016001f4 	teq	t3,zero,0x7
9d00f108:	3042ffff 	andi	v0,v0,0xffff
9d00f10c:	00003010 	mfhi	a2
9d00f110:	00001812 	mflo	v1
9d00f114:	70645802 	mul	t3,v1,a0
9d00f118:	00061c00 	sll	v1,a2,0x10
9d00f11c:	00621025 	or	v0,v1,v0
9d00f120:	004b182b 	sltu	v1,v0,t3
9d00f124:	50600009 	beqzl	v1,9d00f14c <__umoddi3+0xd8>
9d00f128:	004b1023 	subu	v0,v0,t3
9d00f12c:	00491021 	addu	v0,v0,t1
9d00f130:	0049182b 	sltu	v1,v0,t1
9d00f134:	54600005 	bnezl	v1,9d00f14c <__umoddi3+0xd8>
9d00f138:	004b1023 	subu	v0,v0,t3
9d00f13c:	004b182b 	sltu	v1,v0,t3
9d00f140:	54600001 	bnezl	v1,9d00f148 <__umoddi3+0xd4>
9d00f144:	00491021 	addu	v0,v0,t1
9d00f148:	004b1023 	subu	v0,v0,t3
9d00f14c:	01421006 	srlv	v0,v0,t2
9d00f150:	03e00008 	jr	ra
9d00f154:	00001825 	move	v1,zero
9d00f158:	15200004 	bnez	t1,9d00f16c <__umoddi3+0xf8>
9d00f15c:	24030001 	li	v1,1
9d00f160:	0069001b 	divu	zero,v1,t1
9d00f164:	012001f4 	teq	t1,zero,0x7
9d00f168:	00004812 	mflo	t1
9d00f16c:	712a5020 	clz	t2,t1
9d00f170:	1540001f 	bnez	t2,9d00f1f0 <__umoddi3+0x17c>
9d00f174:	24070020 	li	a3,32
9d00f178:	00a92823 	subu	a1,a1,t1
9d00f17c:	00095c02 	srl	t3,t1,0x10
9d00f180:	00ab001b 	divu	zero,a1,t3
9d00f184:	016001f4 	teq	t3,zero,0x7
9d00f188:	3124ffff 	andi	a0,t1,0xffff
9d00f18c:	00002812 	mflo	a1
9d00f190:	00001810 	mfhi	v1
9d00f194:	70a43002 	mul	a2,a1,a0
9d00f198:	00032c00 	sll	a1,v1,0x10
9d00f19c:	00021c02 	srl	v1,v0,0x10
9d00f1a0:	00a32825 	or	a1,a1,v1
9d00f1a4:	00a6182b 	sltu	v1,a1,a2
9d00f1a8:	50600008 	beqzl	v1,9d00f1cc <__umoddi3+0x158>
9d00f1ac:	00a63023 	subu	a2,a1,a2
9d00f1b0:	00a92821 	addu	a1,a1,t1
9d00f1b4:	00a9182b 	sltu	v1,a1,t1
9d00f1b8:	14600003 	bnez	v1,9d00f1c8 <__umoddi3+0x154>
9d00f1bc:	00a6182b 	sltu	v1,a1,a2
9d00f1c0:	54600001 	bnezl	v1,9d00f1c8 <__umoddi3+0x154>
9d00f1c4:	00a92821 	addu	a1,a1,t1
9d00f1c8:	00a63023 	subu	a2,a1,a2
9d00f1cc:	00cb001b 	divu	zero,a2,t3
9d00f1d0:	016001f4 	teq	t3,zero,0x7
9d00f1d4:	3042ffff 	andi	v0,v0,0xffff
9d00f1d8:	00002810 	mfhi	a1
9d00f1dc:	00003012 	mflo	a2
9d00f1e0:	70c45802 	mul	t3,a2,a0
9d00f1e4:	00053400 	sll	a2,a1,0x10
9d00f1e8:	1000ffcd 	b	9d00f120 <__umoddi3+0xac>
9d00f1ec:	00c21025 	or	v0,a2,v0
9d00f1f0:	00ea3823 	subu	a3,a3,t2
9d00f1f4:	01494804 	sllv	t1,t1,t2
9d00f1f8:	00e41806 	srlv	v1,a0,a3
9d00f1fc:	00093402 	srl	a2,t1,0x10
9d00f200:	00e53806 	srlv	a3,a1,a3
9d00f204:	00e6001b 	divu	zero,a3,a2
9d00f208:	00c001f4 	teq	a2,zero,0x7
9d00f20c:	01451004 	sllv	v0,a1,t2
9d00f210:	3128ffff 	andi	t0,t1,0xffff
9d00f214:	00621825 	or	v1,v1,v0
9d00f218:	00032c02 	srl	a1,v1,0x10
9d00f21c:	00003812 	mflo	a3
9d00f220:	00006010 	mfhi	t4
9d00f224:	70e81002 	mul	v0,a3,t0
9d00f228:	000c3c00 	sll	a3,t4,0x10
9d00f22c:	00e53825 	or	a3,a3,a1
9d00f230:	00e2282b 	sltu	a1,a3,v0
9d00f234:	50a00008 	beqzl	a1,9d00f258 <__umoddi3+0x1e4>
9d00f238:	00e23823 	subu	a3,a3,v0
9d00f23c:	00e93821 	addu	a3,a3,t1
9d00f240:	00e9282b 	sltu	a1,a3,t1
9d00f244:	14a00003 	bnez	a1,9d00f254 <__umoddi3+0x1e0>
9d00f248:	00e2282b 	sltu	a1,a3,v0
9d00f24c:	54a00001 	bnezl	a1,9d00f254 <__umoddi3+0x1e0>
9d00f250:	00e93821 	addu	a3,a3,t1
9d00f254:	00e23823 	subu	a3,a3,v0
9d00f258:	00e6001b 	divu	zero,a3,a2
9d00f25c:	00c001f4 	teq	a2,zero,0x7
9d00f260:	3065ffff 	andi	a1,v1,0xffff
9d00f264:	00003012 	mflo	a2
9d00f268:	00003810 	mfhi	a3
9d00f26c:	00073c00 	sll	a3,a3,0x10
9d00f270:	00e52825 	or	a1,a3,a1
9d00f274:	70c83002 	mul	a2,a2,t0
9d00f278:	00a6102b 	sltu	v0,a1,a2
9d00f27c:	10400009 	beqz	v0,9d00f2a4 <__umoddi3+0x230>
9d00f280:	01441004 	sllv	v0,a0,t2
9d00f284:	00a92821 	addu	a1,a1,t1
9d00f288:	00a9102b 	sltu	v0,a1,t1
9d00f28c:	14400005 	bnez	v0,9d00f2a4 <__umoddi3+0x230>
9d00f290:	01441004 	sllv	v0,a0,t2
9d00f294:	00a6102b 	sltu	v0,a1,a2
9d00f298:	54400001 	bnezl	v0,9d00f2a0 <__umoddi3+0x22c>
9d00f29c:	00a92821 	addu	a1,a1,t1
9d00f2a0:	01441004 	sllv	v0,a0,t2
9d00f2a4:	1000ffb5 	b	9d00f17c <__umoddi3+0x108>
9d00f2a8:	00a62823 	subu	a1,a1,a2
9d00f2ac:	00a7402b 	sltu	t0,a1,a3
9d00f2b0:	1500005c 	bnez	t0,9d00f424 <__umoddi3+0x3b0>
9d00f2b4:	70ee7020 	clz	t6,a3
9d00f2b8:	15c0000a 	bnez	t6,9d00f2e4 <__umoddi3+0x270>
9d00f2bc:	00e5402b 	sltu	t0,a3,a1
9d00f2c0:	15000003 	bnez	t0,9d00f2d0 <__umoddi3+0x25c>
9d00f2c4:	0086402b 	sltu	t0,a0,a2
9d00f2c8:	15000056 	bnez	t0,9d00f424 <__umoddi3+0x3b0>
9d00f2cc:	00000000 	nop
9d00f2d0:	00861023 	subu	v0,a0,a2
9d00f2d4:	00a72823 	subu	a1,a1,a3
9d00f2d8:	0082182b 	sltu	v1,a0,v0
9d00f2dc:	03e00008 	jr	ra
9d00f2e0:	00a31823 	subu	v1,a1,v1
9d00f2e4:	240b0020 	li	t3,32
9d00f2e8:	016e5823 	subu	t3,t3,t6
9d00f2ec:	01666006 	srlv	t4,a2,t3
9d00f2f0:	01c73804 	sllv	a3,a3,t6
9d00f2f4:	01873825 	or	a3,t4,a3
9d00f2f8:	01c54004 	sllv	t0,a1,t6
9d00f2fc:	00074c02 	srl	t1,a3,0x10
9d00f300:	01652806 	srlv	a1,a1,t3
9d00f304:	00a9001b 	divu	zero,a1,t1
9d00f308:	012001f4 	teq	t1,zero,0x7
9d00f30c:	01641006 	srlv	v0,a0,t3
9d00f310:	00481025 	or	v0,v0,t0
9d00f314:	30e8ffff 	andi	t0,a3,0xffff
9d00f318:	00026402 	srl	t4,v0,0x10
9d00f31c:	00002812 	mflo	a1
9d00f320:	00005010 	mfhi	t2
9d00f324:	000a5400 	sll	t2,t2,0x10
9d00f328:	014c5025 	or	t2,t2,t4
9d00f32c:	71051802 	mul	v1,t0,a1
9d00f330:	0143602b 	sltu	t4,t2,v1
9d00f334:	1180000a 	beqz	t4,9d00f360 <__umoddi3+0x2ec>
9d00f338:	00a06825 	move	t5,a1
9d00f33c:	01475021 	addu	t2,t2,a3
9d00f340:	0147602b 	sltu	t4,t2,a3
9d00f344:	15800006 	bnez	t4,9d00f360 <__umoddi3+0x2ec>
9d00f348:	24adffff 	addiu	t5,a1,-1
9d00f34c:	0143602b 	sltu	t4,t2,v1
9d00f350:	51800004 	beqzl	t4,9d00f364 <__umoddi3+0x2f0>
9d00f354:	01435023 	subu	t2,t2,v1
9d00f358:	24adfffe 	addiu	t5,a1,-2
9d00f35c:	01475021 	addu	t2,t2,a3
9d00f360:	01435023 	subu	t2,t2,v1
9d00f364:	0149001b 	divu	zero,t2,t1
9d00f368:	012001f4 	teq	t1,zero,0x7
9d00f36c:	00004812 	mflo	t1
9d00f370:	00005010 	mfhi	t2
9d00f374:	000a5400 	sll	t2,t2,0x10
9d00f378:	71092802 	mul	a1,t0,t1
9d00f37c:	3048ffff 	andi	t0,v0,0xffff
9d00f380:	01484025 	or	t0,t2,t0
9d00f384:	0105102b 	sltu	v0,t0,a1
9d00f388:	1040000a 	beqz	v0,9d00f3b4 <__umoddi3+0x340>
9d00f38c:	01205025 	move	t2,t1
9d00f390:	01074021 	addu	t0,t0,a3
9d00f394:	0107102b 	sltu	v0,t0,a3
9d00f398:	14400006 	bnez	v0,9d00f3b4 <__umoddi3+0x340>
9d00f39c:	252affff 	addiu	t2,t1,-1
9d00f3a0:	0105102b 	sltu	v0,t0,a1
9d00f3a4:	10400004 	beqz	v0,9d00f3b8 <__umoddi3+0x344>
9d00f3a8:	000d6400 	sll	t4,t5,0x10
9d00f3ac:	252afffe 	addiu	t2,t1,-2
9d00f3b0:	01074021 	addu	t0,t0,a3
9d00f3b4:	000d6400 	sll	t4,t5,0x10
9d00f3b8:	01c61004 	sllv	v0,a2,t6
9d00f3bc:	018a6025 	or	t4,t4,t2
9d00f3c0:	01820019 	multu	t4,v0
9d00f3c4:	01054023 	subu	t0,t0,a1
9d00f3c8:	01c41804 	sllv	v1,a0,t6
9d00f3cc:	00006810 	mfhi	t5
9d00f3d0:	010d202b 	sltu	a0,t0,t5
9d00f3d4:	01a02825 	move	a1,t5
9d00f3d8:	00006012 	mflo	t4
9d00f3dc:	14800005 	bnez	a0,9d00f3f4 <__umoddi3+0x380>
9d00f3e0:	00003012 	mflo	a2
9d00f3e4:	150d0007 	bne	t0,t5,9d00f404 <__umoddi3+0x390>
9d00f3e8:	006c202b 	sltu	a0,v1,t4
9d00f3ec:	10800006 	beqz	a0,9d00f408 <__umoddi3+0x394>
9d00f3f0:	00663023 	subu	a2,v1,a2
9d00f3f4:	01823023 	subu	a2,t4,v0
9d00f3f8:	01a73823 	subu	a3,t5,a3
9d00f3fc:	0186602b 	sltu	t4,t4,a2
9d00f400:	00ec2823 	subu	a1,a3,t4
9d00f404:	00663023 	subu	a2,v1,a2
9d00f408:	0066182b 	sltu	v1,v1,a2
9d00f40c:	01054023 	subu	t0,t0,a1
9d00f410:	01031823 	subu	v1,t0,v1
9d00f414:	01631004 	sllv	v0,v1,t3
9d00f418:	01c63006 	srlv	a2,a2,t6
9d00f41c:	00461025 	or	v0,v0,a2
9d00f420:	01c31806 	srlv	v1,v1,t6
9d00f424:	03e00008 	jr	ra
9d00f428:	00000000 	nop

Disassembly of section .text.dp32mul:

9d00f42c <__muldf3>:
9d00f42c:	00055040 000a5542 00054ac0 00047d42     @P..BU...J..B}..
9d00f43c:	012f4825 000442c0 3c0e8000 012e4825     %H/..B.....<%H..
9d00f44c:	00076840 000d6d42 000762c0 00067d42     @h..Bm...b..B}..
9d00f45c:	018f6025 00065ac0 018e6025 00a72826     %`...Z..%`..&(..
9d00f46c:	00ae2824 254fffff 2de107fe 10200047     $(....O%...-G. .
9d00f47c:	00000000                                ....

9d00f480 <Clab1>:
9d00f480:	25afffff 	addiu	t7,t5,-1
9d00f484:	2de107fe 	sltiu	at,t7,2046
9d00f488:	1020006f 	beqz	at,9d00f648 <CspecB>
9d00f48c:	00000000 	nop

9d00f490 <Clab2>:
9d00f490:	25affc02 	addiu	t7,t5,-1022
9d00f494:	014f5021 	addu	t2,t2,t7
9d00f498:	012c0019 	multu	t1,t4
9d00f49c:	00003812 	mflo	a3
9d00f4a0:	00007010 	mfhi	t6
9d00f4a4:	010b0019 	multu	t0,t3
9d00f4a8:	00002012 	mflo	a0
9d00f4ac:	00003010 	mfhi	a2
9d00f4b0:	012b0019 	multu	t1,t3
9d00f4b4:	00005812 	mflo	t3
9d00f4b8:	00006810 	mfhi	t5
9d00f4bc:	00cb3021 	addu	a2,a2,t3
9d00f4c0:	00cb782b 	sltu	t7,a2,t3
9d00f4c4:	00ed3821 	addu	a3,a3,t5
9d00f4c8:	00ef3821 	addu	a3,a3,t7
9d00f4cc:	10ed0002 	beq	a3,t5,9d00f4d8 <L20>
9d00f4d0:	00000000 	nop
9d00f4d4:	00ed782b 	sltu	t7,a3,t5

9d00f4d8 <L20>:
9d00f4d8:	01cf7021 	addu	t6,t6,t7
9d00f4dc:	010c0019 	multu	t0,t4
9d00f4e0:	00004012 	mflo	t0
9d00f4e4:	00004810 	mfhi	t1
9d00f4e8:	00c83021 	addu	a2,a2,t0
9d00f4ec:	00c8782b 	sltu	t7,a2,t0
9d00f4f0:	00e93821 	addu	a3,a3,t1
9d00f4f4:	00ef3821 	addu	a3,a3,t7
9d00f4f8:	10e90002 	beq	a3,t1,9d00f504 <L21>
9d00f4fc:	00000000 	nop
9d00f500:	00e9782b 	sltu	t7,a3,t1

9d00f504 <L21>:
9d00f504:	01cf7021 	addu	t6,t6,t7
9d00f508:	00867825 	or	t7,a0,a2
9d00f50c:	11e00002 	beqz	t7,9d00f518 <i13>
9d00f510:	00000000 	nop
9d00f514:	34e70001 	ori	a3,a3,0x1

9d00f518 <i13>:
9d00f518:	000e4825 	or	t1,zero,t6
9d00f51c:	05200006 	bltz	t1,9d00f538 <i14>
9d00f520:	00074025 	or	t0,zero,a3
9d00f524:	0100782a 	slt	t7,t0,zero
9d00f528:	01084021 	addu	t0,t0,t0
9d00f52c:	01294821 	addu	t1,t1,t1
9d00f530:	012f4821 	addu	t1,t1,t7
9d00f534:	254affff 	addiu	t2,t2,-1

9d00f538 <i14>:
9d00f538:	254fffff 	addiu	t7,t2,-1
9d00f53c:	2de107fe 	sltiu	at,t7,2046
9d00f540:	10200068 	beqz	at,9d00f6e4 <Coveund>
9d00f544:	00000000 	nop
9d00f548:	25080400 	addiu	t0,t0,1024
9d00f54c:	2d0f0400 	sltiu	t7,t0,1024
9d00f550:	012f4821 	addu	t1,t1,t7
9d00f554:	012f782b 	sltu	t7,t1,t7
9d00f558:	014f5021 	addu	t2,t2,t7

9d00f55c <Clab8>:
9d00f55c:	00087ac2 	srl	t7,t0,0xb
9d00f560:	31ef0001 	andi	t7,t7,0x1
9d00f564:	010f4023 	subu	t0,t0,t7
9d00f568:	000822c2 	srl	a0,t0,0xb
9d00f56c:	00097d40 	sll	t7,t1,0x15
9d00f570:	008f2025 	or	a0,a0,t7
9d00f574:	00097840 	sll	t7,t1,0x1
9d00f578:	000f7b02 	srl	t7,t7,0xc
9d00f57c:	00af2825 	or	a1,a1,t7
9d00f580:	000a7d00 	sll	t7,t2,0x14
9d00f584:	00af2825 	or	a1,a1,t7

9d00f588 <Cret>:
9d00f588:	00041025 	or	v0,zero,a0
9d00f58c:	00051825 	or	v1,zero,a1

9d00f590 <C999>:
9d00f590:	03e00008 	jr	ra
9d00f594:	00000000 	nop

9d00f598 <CspecA>:
9d00f598:	0100782a 	slt	t7,t0,zero
9d00f59c:	01084021 	addu	t0,t0,t0
9d00f5a0:	01294821 	addu	t1,t1,t1
9d00f5a4:	1540001c 	bnez	t2,9d00f618 <i15>
9d00f5a8:	012f4821 	addu	t1,t1,t7
9d00f5ac:	01287825 	or	t7,t1,t0
9d00f5b0:	11e00014 	beqz	t7,9d00f604 <i16>
9d00f5b4:	00000000 	nop
9d00f5b8:	15200008 	bnez	t1,9d00f5dc <L22>
9d00f5bc:	00000000 	nop
9d00f5c0:	15000003 	bnez	t0,9d00f5d0 <L23>
9d00f5c4:	00000000 	nop
9d00f5c8:	1000ffad 	b	9d00f480 <Clab1>
9d00f5cc:	240a0000 	li	t2,0

9d00f5d0 <L23>:
9d00f5d0:	01004825 	move	t1,t0
9d00f5d4:	24080000 	li	t0,0
9d00f5d8:	254affe0 	addiu	t2,t2,-32

9d00f5dc <L22>:
9d00f5dc:	712e7020 	clz	t6,t1
9d00f5e0:	11c0ffa7 	beqz	t6,9d00f480 <Clab1>
9d00f5e4:	00000000 	nop
9d00f5e8:	014e5023 	subu	t2,t2,t6
9d00f5ec:	000e3822 	neg	a3,t6
9d00f5f0:	00e83806 	srlv	a3,t0,a3
9d00f5f4:	01c84004 	sllv	t0,t0,t6
9d00f5f8:	01c94804 	sllv	t1,t1,t6
9d00f5fc:	1000ffa0 	b	9d00f480 <Clab1>
9d00f600:	01274825 	or	t1,t1,a3

9d00f604 <i16>:
9d00f604:	240107ff 	li	at,2047
9d00f608:	11a10033 	beq	t5,at,9d00f6d8 <Cnan>
9d00f60c:	00000000 	nop
9d00f610:	1000ffdd 	b	9d00f588 <Cret>
9d00f614:	00000000 	nop

9d00f618 <i15>:
9d00f618:	01287825 	or	t7,t1,t0
9d00f61c:	15e0002e 	bnez	t7,9d00f6d8 <Cnan>
9d00f620:	00000000 	nop
9d00f624:	15a00005 	bnez	t5,9d00f63c <i17>
9d00f628:	00000000 	nop
9d00f62c:	000c7840 	sll	t7,t4,0x1
9d00f630:	01eb7825 	or	t7,t7,t3
9d00f634:	11e00028 	beqz	t7,9d00f6d8 <Cnan>
9d00f638:	00000000 	nop

9d00f63c <i17>:
9d00f63c:	240107ff 	li	at,2047
9d00f640:	15a10021 	bne	t5,at,9d00f6c8 <Cinf>
9d00f644:	00000000 	nop

9d00f648 <CspecB>:
9d00f648:	0160782a 	slt	t7,t3,zero
9d00f64c:	016b5821 	addu	t3,t3,t3
9d00f650:	018c6021 	addu	t4,t4,t4
9d00f654:	15a00019 	bnez	t5,9d00f6bc <i18>
9d00f658:	018f6021 	addu	t4,t4,t7
9d00f65c:	018b7825 	or	t7,t4,t3
9d00f660:	11e00014 	beqz	t7,9d00f6b4 <i19>
9d00f664:	00000000 	nop
9d00f668:	15800008 	bnez	t4,9d00f68c <L25>
9d00f66c:	00000000 	nop
9d00f670:	15600003 	bnez	t3,9d00f680 <L26>
9d00f674:	00000000 	nop
9d00f678:	1000ff85 	b	9d00f490 <Clab2>
9d00f67c:	240d0000 	li	t5,0

9d00f680 <L26>:
9d00f680:	01606025 	move	t4,t3
9d00f684:	240b0000 	li	t3,0
9d00f688:	25adffe0 	addiu	t5,t5,-32

9d00f68c <L25>:
9d00f68c:	71863020 	clz	a2,t4
9d00f690:	10c0ff7f 	beqz	a2,9d00f490 <Clab2>
9d00f694:	00000000 	nop
9d00f698:	01a66823 	subu	t5,t5,a2
9d00f69c:	00067022 	neg	t6,a2
9d00f6a0:	01cb7006 	srlv	t6,t3,t6
9d00f6a4:	00cb5804 	sllv	t3,t3,a2
9d00f6a8:	00cc6004 	sllv	t4,t4,a2
9d00f6ac:	1000ff78 	b	9d00f490 <Clab2>
9d00f6b0:	018e6025 	or	t4,t4,t6

9d00f6b4 <i19>:
9d00f6b4:	1000ffb4 	b	9d00f588 <Cret>
9d00f6b8:	24040000 	li	a0,0

9d00f6bc <i18>:
9d00f6bc:	018b7825 	or	t7,t4,t3
9d00f6c0:	15e00005 	bnez	t7,9d00f6d8 <Cnan>
9d00f6c4:	00000000 	nop

9d00f6c8 <Cinf>:
9d00f6c8:	3c017ff0 	lui	at,0x7ff0
9d00f6cc:	00a12825 	or	a1,a1,at
9d00f6d0:	1000ffad 	b	9d00f588 <Cret>
9d00f6d4:	24040000 	li	a0,0

9d00f6d8 <Cnan>:
9d00f6d8:	3c05fff8 	lui	a1,0xfff8
9d00f6dc:	1000ffaa 	b	9d00f588 <Cret>
9d00f6e0:	24040000 	li	a0,0

9d00f6e4 <Coveund>:
9d00f6e4:	1d40fff8 	bgtz	t2,9d00f6c8 <Cinf>
9d00f6e8:	00000000 	nop
9d00f6ec:	240e0001 	li	t6,1
9d00f6f0:	01ca7023 	subu	t6,t6,t2

9d00f6f4 <L28>:
9d00f6f4:	2dc10020 	sltiu	at,t6,32
9d00f6f8:	14200007 	bnez	at,9d00f718 <L29>
9d00f6fc:	00000000 	nop
9d00f700:	21ceffe0 	addi	t6,t6,-32
9d00f704:	0008302b 	sltu	a2,zero,t0
9d00f708:	1009000d 	beq	zero,t1,9d00f740 <L30>
9d00f70c:	01264025 	or	t0,t1,a2
9d00f710:	1000fff8 	b	9d00f6f4 <L28>
9d00f714:	34090000 	li	t1,0x0

9d00f718 <L29>:
9d00f718:	11c00009 	beqz	t6,9d00f740 <L30>
9d00f71c:	00000000 	nop
9d00f720:	000e3822 	neg	a3,t6
9d00f724:	00e83004 	sllv	a2,t0,a3
9d00f728:	00e93804 	sllv	a3,t1,a3
9d00f72c:	01c84006 	srlv	t0,t0,t6
9d00f730:	01c94806 	srlv	t1,t1,t6
9d00f734:	10c00002 	beqz	a2,9d00f740 <L30>
9d00f738:	00e84025 	or	t0,a3,t0
9d00f73c:	35080002 	ori	t0,t0,0x2

9d00f740 <L30>:
9d00f740:	25080400 	addiu	t0,t0,1024
9d00f744:	2d0f0400 	sltiu	t7,t0,1024
9d00f748:	012f4821 	addu	t1,t1,t7
9d00f74c:	1000ff83 	b	9d00f55c <Clab8>
9d00f750:	000957c2 	srl	t2,t1,0x1f
9d00f754:	00000000 	nop

Disassembly of section .text:

9d00f758 <NU32DIP_Startup>:
#include "nu32dip.h"

void NU32DIP_Startup() {
9d00f758:	27bdfff8 	addiu	sp,sp,-8
9d00f75c:	afbf0004 	sw	ra,4(sp)
9d00f760:	afbe0000 	sw	s8,0(sp)
9d00f764:	03a0f025 	move	s8,sp
    __builtin_disable_interrupts(); // disable interrupts while initializing things
9d00f768:	41626000 	di	v0
9d00f76c:	000000c0 	ehb
9d00f770:	00000000 	nop

    // set the CP0 CONFIG register to indicate that kseg0 is cacheable (0x3)
    __builtin_mtc0(_CP0_CONFIG, _CP0_CONFIG_SELECT, 0xa4210583);
9d00f774:	3c02a421 	lui	v0,0xa421
9d00f778:	34420583 	ori	v0,v0,0x583
9d00f77c:	40828000 	mtc0	v0,c0_config
9d00f780:	000000c0 	ehb

    // 0 data RAM access wait states
    BMXCONbits.BMXWSDRM = 0x0;
9d00f784:	3c03bf88 	lui	v1,0xbf88
9d00f788:	8c622000 	lw	v0,8192(v1)
9d00f78c:	7c023184 	ins	v0,zero,0x6,0x1
9d00f790:	ac622000 	sw	v0,8192(v1)

    // enable multi vector interrupts
    INTCONbits.MVEC = 0x1;
9d00f794:	3c03bf88 	lui	v1,0xbf88
9d00f798:	8c621000 	lw	v0,4096(v1)
9d00f79c:	24040001 	li	a0,1
9d00f7a0:	7c826304 	ins	v0,a0,0xc,0x1
9d00f7a4:	ac621000 	sw	v0,4096(v1)

    // disable JTAG to get pins back
    DDPCONbits.JTAGEN = 0;
9d00f7a8:	3c03bf81 	lui	v1,0xbf81
9d00f7ac:	9462f200 	lhu	v0,-3584(v1)
9d00f7b0:	7c0218c4 	ins	v0,zero,0x3,0x1
9d00f7b4:	a462f200 	sh	v0,-3584(v1)

    // do your TRIS and LAT commands here
    TRISBCLR = 0b110000; // B4 and B5 LEDs
9d00f7b8:	3c02bf88 	lui	v0,0xbf88
9d00f7bc:	24030030 	li	v1,48
9d00f7c0:	ac436114 	sw	v1,24852(v0)
    TRISASET = 0b010000; // A4 user button
9d00f7c4:	3c02bf88 	lui	v0,0xbf88
9d00f7c8:	24030010 	li	v1,16
9d00f7cc:	ac436018 	sw	v1,24600(v0)
    //NU32_LED1 = 1; // LED1 is off
    NU32DIP_YELLOW = 1;
9d00f7d0:	3c03bf88 	lui	v1,0xbf88
9d00f7d4:	94626130 	lhu	v0,24880(v1)
9d00f7d8:	24040001 	li	a0,1
9d00f7dc:	7c822944 	ins	v0,a0,0x5,0x1
9d00f7e0:	a4626130 	sh	v0,24880(v1)
    //NU32_LED2 = 0; // LED2 is on
    NU32DIP_GREEN = 0;
9d00f7e4:	3c03bf88 	lui	v1,0xbf88
9d00f7e8:	94626130 	lhu	v0,24880(v1)
9d00f7ec:	7c022104 	ins	v0,zero,0x4,0x1
9d00f7f0:	a4626130 	sh	v0,24880(v1)

    //UART1 pins
    U1RXRbits.U1RXR = 0b0000; // Set A2 to U1RX
9d00f7f4:	3c03bf81 	lui	v1,0xbf81
9d00f7f8:	9062fa50 	lbu	v0,-1456(v1)
9d00f7fc:	7c021804 	ins	v0,zero,0x0,0x4
9d00f800:	a062fa50 	sb	v0,-1456(v1)
    RPB3Rbits.RPB3R = 0b0001; // Set B3 to U1TX
9d00f804:	3c03bf81 	lui	v1,0xbf81
9d00f808:	9062fb38 	lbu	v0,-1224(v1)
9d00f80c:	24040001 	li	a0,1
9d00f810:	7c821804 	ins	v0,a0,0x0,0x4
9d00f814:	a062fb38 	sb	v0,-1224(v1)

    // turn on UART1 without an interrupt
    U1MODEbits.BRGH = 0; // set baud to NU32_DESIRED_BAUD
9d00f818:	3c03bf80 	lui	v1,0xbf80
9d00f81c:	94626000 	lhu	v0,24576(v1)
9d00f820:	7c0218c4 	ins	v0,zero,0x3,0x1
9d00f824:	a4626000 	sh	v0,24576(v1)
    U1BRG = ((NU32DIP_SYS_FREQ / NU32DIP_DESIRED_BAUD) / 16) - 1;
9d00f828:	3c02bf80 	lui	v0,0xbf80
9d00f82c:	2403000c 	li	v1,12
9d00f830:	ac436040 	sw	v1,24640(v0)

    // 8 bit, no parity bit, and 1 stop bit (8N1 setup)
    U1MODEbits.PDSEL = 0;
9d00f834:	3c03bf80 	lui	v1,0xbf80
9d00f838:	94626000 	lhu	v0,24576(v1)
9d00f83c:	7c021044 	ins	v0,zero,0x1,0x2
9d00f840:	a4626000 	sh	v0,24576(v1)
    U1MODEbits.STSEL = 0;
9d00f844:	3c03bf80 	lui	v1,0xbf80
9d00f848:	94626000 	lhu	v0,24576(v1)
9d00f84c:	7c020004 	ins	v0,zero,0x0,0x1
9d00f850:	a4626000 	sh	v0,24576(v1)

    // configure TX & RX pins as output & input pins
    U1STAbits.UTXEN = 1;
9d00f854:	3c03bf80 	lui	v1,0xbf80
9d00f858:	8c626010 	lw	v0,24592(v1)
9d00f85c:	24040001 	li	a0,1
9d00f860:	7c825284 	ins	v0,a0,0xa,0x1
9d00f864:	ac626010 	sw	v0,24592(v1)
    U1STAbits.URXEN = 1;
9d00f868:	3c03bf80 	lui	v1,0xbf80
9d00f86c:	8c626010 	lw	v0,24592(v1)
9d00f870:	24040001 	li	a0,1
9d00f874:	7c826304 	ins	v0,a0,0xc,0x1
9d00f878:	ac626010 	sw	v0,24592(v1)
    // configure without hardware flow control
    U1MODEbits.UEN = 0;
9d00f87c:	3c03bf80 	lui	v1,0xbf80
9d00f880:	94626000 	lhu	v0,24576(v1)
9d00f884:	7c024a04 	ins	v0,zero,0x8,0x2
9d00f888:	a4626000 	sh	v0,24576(v1)

    // enable the uart
    U1MODEbits.ON = 1;
9d00f88c:	3c03bf80 	lui	v1,0xbf80
9d00f890:	94626000 	lhu	v0,24576(v1)
9d00f894:	24040001 	li	a0,1
9d00f898:	7c827bc4 	ins	v0,a0,0xf,0x1
9d00f89c:	a4626000 	sh	v0,24576(v1)

    __builtin_enable_interrupts();
9d00f8a0:	41626020 	ei	v0
}
9d00f8a4:	00000000 	nop
9d00f8a8:	03c0e825 	move	sp,s8
9d00f8ac:	8fbf0004 	lw	ra,4(sp)
9d00f8b0:	8fbe0000 	lw	s8,0(sp)
9d00f8b4:	27bd0008 	addiu	sp,sp,8
9d00f8b8:	03e00008 	jr	ra
9d00f8bc:	00000000 	nop

9d00f8c0 <NU32DIP_ReadUART1>:

// Read from UART1
// block other functions until you get a '\r' or '\n'
// send the pointer to your char array and the number of elements in the array

void NU32DIP_ReadUART1(char * message, int maxLength) {
9d00f8c0:	27bdffe8 	addiu	sp,sp,-24
9d00f8c4:	afbe0014 	sw	s8,20(sp)
9d00f8c8:	03a0f025 	move	s8,sp
9d00f8cc:	afc40018 	sw	a0,24(s8)
9d00f8d0:	afc5001c 	sw	a1,28(s8)
    char data = 0;
9d00f8d4:	a3c00008 	sb	zero,8(s8)
    int complete = 0, num_bytes = 0;
9d00f8d8:	afc00000 	sw	zero,0(s8)
9d00f8dc:	afc00004 	sw	zero,4(s8)
    // loop until you get a '\r' or '\n'
    while (!complete) {
9d00f8e0:	10000024 	b	9d00f974 <NU32DIP_ReadUART1+0xb4>
9d00f8e4:	00000000 	nop
        if (U1STAbits.URXDA) { // if data is available
9d00f8e8:	3c02bf80 	lui	v0,0xbf80
9d00f8ec:	8c426010 	lw	v0,24592(v0)
9d00f8f0:	7c420000 	ext	v0,v0,0x0,0x1
9d00f8f4:	304200ff 	andi	v0,v0,0xff
9d00f8f8:	1040001e 	beqz	v0,9d00f974 <NU32DIP_ReadUART1+0xb4>
9d00f8fc:	00000000 	nop
            data = U1RXREG; // read the data
9d00f900:	3c02bf80 	lui	v0,0xbf80
9d00f904:	8c426030 	lw	v0,24624(v0)
9d00f908:	a3c20008 	sb	v0,8(s8)
            if ((data == '\n') || (data == '\r')) {
9d00f90c:	83c30008 	lb	v1,8(s8)
9d00f910:	2402000a 	li	v0,10
9d00f914:	10620005 	beq	v1,v0,9d00f92c <NU32DIP_ReadUART1+0x6c>
9d00f918:	00000000 	nop
9d00f91c:	83c30008 	lb	v1,8(s8)
9d00f920:	2402000d 	li	v0,13
9d00f924:	14620005 	bne	v1,v0,9d00f93c <NU32DIP_ReadUART1+0x7c>
9d00f928:	00000000 	nop
                complete = 1;
9d00f92c:	24020001 	li	v0,1
9d00f930:	afc20000 	sw	v0,0(s8)
9d00f934:	1000000f 	b	9d00f974 <NU32DIP_ReadUART1+0xb4>
9d00f938:	00000000 	nop
            } else {
                message[num_bytes] = data;
9d00f93c:	8fc20004 	lw	v0,4(s8)
9d00f940:	8fc30018 	lw	v1,24(s8)
9d00f944:	00621021 	addu	v0,v1,v0
9d00f948:	93c30008 	lbu	v1,8(s8)
9d00f94c:	a0430000 	sb	v1,0(v0)
                ++num_bytes;
9d00f950:	8fc20004 	lw	v0,4(s8)
9d00f954:	24420001 	addiu	v0,v0,1
9d00f958:	afc20004 	sw	v0,4(s8)
                // roll over if the array is too small
                if (num_bytes >= maxLength) {
9d00f95c:	8fc30004 	lw	v1,4(s8)
9d00f960:	8fc2001c 	lw	v0,28(s8)
9d00f964:	0062102a 	slt	v0,v1,v0
9d00f968:	14400002 	bnez	v0,9d00f974 <NU32DIP_ReadUART1+0xb4>
9d00f96c:	00000000 	nop
                    num_bytes = 0;
9d00f970:	afc00004 	sw	zero,4(s8)
    while (!complete) {
9d00f974:	8fc20000 	lw	v0,0(s8)
9d00f978:	1040ffdb 	beqz	v0,9d00f8e8 <NU32DIP_ReadUART1+0x28>
9d00f97c:	00000000 	nop
                }
            }
        }
    }
    // end the string
    message[num_bytes] = '\0';
9d00f980:	8fc20004 	lw	v0,4(s8)
9d00f984:	8fc30018 	lw	v1,24(s8)
9d00f988:	00621021 	addu	v0,v1,v0
9d00f98c:	a0400000 	sb	zero,0(v0)
}
9d00f990:	00000000 	nop
9d00f994:	03c0e825 	move	sp,s8
9d00f998:	8fbe0014 	lw	s8,20(sp)
9d00f99c:	27bd0018 	addiu	sp,sp,24
9d00f9a0:	03e00008 	jr	ra
9d00f9a4:	00000000 	nop

9d00f9a8 <NU32DIP_WriteUART1>:

// Write a character array using UART1

void NU32DIP_WriteUART1(const char * string) {
9d00f9a8:	27bdfff8 	addiu	sp,sp,-8
9d00f9ac:	afbe0004 	sw	s8,4(sp)
9d00f9b0:	03a0f025 	move	s8,sp
9d00f9b4:	afc40008 	sw	a0,8(s8)
    while (*string != '\0') {
9d00f9b8:	10000010 	b	9d00f9fc <NU32DIP_WriteUART1+0x54>
9d00f9bc:	00000000 	nop
        while (U1STAbits.UTXBF) {
9d00f9c0:	00000000 	nop
9d00f9c4:	3c02bf80 	lui	v0,0xbf80
9d00f9c8:	8c426010 	lw	v0,24592(v0)
9d00f9cc:	7c420240 	ext	v0,v0,0x9,0x1
9d00f9d0:	304200ff 	andi	v0,v0,0xff
9d00f9d4:	1440fffb 	bnez	v0,9d00f9c4 <NU32DIP_WriteUART1+0x1c>
9d00f9d8:	00000000 	nop
            ; // wait until tx buffer isn't full
        }
        U1TXREG = *string;
9d00f9dc:	8fc20008 	lw	v0,8(s8)
9d00f9e0:	80420000 	lb	v0,0(v0)
9d00f9e4:	00401825 	move	v1,v0
9d00f9e8:	3c02bf80 	lui	v0,0xbf80
9d00f9ec:	ac436020 	sw	v1,24608(v0)
        ++string;
9d00f9f0:	8fc20008 	lw	v0,8(s8)
9d00f9f4:	24420001 	addiu	v0,v0,1
9d00f9f8:	afc20008 	sw	v0,8(s8)
    while (*string != '\0') {
9d00f9fc:	8fc20008 	lw	v0,8(s8)
9d00fa00:	80420000 	lb	v0,0(v0)
9d00fa04:	1440ffee 	bnez	v0,9d00f9c0 <NU32DIP_WriteUART1+0x18>
9d00fa08:	00000000 	nop
    }
}
9d00fa0c:	00000000 	nop
9d00fa10:	03c0e825 	move	sp,s8
9d00fa14:	8fbe0004 	lw	s8,4(sp)
9d00fa18:	27bd0008 	addiu	sp,sp,8
9d00fa1c:	03e00008 	jr	ra
9d00fa20:	00000000 	nop

Disassembly of section .text.__scan_i:

9d00fa24 <__scan_i>:
9d00fa24:	27bdffb8 	addiu	sp,sp,-72
9d00fa28:	afb20028 	sw	s2,40(sp)
9d00fa2c:	8cc20010 	lw	v0,16(a2)
9d00fa30:	8cd20008 	lw	s2,8(a2)
9d00fa34:	afb50034 	sw	s5,52(sp)
9d00fa38:	afb40030 	sw	s4,48(sp)
9d00fa3c:	afb10024 	sw	s1,36(sp)
9d00fa40:	afbf0044 	sw	ra,68(sp)
9d00fa44:	afbe0040 	sw	s8,64(sp)
9d00fa48:	afb7003c 	sw	s7,60(sp)
9d00fa4c:	afb60038 	sw	s6,56(sp)
9d00fa50:	afb3002c 	sw	s3,44(sp)
9d00fa54:	afb00020 	sw	s0,32(sp)
9d00fa58:	0080a825 	move	s5,a0
9d00fa5c:	afa5004c 	sw	a1,76(sp)
9d00fa60:	00e0a025 	move	s4,a3
9d00fa64:	afa20018 	sw	v0,24(sp)
9d00fa68:	0f404b54 	jal	9d012d50 <__skipws>
9d00fa6c:	8cd1000c 	lw	s1,12(a2)
9d00fa70:	16400002 	bnez	s2,9d00fa7c <__scan_i+0x58>
9d00fa74:	8fa30018 	lw	v1,24(sp)
9d00fa78:	2472ffff 	addiu	s2,v1,-1
9d00fa7c:	8e830000 	lw	v1,0(s4)
9d00fa80:	241e000a 	li	s8,10
9d00fa84:	00009825 	move	s3,zero
9d00fa88:	00621821 	addu	v1,v1,v0
9d00fa8c:	ae830000 	sw	v1,0(s4)
9d00fa90:	0000b825 	move	s7,zero
9d00fa94:	02f2102a 	slt	v0,s7,s2
9d00fa98:	10400046 	beqz	v0,9d00fbb4 <__scan_i+0x190>
9d00fa9c:	8fa20018 	lw	v0,24(sp)
9d00faa0:	2442ffff 	addiu	v0,v0,-1
9d00faa4:	02e2102a 	slt	v0,s7,v0
9d00faa8:	10400043 	beqz	v0,9d00fbb8 <__scan_i+0x194>
9d00faac:	02371021 	addu	v0,s1,s7
9d00fab0:	8ea2003c 	lw	v0,60(s5)
9d00fab4:	8ea4004c 	lw	a0,76(s5)
9d00fab8:	0044202b 	sltu	a0,v0,a0
9d00fabc:	1080000f 	beqz	a0,9d00fafc <__scan_i+0xd8>
9d00fac0:	24440001 	addiu	a0,v0,1
9d00fac4:	aea4003c 	sw	a0,60(s5)
9d00fac8:	90500000 	lbu	s0,0(v0)
9d00facc:	2602ffd5 	addiu	v0,s0,-43
9d00fad0:	7c020844 	ins	v0,zero,0x1,0x1
9d00fad4:	00571025 	or	v0,v0,s7
9d00fad8:	1440001d 	bnez	v0,9d00fb50 <__scan_i+0x12c>
9d00fadc:	00000000 	nop
9d00fae0:	a2300000 	sb	s0,0(s1)
9d00fae4:	8e820000 	lw	v0,0(s4)
9d00fae8:	24130001 	li	s3,1
9d00faec:	24170001 	li	s7,1
9d00faf0:	24420001 	addiu	v0,v0,1
9d00faf4:	1000ffe7 	b	9d00fa94 <__scan_i+0x70>
9d00faf8:	ae820000 	sw	v0,0(s4)
9d00fafc:	0f404a27 	jal	9d01289c <__shgetc>
9d00fb00:	02a02025 	move	a0,s5
9d00fb04:	00408025 	move	s0,v0
9d00fb08:	2402ffff 	li	v0,-1
9d00fb0c:	1602fff0 	bne	s0,v0,9d00fad0 <__scan_i+0xac>
9d00fb10:	2602ffd5 	addiu	v0,s0,-43
9d00fb14:	16e00028 	bnez	s7,9d00fbb8 <__scan_i+0x194>
9d00fb18:	02371021 	addu	v0,s1,s7
9d00fb1c:	8fbf0044 	lw	ra,68(sp)
9d00fb20:	02001025 	move	v0,s0
9d00fb24:	8fbe0040 	lw	s8,64(sp)
9d00fb28:	8fb7003c 	lw	s7,60(sp)
9d00fb2c:	8fb60038 	lw	s6,56(sp)
9d00fb30:	8fb50034 	lw	s5,52(sp)
9d00fb34:	8fb40030 	lw	s4,48(sp)
9d00fb38:	8fb3002c 	lw	s3,44(sp)
9d00fb3c:	8fb20028 	lw	s2,40(sp)
9d00fb40:	8fb10024 	lw	s1,36(sp)
9d00fb44:	8fb00020 	lw	s0,32(sp)
9d00fb48:	03e00008 	jr	ra
9d00fb4c:	27bd0048 	addiu	sp,sp,72
9d00fb50:	16f30008 	bne	s7,s3,9d00fb74 <__scan_i+0x150>
9d00fb54:	0237b021 	addu	s6,s1,s7
9d00fb58:	2402000a 	li	v0,10
9d00fb5c:	17c20026 	bne	s8,v0,9d00fbf8 <__scan_i+0x1d4>
9d00fb60:	26f30001 	addiu	s3,s7,1
9d00fb64:	3a020030 	xori	v0,s0,0x30
9d00fb68:	24040008 	li	a0,8
9d00fb6c:	0082f00a 	movz	s8,a0,v0
9d00fb70:	0002980b 	movn	s3,zero,v0
9d00fb74:	2602ffd0 	addiu	v0,s0,-48
9d00fb78:	2c42000a 	sltiu	v0,v0,10
9d00fb7c:	14400043 	bnez	v0,9d00fc8c <__scan_i+0x268>
9d00fb80:	24020010 	li	v0,16
9d00fb84:	57c20006 	bnel	s8,v0,9d00fba0 <__scan_i+0x17c>
9d00fb88:	8ea2004c 	lw	v0,76(s5)
9d00fb8c:	0f40521a 	jal	9d014868 <isxdigit>
9d00fb90:	02002025 	move	a0,s0
9d00fb94:	54400043 	bnezl	v0,9d00fca4 <__scan_i+0x280>
9d00fb98:	a2d00000 	sb	s0,0(s6)
9d00fb9c:	8ea2004c 	lw	v0,76(s5)
9d00fba0:	10400005 	beqz	v0,9d00fbb8 <__scan_i+0x194>
9d00fba4:	02371021 	addu	v0,s1,s7
9d00fba8:	8ea2003c 	lw	v0,60(s5)
9d00fbac:	2442ffff 	addiu	v0,v0,-1
9d00fbb0:	aea2003c 	sw	v0,60(s5)
9d00fbb4:	02371021 	addu	v0,s1,s7
9d00fbb8:	a0400000 	sb	zero,0(v0)
9d00fbbc:	2402000a 	li	v0,10
9d00fbc0:	17c2003d 	bne	s8,v0,9d00fcb8 <__scan_i+0x294>
9d00fbc4:	2406000a 	li	a2,10
9d00fbc8:	27a50010 	addiu	a1,sp,16
9d00fbcc:	0f405152 	jal	9d014548 <strtoll>
9d00fbd0:	02202025 	move	a0,s1
9d00fbd4:	8fa4004c 	lw	a0,76(sp)
9d00fbd8:	8fb00010 	lw	s0,16(sp)
9d00fbdc:	ac820000 	sw	v0,0(a0)
9d00fbe0:	02118826 	xor	s1,s0,s1
9d00fbe4:	2402fffe 	li	v0,-2
9d00fbe8:	24100001 	li	s0,1
9d00fbec:	ac830004 	sw	v1,4(a0)
9d00fbf0:	1000ffca 	b	9d00fb1c <__scan_i+0xf8>
9d00fbf4:	0051800a 	movz	s0,v0,s1
9d00fbf8:	24020008 	li	v0,8
9d00fbfc:	17c20021 	bne	s8,v0,9d00fc84 <__scan_i+0x260>
9d00fc00:	36020020 	ori	v0,s0,0x20
9d00fc04:	24040078 	li	a0,120
9d00fc08:	5444ffda 	bnel	v0,a0,9d00fb74 <__scan_i+0x150>
9d00fc0c:	00009825 	move	s3,zero
9d00fc10:	8ea2003c 	lw	v0,60(s5)
9d00fc14:	8ea4004c 	lw	a0,76(s5)
9d00fc18:	0044202b 	sltu	a0,v0,a0
9d00fc1c:	10800015 	beqz	a0,9d00fc74 <__scan_i+0x250>
9d00fc20:	00000000 	nop
9d00fc24:	24440001 	addiu	a0,v0,1
9d00fc28:	aea4003c 	sw	a0,60(s5)
9d00fc2c:	90420000 	lbu	v0,0(v0)
9d00fc30:	8ea4004c 	lw	a0,76(s5)
9d00fc34:	10800004 	beqz	a0,9d00fc48 <__scan_i+0x224>
9d00fc38:	00000000 	nop
9d00fc3c:	8ea5003c 	lw	a1,60(s5)
9d00fc40:	24a5ffff 	addiu	a1,a1,-1
9d00fc44:	aea5003c 	sw	a1,60(s5)
9d00fc48:	0f40521a 	jal	9d014868 <isxdigit>
9d00fc4c:	00402025 	move	a0,v0
9d00fc50:	5040ffd3 	beqzl	v0,9d00fba0 <__scan_i+0x17c>
9d00fc54:	8ea2004c 	lw	v0,76(s5)
9d00fc58:	a2d00000 	sb	s0,0(s6)
9d00fc5c:	8e820000 	lw	v0,0(s4)
9d00fc60:	0260b825 	move	s7,s3
9d00fc64:	241e0010 	li	s8,16
9d00fc68:	24420001 	addiu	v0,v0,1
9d00fc6c:	1000ff89 	b	9d00fa94 <__scan_i+0x70>
9d00fc70:	ae820000 	sw	v0,0(s4)
9d00fc74:	0f404a27 	jal	9d01289c <__shgetc>
9d00fc78:	02a02025 	move	a0,s5
9d00fc7c:	1000ffed 	b	9d00fc34 <__scan_i+0x210>
9d00fc80:	8ea4004c 	lw	a0,76(s5)
9d00fc84:	1000ffbb 	b	9d00fb74 <__scan_i+0x150>
9d00fc88:	00009825 	move	s3,zero
9d00fc8c:	24020008 	li	v0,8
9d00fc90:	17c20003 	bne	s8,v0,9d00fca0 <__scan_i+0x27c>
9d00fc94:	2a020038 	slti	v0,s0,56
9d00fc98:	2404000a 	li	a0,10
9d00fc9c:	0082f00a 	movz	s8,a0,v0
9d00fca0:	a2d00000 	sb	s0,0(s6)
9d00fca4:	8e820000 	lw	v0,0(s4)
9d00fca8:	26f70001 	addiu	s7,s7,1
9d00fcac:	24420001 	addiu	v0,v0,1
9d00fcb0:	1000ff78 	b	9d00fa94 <__scan_i+0x70>
9d00fcb4:	ae820000 	sw	v0,0(s4)
9d00fcb8:	03c03025 	move	a2,s8
9d00fcbc:	27a50010 	addiu	a1,sp,16
9d00fcc0:	0f405147 	jal	9d01451c <strtoull>
9d00fcc4:	02202025 	move	a0,s1
9d00fcc8:	1000ffc3 	b	9d00fbd8 <__scan_i+0x1b4>
9d00fccc:	8fa4004c 	lw	a0,76(sp)

Disassembly of section .text.libm:

9d00fcd0 <dpfmod>:
9d00fcd0:	00055040 000a5542 00054ac0 00047d42     @P..BU...J..B}..
9d00fce0:	012f4825 000442c0 3c0e8000 012e4825     %H/..B.....<%H..
9d00fcf0:	00076840 000d6d42 000762c0 00067d42     @h..Bm...b..B}..
9d00fd00:	018f6025 00065ac0 018e6025 01c57024     %`...Z..%`..$p..
9d00fd10:	254fffff 2de107fe 10200056 00000000     ..O%...-V. .....

9d00fd20 <Alab1>:
9d00fd20:	25afffff 	addiu	t7,t5,-1
9d00fd24:	2de107fe 	sltiu	at,t7,2046
9d00fd28:	1020006e 	beqz	at,9d00fee4 <AspecB>
9d00fd2c:	00000000 	nop

9d00fd30 <Alab2>:
9d00fd30:	014d3823 	subu	a3,t2,t5
9d00fd34:	04e0004b 	bltz	a3,9d00fe64 <Aret2>
9d00fd38:	00000000 	nop
9d00fd3c:	00084042 	srl	t0,t0,0x1
9d00fd40:	00097fc0 	sll	t7,t1,0x1f
9d00fd44:	010f4025 	or	t0,t0,t7
9d00fd48:	00094842 	srl	t1,t1,0x1
9d00fd4c:	000b5842 	srl	t3,t3,0x1
9d00fd50:	000c7fc0 	sll	t7,t4,0x1f
9d00fd54:	016f5825 	or	t3,t3,t7
9d00fd58:	000c6042 	srl	t4,t4,0x1

9d00fd5c <b1>:
9d00fd5c:	010b782b 	sltu	t7,t0,t3
9d00fd60:	010b4023 	subu	t0,t0,t3
9d00fd64:	012f102b 	sltu	v0,t1,t7
9d00fd68:	012f4823 	subu	t1,t1,t7
9d00fd6c:	012c782b 	sltu	t7,t1,t4
9d00fd70:	01e27825 	or	t7,t7,v0
9d00fd74:	11e00005 	beqz	t7,9d00fd8c <i2>
9d00fd78:	012c4823 	subu	t1,t1,t4
9d00fd7c:	010b4021 	addu	t0,t0,t3
9d00fd80:	010b782b 	sltu	t7,t0,t3
9d00fd84:	012c4821 	addu	t1,t1,t4
9d00fd88:	012f4821 	addu	t1,t1,t7

9d00fd8c <i2>:
9d00fd8c:	0100782a 	slt	t7,t0,zero
9d00fd90:	01084021 	addu	t0,t0,t0
9d00fd94:	01294821 	addu	t1,t1,t1
9d00fd98:	012f4821 	addu	t1,t1,t7
9d00fd9c:	24e7ffff 	addiu	a3,a3,-1
9d00fda0:	04e1ffee 	bgez	a3,9d00fd5c <b1>
9d00fda4:	00000000 	nop
9d00fda8:	15200008 	bnez	t1,9d00fdcc <L1>
9d00fdac:	000d5025 	or	t2,zero,t5
9d00fdb0:	15000003 	bnez	t0,9d00fdc0 <L2>
9d00fdb4:	00000000 	nop
9d00fdb8:	1000000d 	b	9d00fdf0 <L3>
9d00fdbc:	240a0000 	li	t2,0

9d00fdc0 <L2>:
9d00fdc0:	01004825 	move	t1,t0
9d00fdc4:	24080000 	li	t0,0
9d00fdc8:	254affe0 	addiu	t2,t2,-32

9d00fdcc <L1>:
9d00fdcc:	71273820 	clz	a3,t1
9d00fdd0:	10e00007 	beqz	a3,9d00fdf0 <L3>
9d00fdd4:	00000000 	nop
9d00fdd8:	01475023 	subu	t2,t2,a3
9d00fddc:	00073022 	neg	a2,a3
9d00fde0:	00c83006 	srlv	a2,t0,a2
9d00fde4:	00e84004 	sllv	t0,t0,a3
9d00fde8:	00e94804 	sllv	t1,t1,a3
9d00fdec:	01264825 	or	t1,t1,a2

9d00fdf0 <L3>:
9d00fdf0:	1d400014 	bgtz	t2,9d00fe44 <i3>
9d00fdf4:	00000000 	nop
9d00fdf8:	24070001 	li	a3,1
9d00fdfc:	00ea3823 	subu	a3,a3,t2

9d00fe00 <L4>:
9d00fe00:	2ce10020 	sltiu	at,a3,32
9d00fe04:	14200005 	bnez	at,9d00fe1c <L5>
9d00fe08:	00000000 	nop
9d00fe0c:	00094025 	or	t0,zero,t1
9d00fe10:	24090000 	li	t1,0
9d00fe14:	1500fffa 	bnez	t0,9d00fe00 <L4>
9d00fe18:	24e7ffe0 	addiu	a3,a3,-32

9d00fe1c <L5>:
9d00fe1c:	10e00008 	beqz	a3,9d00fe40 <L6>
9d00fe20:	00000000 	nop
9d00fe24:	00093025 	or	a2,zero,t1
9d00fe28:	00e84006 	srlv	t0,t0,a3
9d00fe2c:	00e94806 	srlv	t1,t1,a3
9d00fe30:	240f0020 	li	t7,32
9d00fe34:	01e73823 	subu	a3,t7,a3
9d00fe38:	00e63004 	sllv	a2,a2,a3
9d00fe3c:	01064025 	or	t0,t0,a2

9d00fe40 <L6>:
9d00fe40:	240a0000 	li	t2,0

9d00fe44 <i3>:
9d00fe44:	000822c2 	srl	a0,t0,0xb
9d00fe48:	00097d40 	sll	t7,t1,0x15
9d00fe4c:	008f2025 	or	a0,a0,t7
9d00fe50:	00092840 	sll	a1,t1,0x1
9d00fe54:	00052b02 	srl	a1,a1,0xc
9d00fe58:	000a7d00 	sll	t7,t2,0x14
9d00fe5c:	00af2825 	or	a1,a1,t7
9d00fe60:	00ae2825 	or	a1,a1,t6

9d00fe64 <Aret2>:
9d00fe64:	00041025 	or	v0,zero,a0
9d00fe68:	00051825 	or	v1,zero,a1

9d00fe6c <A999>:
9d00fe6c:	03e00008 	jr	ra
9d00fe70:	00000000 	nop

9d00fe74 <AspecA>:
9d00fe74:	1540003b 	bnez	t2,9d00ff64 <Anan>
9d00fe78:	00000000 	nop
9d00fe7c:	0100782a 	slt	t7,t0,zero
9d00fe80:	01084021 	addu	t0,t0,t0
9d00fe84:	01294821 	addu	t1,t1,t1
9d00fe88:	012f4821 	addu	t1,t1,t7
9d00fe8c:	01287825 	or	t7,t1,t0
9d00fe90:	11e0ffa3 	beqz	t7,9d00fd20 <Alab1>
9d00fe94:	00000000 	nop
9d00fe98:	15200008 	bnez	t1,9d00febc <L7>
9d00fe9c:	00000000 	nop
9d00fea0:	15000003 	bnez	t0,9d00feb0 <L8>
9d00fea4:	00000000 	nop
9d00fea8:	1000ff9d 	b	9d00fd20 <Alab1>
9d00feac:	240a0000 	li	t2,0

9d00feb0 <L8>:
9d00feb0:	01004825 	move	t1,t0
9d00feb4:	24080000 	li	t0,0
9d00feb8:	254affe0 	addiu	t2,t2,-32

9d00febc <L7>:
9d00febc:	71273820 	clz	a3,t1
9d00fec0:	10e0ff97 	beqz	a3,9d00fd20 <Alab1>
9d00fec4:	00000000 	nop
9d00fec8:	01475023 	subu	t2,t2,a3
9d00fecc:	00073022 	neg	a2,a3
9d00fed0:	00c83006 	srlv	a2,t0,a2
9d00fed4:	00e84004 	sllv	t0,t0,a3
9d00fed8:	00e94804 	sllv	t1,t1,a3
9d00fedc:	1000ff90 	b	9d00fd20 <Alab1>
9d00fee0:	01264825 	or	t1,t1,a2

9d00fee4 <AspecB>:
9d00fee4:	15a0001b 	bnez	t5,9d00ff54 <i5>
9d00fee8:	00000000 	nop
9d00feec:	0160782a 	slt	t7,t3,zero
9d00fef0:	016b5821 	addu	t3,t3,t3
9d00fef4:	018c6021 	addu	t4,t4,t4
9d00fef8:	018f6021 	addu	t4,t4,t7
9d00fefc:	018b7825 	or	t7,t4,t3
9d00ff00:	11e00018 	beqz	t7,9d00ff64 <Anan>
9d00ff04:	00000000 	nop
9d00ff08:	15800008 	bnez	t4,9d00ff2c <L10>
9d00ff0c:	00000000 	nop
9d00ff10:	15600003 	bnez	t3,9d00ff20 <L11>
9d00ff14:	00000000 	nop
9d00ff18:	1000ff85 	b	9d00fd30 <Alab2>
9d00ff1c:	240d0000 	li	t5,0

9d00ff20 <L11>:
9d00ff20:	01606025 	move	t4,t3
9d00ff24:	240b0000 	li	t3,0
9d00ff28:	25adffe0 	addiu	t5,t5,-32

9d00ff2c <L10>:
9d00ff2c:	71873820 	clz	a3,t4
9d00ff30:	10e0ff7f 	beqz	a3,9d00fd30 <Alab2>
9d00ff34:	00000000 	nop
9d00ff38:	01a76823 	subu	t5,t5,a3
9d00ff3c:	00073022 	neg	a2,a3
9d00ff40:	00cb3006 	srlv	a2,t3,a2
9d00ff44:	00eb5804 	sllv	t3,t3,a3
9d00ff48:	00ec6004 	sllv	t4,t4,a3
9d00ff4c:	1000ff78 	b	9d00fd30 <Alab2>
9d00ff50:	01866025 	or	t4,t4,a2

9d00ff54 <i5>:
9d00ff54:	000c7840 	sll	t7,t4,0x1
9d00ff58:	01eb7825 	or	t7,t7,t3
9d00ff5c:	11e0ffc1 	beqz	t7,9d00fe64 <Aret2>
9d00ff60:	00000000 	nop

9d00ff64 <Anan>:
9d00ff64:	3c05fff8 	lui	a1,0xfff8
9d00ff68:	1000ffbe 	b	9d00fe64 <Aret2>
9d00ff6c:	24040000 	li	a0,0
9d00ff70:	00000000 	nop

Disassembly of section .text.scanexp:

9d00ff74 <scanexp>:
9d00ff74:	8c82003c 	lw	v0,60(a0)
9d00ff78:	8c83004c 	lw	v1,76(a0)
9d00ff7c:	27bdffd0 	addiu	sp,sp,-48
9d00ff80:	afb10014 	sw	s1,20(sp)
9d00ff84:	0043182b 	sltu	v1,v0,v1
9d00ff88:	afb00010 	sw	s0,16(sp)
9d00ff8c:	afbf002c 	sw	ra,44(sp)
9d00ff90:	afb60028 	sw	s6,40(sp)
9d00ff94:	afb50024 	sw	s5,36(sp)
9d00ff98:	afb40020 	sw	s4,32(sp)
9d00ff9c:	afb3001c 	sw	s3,28(sp)
9d00ffa0:	afb20018 	sw	s2,24(sp)
9d00ffa4:	00808025 	move	s0,a0
9d00ffa8:	10600033 	beqz	v1,9d010078 <scanexp+0x104>
9d00ffac:	00a08825 	move	s1,a1
9d00ffb0:	24430001 	addiu	v1,v0,1
9d00ffb4:	ac83003c 	sw	v1,60(a0)
9d00ffb8:	90520000 	lbu	s2,0(v0)
9d00ffbc:	2642ffd5 	addiu	v0,s2,-43
9d00ffc0:	7c020844 	ins	v0,zero,0x1,0x1
9d00ffc4:	14400016 	bnez	v0,9d010020 <scanexp+0xac>
9d00ffc8:	0000a025 	move	s4,zero
9d00ffcc:	8e02003c 	lw	v0,60(s0)
9d00ffd0:	8e03004c 	lw	v1,76(s0)
9d00ffd4:	3a52002d 	xori	s2,s2,0x2d
9d00ffd8:	0043182b 	sltu	v1,v0,v1
9d00ffdc:	1060002a 	beqz	v1,9d010088 <scanexp+0x114>
9d00ffe0:	2e540001 	sltiu	s4,s2,1
9d00ffe4:	24430001 	addiu	v1,v0,1
9d00ffe8:	ae03003c 	sw	v1,60(s0)
9d00ffec:	90520000 	lbu	s2,0(v0)
9d00fff0:	2642ffd0 	addiu	v0,s2,-48
9d00fff4:	2c42000a 	sltiu	v0,v0,10
9d00fff8:	1440000a 	bnez	v0,9d010024 <scanexp+0xb0>
9d00fffc:	2642ffd0 	addiu	v0,s2,-48
9d010000:	12200009 	beqz	s1,9d010028 <scanexp+0xb4>
9d010004:	2c42000a 	sltiu	v0,v0,10
9d010008:	8e02004c 	lw	v0,76(s0)
9d01000c:	10400005 	beqz	v0,9d010024 <scanexp+0xb0>
9d010010:	2642ffd0 	addiu	v0,s2,-48
9d010014:	8e02003c 	lw	v0,60(s0)
9d010018:	2442ffff 	addiu	v0,v0,-1
9d01001c:	ae02003c 	sw	v0,60(s0)
9d010020:	2642ffd0 	addiu	v0,s2,-48
9d010024:	2c42000a 	sltiu	v0,v0,10
9d010028:	1440001b 	bnez	v0,9d010098 <scanexp+0x124>
9d01002c:	00009825 	move	s3,zero
9d010030:	8e02004c 	lw	v0,76(s0)
9d010034:	10400004 	beqz	v0,9d010048 <scanexp+0xd4>
9d010038:	3c158000 	lui	s5,0x8000
9d01003c:	8e02003c 	lw	v0,60(s0)
9d010040:	2442ffff 	addiu	v0,v0,-1
9d010044:	ae02003c 	sw	v0,60(s0)
9d010048:	8fbf002c 	lw	ra,44(sp)
9d01004c:	02601025 	move	v0,s3
9d010050:	02a01825 	move	v1,s5
9d010054:	8fb60028 	lw	s6,40(sp)
9d010058:	8fb50024 	lw	s5,36(sp)
9d01005c:	8fb40020 	lw	s4,32(sp)
9d010060:	8fb3001c 	lw	s3,28(sp)
9d010064:	8fb20018 	lw	s2,24(sp)
9d010068:	8fb10014 	lw	s1,20(sp)
9d01006c:	8fb00010 	lw	s0,16(sp)
9d010070:	03e00008 	jr	ra
9d010074:	27bd0030 	addiu	sp,sp,48
9d010078:	0f404a27 	jal	9d01289c <__shgetc>
9d01007c:	00000000 	nop
9d010080:	1000ffce 	b	9d00ffbc <scanexp+0x48>
9d010084:	00409025 	move	s2,v0
9d010088:	0f404a27 	jal	9d01289c <__shgetc>
9d01008c:	02002025 	move	a0,s0
9d010090:	1000ffd7 	b	9d00fff0 <scanexp+0x7c>
9d010094:	00409025 	move	s2,v0
9d010098:	3c150ccc 	lui	s5,0xccc
9d01009c:	36b5cccc 	ori	s5,s5,0xcccc
9d0100a0:	8e02003c 	lw	v0,60(s0)
9d0100a4:	8e03004c 	lw	v1,76(s0)
9d0100a8:	0043182b 	sltu	v1,v0,v1
9d0100ac:	1060001d 	beqz	v1,9d010124 <scanexp+0x1b0>
9d0100b0:	24430001 	addiu	v1,v0,1
9d0100b4:	ae03003c 	sw	v1,60(s0)
9d0100b8:	90510000 	lbu	s1,0(v0)
9d0100bc:	2402000a 	li	v0,10
9d0100c0:	72621802 	mul	v1,s3,v0
9d0100c4:	2622ffd0 	addiu	v0,s1,-48
9d0100c8:	2c42000a 	sltiu	v0,v0,10
9d0100cc:	00729821 	addu	s3,v1,s2
9d0100d0:	10400004 	beqz	v0,9d0100e4 <scanexp+0x170>
9d0100d4:	2673ffd0 	addiu	s3,s3,-48
9d0100d8:	0275102a 	slt	v0,s3,s5
9d0100dc:	1440fff0 	bnez	v0,9d0100a0 <scanexp+0x12c>
9d0100e0:	02209025 	move	s2,s1
9d0100e4:	3c160147 	lui	s6,0x147
9d0100e8:	0013afc3 	sra	s5,s3,0x1f
9d0100ec:	36d6ae15 	ori	s6,s6,0xae15
9d0100f0:	2622ffd0 	addiu	v0,s1,-48
9d0100f4:	2c42000a 	sltiu	v0,v0,10
9d0100f8:	14400012 	bnez	v0,9d010144 <scanexp+0x1d0>
9d0100fc:	02b6102a 	slt	v0,s5,s6
9d010100:	8e02004c 	lw	v0,76(s0)
9d010104:	54400040 	bnezl	v0,9d010208 <scanexp+0x294>
9d010108:	8e02003c 	lw	v0,60(s0)
9d01010c:	1280ffce 	beqz	s4,9d010048 <scanexp+0xd4>
9d010110:	00158823 	negu	s1,s5
9d010114:	00139823 	negu	s3,s3
9d010118:	0013102b 	sltu	v0,zero,s3
9d01011c:	1000ffca 	b	9d010048 <scanexp+0xd4>
9d010120:	0222a823 	subu	s5,s1,v0
9d010124:	0f404a27 	jal	9d01289c <__shgetc>
9d010128:	02002025 	move	a0,s0
9d01012c:	1000ffe3 	b	9d0100bc <scanexp+0x148>
9d010130:	00408825 	move	s1,v0
9d010134:	0f404a27 	jal	9d01289c <__shgetc>
9d010138:	02002025 	move	a0,s0
9d01013c:	10000012 	b	9d010188 <scanexp+0x214>
9d010140:	2403000a 	li	v1,10
9d010144:	10400026 	beqz	v0,9d0101e0 <scanexp+0x26c>
9d010148:	26c2ffff 	addiu	v0,s6,-1
9d01014c:	16a20005 	bne	s5,v0,9d010164 <scanexp+0x1f0>
9d010150:	3c027ae1 	lui	v0,0x7ae1
9d010154:	244247ae 	addiu	v0,v0,18350
9d010158:	0262102b 	sltu	v0,s3,v0
9d01015c:	50400021 	beqzl	v0,9d0101e4 <scanexp+0x270>
9d010160:	2631ffd0 	addiu	s1,s1,-48
9d010164:	8e02003c 	lw	v0,60(s0)
9d010168:	8e03004c 	lw	v1,76(s0)
9d01016c:	0043182b 	sltu	v1,v0,v1
9d010170:	1060fff0 	beqz	v1,9d010134 <scanexp+0x1c0>
9d010174:	00000000 	nop
9d010178:	24430001 	addiu	v1,v0,1
9d01017c:	ae03003c 	sw	v1,60(s0)
9d010180:	90420000 	lbu	v0,0(v0)
9d010184:	2403000a 	li	v1,10
9d010188:	00730019 	multu	v1,s3
9d01018c:	00009012 	mflo	s2
9d010190:	00009810 	mfhi	s3
9d010194:	70752002 	mul	a0,v1,s5
9d010198:	00939821 	addu	s3,a0,s3
9d01019c:	001127c3 	sra	a0,s1,0x1f
9d0101a0:	02518821 	addu	s1,s2,s1
9d0101a4:	0232182b 	sltu	v1,s1,s2
9d0101a8:	02642021 	addu	a0,s3,a0
9d0101ac:	00641821 	addu	v1,v1,a0
9d0101b0:	2633ffd0 	addiu	s3,s1,-48
9d0101b4:	0271882b 	sltu	s1,s3,s1
9d0101b8:	2463ffff 	addiu	v1,v1,-1
9d0101bc:	0223a821 	addu	s5,s1,v1
9d0101c0:	1000ffcb 	b	9d0100f0 <scanexp+0x17c>
9d0101c4:	00408825 	move	s1,v0
9d0101c8:	8e03004c 	lw	v1,76(s0)
9d0101cc:	0043182b 	sltu	v1,v0,v1
9d0101d0:	10600009 	beqz	v1,9d0101f8 <scanexp+0x284>
9d0101d4:	24430001 	addiu	v1,v0,1
9d0101d8:	ae03003c 	sw	v1,60(s0)
9d0101dc:	90510000 	lbu	s1,0(v0)
9d0101e0:	2631ffd0 	addiu	s1,s1,-48
9d0101e4:	2e31000a 	sltiu	s1,s1,10
9d0101e8:	5620fff7 	bnezl	s1,9d0101c8 <scanexp+0x254>
9d0101ec:	8e02003c 	lw	v0,60(s0)
9d0101f0:	1000ffc4 	b	9d010104 <scanexp+0x190>
9d0101f4:	8e02004c 	lw	v0,76(s0)
9d0101f8:	0f404a27 	jal	9d01289c <__shgetc>
9d0101fc:	02002025 	move	a0,s0
9d010200:	1000fff7 	b	9d0101e0 <scanexp+0x26c>
9d010204:	00408825 	move	s1,v0
9d010208:	2442ffff 	addiu	v0,v0,-1
9d01020c:	1000ffbf 	b	9d01010c <scanexp+0x198>
9d010210:	ae02003c 	sw	v0,60(s0)

Disassembly of section .text:

9d010214 <i2c_master_setup>:
#include "nu32dip.h"          // constants, funcs for startup and UART
// I2C Master utilities, 400 kHz, using polling rather than interrupts
// The functions must be callled in the correct order as per the I2C protocol
// Master will use I2C1 (SET PINS) SDA1 (D9) and SCL1 (D10)

void i2c_master_setup(void) {
9d010214:	27bdfff8 	addiu	sp,sp,-8
9d010218:	afbe0004 	sw	s8,4(sp)
9d01021c:	03a0f025 	move	s8,sp
  I2C1BRG = 53; //53 for 400kHz    // I2CBRG = [1/(2*Fsck) - PGD]*Pblck - 2 
9d010220:	3c02bf80 	lui	v0,0xbf80
9d010224:	24030035 	li	v1,53
9d010228:	ac435040 	sw	v1,20544(v0)
                                    // Fsck is the SCL freq, PGD = 104 ns
  I2C1CONbits.ON = 1;               // turn on the I2C1 module
9d01022c:	3c03bf80 	lui	v1,0xbf80
9d010230:	94625000 	lhu	v0,20480(v1)
9d010234:	24040001 	li	a0,1
9d010238:	7c827bc4 	ins	v0,a0,0xf,0x1
9d01023c:	a4625000 	sh	v0,20480(v1)
}
9d010240:	00000000 	nop
9d010244:	03c0e825 	move	sp,s8
9d010248:	8fbe0004 	lw	s8,4(sp)
9d01024c:	27bd0008 	addiu	sp,sp,8
9d010250:	03e00008 	jr	ra
9d010254:	00000000 	nop

9d010258 <i2c_master_start>:

// Start a transmission on the I2C bus
void i2c_master_start(void) {
9d010258:	27bdfff8 	addiu	sp,sp,-8
9d01025c:	afbe0004 	sw	s8,4(sp)
9d010260:	03a0f025 	move	s8,sp
    I2C1CONbits.SEN = 1;            // send the start bit
9d010264:	3c03bf80 	lui	v1,0xbf80
9d010268:	94625000 	lhu	v0,20480(v1)
9d01026c:	24040001 	li	a0,1
9d010270:	7c820004 	ins	v0,a0,0x0,0x1
9d010274:	a4625000 	sh	v0,20480(v1)
    while(I2C1CONbits.SEN) { ; }    // wait for the start bit to be sent
9d010278:	00000000 	nop
9d01027c:	3c02bf80 	lui	v0,0xbf80
9d010280:	8c425000 	lw	v0,20480(v0)
9d010284:	7c420000 	ext	v0,v0,0x0,0x1
9d010288:	304200ff 	andi	v0,v0,0xff
9d01028c:	1440fffb 	bnez	v0,9d01027c <i2c_master_start+0x24>
9d010290:	00000000 	nop
}
9d010294:	00000000 	nop
9d010298:	03c0e825 	move	sp,s8
9d01029c:	8fbe0004 	lw	s8,4(sp)
9d0102a0:	27bd0008 	addiu	sp,sp,8
9d0102a4:	03e00008 	jr	ra
9d0102a8:	00000000 	nop

9d0102ac <i2c_master_restart>:

void i2c_master_restart(void) {     
9d0102ac:	27bdfff8 	addiu	sp,sp,-8
9d0102b0:	afbe0004 	sw	s8,4(sp)
9d0102b4:	03a0f025 	move	s8,sp
    I2C1CONbits.RSEN = 1;           // send a restart 
9d0102b8:	3c03bf80 	lui	v1,0xbf80
9d0102bc:	94625000 	lhu	v0,20480(v1)
9d0102c0:	24040001 	li	a0,1
9d0102c4:	7c820844 	ins	v0,a0,0x1,0x1
9d0102c8:	a4625000 	sh	v0,20480(v1)
    while(I2C1CONbits.RSEN) { ; }   // wait for the restart to clear
9d0102cc:	00000000 	nop
9d0102d0:	3c02bf80 	lui	v0,0xbf80
9d0102d4:	8c425000 	lw	v0,20480(v0)
9d0102d8:	7c420040 	ext	v0,v0,0x1,0x1
9d0102dc:	304200ff 	andi	v0,v0,0xff
9d0102e0:	1440fffb 	bnez	v0,9d0102d0 <i2c_master_restart+0x24>
9d0102e4:	00000000 	nop
}
9d0102e8:	00000000 	nop
9d0102ec:	03c0e825 	move	sp,s8
9d0102f0:	8fbe0004 	lw	s8,4(sp)
9d0102f4:	27bd0008 	addiu	sp,sp,8
9d0102f8:	03e00008 	jr	ra
9d0102fc:	00000000 	nop

9d010300 <i2c_master_send>:

void i2c_master_send(unsigned char byte) { // send a byte to slave
9d010300:	27bdffe8 	addiu	sp,sp,-24
9d010304:	afbf0014 	sw	ra,20(sp)
9d010308:	afbe0010 	sw	s8,16(sp)
9d01030c:	03a0f025 	move	s8,sp
9d010310:	00801025 	move	v0,a0
9d010314:	a3c20018 	sb	v0,24(s8)
  I2C1TRN = byte;                   // if an address, bit 0 = 0 for write, 1 for read
9d010318:	93c30018 	lbu	v1,24(s8)
9d01031c:	3c02bf80 	lui	v0,0xbf80
9d010320:	ac435050 	sw	v1,20560(v0)
  while(I2C1STATbits.TRSTAT) { ; }  // wait for the transmission to finish
9d010324:	00000000 	nop
9d010328:	3c02bf80 	lui	v0,0xbf80
9d01032c:	8c425010 	lw	v0,20496(v0)
9d010330:	7c420380 	ext	v0,v0,0xe,0x1
9d010334:	304200ff 	andi	v0,v0,0xff
9d010338:	1440fffb 	bnez	v0,9d010328 <i2c_master_send+0x28>
9d01033c:	00000000 	nop
  if(I2C1STATbits.ACKSTAT) {        // if this is high, slave has not acknowledged
9d010340:	3c02bf80 	lui	v0,0xbf80
9d010344:	8c425010 	lw	v0,20496(v0)
9d010348:	7c4203c0 	ext	v0,v0,0xf,0x1
9d01034c:	304200ff 	andi	v0,v0,0xff
9d010350:	10400005 	beqz	v0,9d010368 <i2c_master_send+0x68>
9d010354:	00000000 	nop
    NU32DIP_WriteUART1("I2C2 Master: failed to receive ACK\r\n");
9d010358:	3c029d01 	lui	v0,0x9d01
9d01035c:	24444700 	addiu	a0,v0,18176
9d010360:	0f403e6a 	jal	9d00f9a8 <NU32DIP_WriteUART1>
9d010364:	00000000 	nop
  }
}
9d010368:	00000000 	nop
9d01036c:	03c0e825 	move	sp,s8
9d010370:	8fbf0014 	lw	ra,20(sp)
9d010374:	8fbe0010 	lw	s8,16(sp)
9d010378:	27bd0018 	addiu	sp,sp,24
9d01037c:	03e00008 	jr	ra
9d010380:	00000000 	nop

9d010384 <i2c_master_recv>:

unsigned char i2c_master_recv(void) { // receive a byte from the slave
9d010384:	27bdfff8 	addiu	sp,sp,-8
9d010388:	afbe0004 	sw	s8,4(sp)
9d01038c:	03a0f025 	move	s8,sp
    I2C1CONbits.RCEN = 1;             // start receiving data
9d010390:	3c03bf80 	lui	v1,0xbf80
9d010394:	94625000 	lhu	v0,20480(v1)
9d010398:	24040001 	li	a0,1
9d01039c:	7c8218c4 	ins	v0,a0,0x3,0x1
9d0103a0:	a4625000 	sh	v0,20480(v1)
    while(!I2C1STATbits.RBF) { ; }    // wait to receive the data
9d0103a4:	00000000 	nop
9d0103a8:	3c02bf80 	lui	v0,0xbf80
9d0103ac:	8c425010 	lw	v0,20496(v0)
9d0103b0:	7c420040 	ext	v0,v0,0x1,0x1
9d0103b4:	304200ff 	andi	v0,v0,0xff
9d0103b8:	1040fffb 	beqz	v0,9d0103a8 <i2c_master_recv+0x24>
9d0103bc:	00000000 	nop
    return I2C1RCV;                   // read and return the data
9d0103c0:	3c02bf80 	lui	v0,0xbf80
9d0103c4:	8c425060 	lw	v0,20576(v0)
9d0103c8:	304200ff 	andi	v0,v0,0xff
}
9d0103cc:	03c0e825 	move	sp,s8
9d0103d0:	8fbe0004 	lw	s8,4(sp)
9d0103d4:	27bd0008 	addiu	sp,sp,8
9d0103d8:	03e00008 	jr	ra
9d0103dc:	00000000 	nop

9d0103e0 <i2c_master_ack>:

void i2c_master_ack(int val) {        // sends ACK = 0 (slave should send another byte)
9d0103e0:	27bdfff8 	addiu	sp,sp,-8
9d0103e4:	afbe0004 	sw	s8,4(sp)
9d0103e8:	03a0f025 	move	s8,sp
9d0103ec:	afc40008 	sw	a0,8(s8)
                                      // or NACK = 1 (no more bytes requested from slave)
    I2C1CONbits.ACKDT = val;          // store ACK/NACK in ACKDT
9d0103f0:	8fc20008 	lw	v0,8(s8)
9d0103f4:	30420001 	andi	v0,v0,0x1
9d0103f8:	304400ff 	andi	a0,v0,0xff
9d0103fc:	3c03bf80 	lui	v1,0xbf80
9d010400:	94625000 	lhu	v0,20480(v1)
9d010404:	7c822944 	ins	v0,a0,0x5,0x1
9d010408:	a4625000 	sh	v0,20480(v1)
    I2C1CONbits.ACKEN = 1;            // send ACKDT
9d01040c:	3c03bf80 	lui	v1,0xbf80
9d010410:	94625000 	lhu	v0,20480(v1)
9d010414:	24040001 	li	a0,1
9d010418:	7c822104 	ins	v0,a0,0x4,0x1
9d01041c:	a4625000 	sh	v0,20480(v1)
    while(I2C1CONbits.ACKEN) { ; }    // wait for ACK/NACK to be sent
9d010420:	00000000 	nop
9d010424:	3c02bf80 	lui	v0,0xbf80
9d010428:	8c425000 	lw	v0,20480(v0)
9d01042c:	7c420100 	ext	v0,v0,0x4,0x1
9d010430:	304200ff 	andi	v0,v0,0xff
9d010434:	1440fffb 	bnez	v0,9d010424 <i2c_master_ack+0x44>
9d010438:	00000000 	nop
}
9d01043c:	00000000 	nop
9d010440:	03c0e825 	move	sp,s8
9d010444:	8fbe0004 	lw	s8,4(sp)
9d010448:	27bd0008 	addiu	sp,sp,8
9d01044c:	03e00008 	jr	ra
9d010450:	00000000 	nop

9d010454 <i2c_master_stop>:

void i2c_master_stop(void) {          // send a STOP:
9d010454:	27bdfff8 	addiu	sp,sp,-8
9d010458:	afbe0004 	sw	s8,4(sp)
9d01045c:	03a0f025 	move	s8,sp
  I2C1CONbits.PEN = 1;                // comm is complete and master relinquishes bus
9d010460:	3c03bf80 	lui	v1,0xbf80
9d010464:	94625000 	lhu	v0,20480(v1)
9d010468:	24040001 	li	a0,1
9d01046c:	7c821084 	ins	v0,a0,0x2,0x1
9d010470:	a4625000 	sh	v0,20480(v1)
  while(I2C1CONbits.PEN) { ; }        // wait for STOP to complete
9d010474:	00000000 	nop
9d010478:	3c02bf80 	lui	v0,0xbf80
9d01047c:	8c425000 	lw	v0,20480(v0)
9d010480:	7c420080 	ext	v0,v0,0x2,0x1
9d010484:	304200ff 	andi	v0,v0,0xff
9d010488:	1440fffb 	bnez	v0,9d010478 <i2c_master_stop+0x24>
9d01048c:	00000000 	nop
}
9d010490:	00000000 	nop
9d010494:	03c0e825 	move	sp,s8
9d010498:	8fbe0004 	lw	s8,4(sp)
9d01049c:	27bd0008 	addiu	sp,sp,8
9d0104a0:	03e00008 	jr	ra
9d0104a4:	00000000 	nop

Disassembly of section .text.fpsubadd:

9d0104a8 <__subsf3>:
9d0104a8:	3c018000 00a12826                       ...<&(..

9d0104b0 <__addsf3>:
9d0104b0:	00044dc2 312900ff 00055dc2 316b00ff     .M....)1.]....k1
9d0104c0:	3c078000 00044200 01074025 00055200     ...<.B..%@...R..
9d0104d0:	01475025 252dffff 2da100fe 10200061     %PG...-%...-a. .
9d0104e0:	00000000                                ....

9d0104e4 <Blab1>:
9d0104e4:	256dffff 	addiu	t5,t3,-1
9d0104e8:	2da100fe 	sltiu	at,t5,254
9d0104ec:	10200077 	beqz	at,9d0106cc <BspecB>
9d0104f0:	00000000 	nop

9d0104f4 <Blab2>:
9d0104f4:	012b6023 	subu	t4,t1,t3
9d0104f8:	0580000d 	bltz	t4,9d010530 <i1>
9d0104fc:	00000000 	nop
9d010500:	29810020 	slti	at,t4,32
9d010504:	14200003 	bnez	at,9d010514 <i2>
9d010508:	00000000 	nop
9d01050c:	10000015 	b	9d010564 <e1>
9d010510:	240a0002 	li	t2,2

9d010514 <i2>:
9d010514:	000a3025 	or	a2,zero,t2
9d010518:	018a5006 	srlv	t2,t2,t4
9d01051c:	018a6804 	sllv	t5,t2,t4
9d010520:	11a60010 	beq	t5,a2,9d010564 <e1>
9d010524:	00000000 	nop
9d010528:	1000000e 	b	9d010564 <e1>
9d01052c:	354a0002 	ori	t2,t2,0x2

9d010530 <i1>:
9d010530:	000b4825 	or	t1,zero,t3
9d010534:	000c6023 	negu	t4,t4
9d010538:	29810020 	slti	at,t4,32
9d01053c:	14200003 	bnez	at,9d01054c <i4>
9d010540:	00000000 	nop
9d010544:	10000007 	b	9d010564 <e1>
9d010548:	24080002 	li	t0,2

9d01054c <i4>:
9d01054c:	00083025 	or	a2,zero,t0
9d010550:	01884006 	srlv	t0,t0,t4
9d010554:	01886804 	sllv	t5,t0,t4
9d010558:	11a60002 	beq	t5,a2,9d010564 <e1>
9d01055c:	00000000 	nop
9d010560:	35080002 	ori	t0,t0,0x2

9d010564 <e1>:
9d010564:	00876024 	and	t4,a0,a3
9d010568:	01856826 	xor	t5,t4,a1
9d01056c:	05a00010 	bltz	t5,9d0105b0 <Bsub1>
9d010570:	00000000 	nop
9d010574:	010a4021 	addu	t0,t0,t2
9d010578:	010a682b 	sltu	t5,t0,t2
9d01057c:	11a00017 	beqz	t5,9d0105dc <Bres>
9d010580:	00000000 	nop
9d010584:	310d0001 	andi	t5,t0,0x1
9d010588:	11a00002 	beqz	t5,9d010594 <i7>
9d01058c:	00000000 	nop
9d010590:	35080002 	ori	t0,t0,0x2

9d010594 <i7>:
9d010594:	00084042 	srl	t0,t0,0x1
9d010598:	25290001 	addiu	t1,t1,1
9d01059c:	240100ff 	li	at,255
9d0105a0:	1521000e 	bne	t1,at,9d0105dc <Bres>
9d0105a4:	00000000 	nop
9d0105a8:	1000000c 	b	9d0105dc <Bres>
9d0105ac:	24080000 	li	t0,0

9d0105b0 <Bsub1>:
9d0105b0:	010a682b 	sltu	t5,t0,t2
9d0105b4:	11a00004 	beqz	t5,9d0105c8 <i9>
9d0105b8:	010a4023 	subu	t0,t0,t2
9d0105bc:	00084023 	negu	t0,t0
9d0105c0:	10000003 	b	9d0105d0 <e9>
9d0105c4:	01876026 	xor	t4,t4,a3

9d0105c8 <i9>:
9d0105c8:	11000050 	beqz	t0,9d01070c <Bzer>
9d0105cc:	00000000 	nop

9d0105d0 <e9>:
9d0105d0:	71063020 	clz	a2,t0
9d0105d4:	01264823 	subu	t1,t1,a2
9d0105d8:	00c84004 	sllv	t0,t0,a2

9d0105dc <Bres>:
9d0105dc:	1920000e 	blez	t1,9d010618 <Bund>
9d0105e0:	00000000 	nop

9d0105e4 <Blab12>:
9d0105e4:	25080080 	addiu	t0,t0,128
9d0105e8:	2d0d0080 	sltiu	t5,t0,128
9d0105ec:	012d4821 	addu	t1,t1,t5
9d0105f0:	00086a02 	srl	t5,t0,0x8
9d0105f4:	31ad0001 	andi	t5,t5,0x1
9d0105f8:	010d4023 	subu	t0,t0,t5
9d0105fc:	00084040 	sll	t0,t0,0x1
9d010600:	00084242 	srl	t0,t0,0x9
9d010604:	00096dc0 	sll	t5,t1,0x17
9d010608:	010d4025 	or	t0,t0,t5
9d01060c:	010c1025 	or	v0,t0,t4

9d010610 <B999>:
9d010610:	03e00008 	jr	ra
9d010614:	00000000 	nop

9d010618 <Bund>:
9d010618:	24060001 	li	a2,1
9d01061c:	00c93023 	subu	a2,a2,t1
9d010620:	2cc10020 	sltiu	at,a2,32
9d010624:	10200039 	beqz	at,9d01070c <Bzer>
9d010628:	00000000 	nop
9d01062c:	3c018000 	lui	at,0x8000
9d010630:	01014025 	or	t0,t0,at
9d010634:	240d0020 	li	t5,32
9d010638:	01a66823 	subu	t5,t5,a2
9d01063c:	01a84804 	sllv	t1,t0,t5
9d010640:	11200002 	beqz	t1,9d01064c <i10>
9d010644:	00c84006 	srlv	t0,t0,a2
9d010648:	35080001 	ori	t0,t0,0x1

9d01064c <i10>:
9d01064c:	24090000 	li	t1,0
9d010650:	250d0080 	addiu	t5,t0,128
9d010654:	05a1ffe3 	bgez	t5,9d0105e4 <Blab12>
9d010658:	00000000 	nop
9d01065c:	1000ffe1 	b	9d0105e4 <Blab12>
9d010660:	24090001 	li	t1,1

9d010664 <BspecA>:
9d010664:	1520000e 	bnez	t1,9d0106a0 <i12>
9d010668:	00000000 	nop
9d01066c:	01084021 	addu	t0,t0,t0
9d010670:	11000005 	beqz	t0,9d010688 <i13>
9d010674:	00000000 	nop
9d010678:	710c6020 	clz	t4,t0
9d01067c:	012c4823 	subu	t1,t1,t4
9d010680:	1000ff98 	b	9d0104e4 <Blab1>
9d010684:	01884004 	sllv	t0,t0,t4

9d010688 <i13>:
9d010688:	240100ff 	li	at,255
9d01068c:	1161000f 	beq	t3,at,9d0106cc <BspecB>
9d010690:	00000000 	nop
9d010694:	3c018000 	lui	at,0x8000
9d010698:	14a10018 	bne	a1,at,9d0106fc <BretB>
9d01069c:	00000000 	nop

9d0106a0 <i12>:
9d0106a0:	01086821 	addu	t5,t0,t0
9d0106a4:	15a0001b 	bnez	t5,9d010714 <Bnan>
9d0106a8:	00000000 	nop
9d0106ac:	240100ff 	li	at,255
9d0106b0:	15610014 	bne	t3,at,9d010704 <BretA>
9d0106b4:	00000000 	nop
9d0106b8:	00856826 	xor	t5,a0,a1
9d0106bc:	05a00015 	bltz	t5,9d010714 <Bnan>
9d0106c0:	00000000 	nop
9d0106c4:	1000000d 	b	9d0106fc <BretB>
9d0106c8:	00000000 	nop

9d0106cc <BspecB>:
9d0106cc:	15600008 	bnez	t3,9d0106f0 <i15>
9d0106d0:	00000000 	nop
9d0106d4:	014a5021 	addu	t2,t2,t2
9d0106d8:	1140000a 	beqz	t2,9d010704 <BretA>
9d0106dc:	00000000 	nop
9d0106e0:	714c6020 	clz	t4,t2
9d0106e4:	016c5823 	subu	t3,t3,t4
9d0106e8:	1000ff82 	b	9d0104f4 <Blab2>
9d0106ec:	018a5004 	sllv	t2,t2,t4

9d0106f0 <i15>:
9d0106f0:	014a6821 	addu	t5,t2,t2
9d0106f4:	15a00007 	bnez	t5,9d010714 <Bnan>
9d0106f8:	00000000 	nop

9d0106fc <BretB>:
9d0106fc:	1000ffc4 	b	9d010610 <B999>
9d010700:	00051025 	or	v0,zero,a1

9d010704 <BretA>:
9d010704:	1000ffc2 	b	9d010610 <B999>
9d010708:	00041025 	or	v0,zero,a0

9d01070c <Bzer>:
9d01070c:	1000ffc0 	b	9d010610 <B999>
9d010710:	24020000 	li	v0,0

9d010714 <Bnan>:
9d010714:	1000ffbe 	b	9d010610 <B999>
9d010718:	3c02ffc0 	lui	v0,0xffc0
9d01071c:	00000000 	nop

Disassembly of section .text:

9d010720 <INA219_Startup>:
#define INA219_REG_CONFIG 0x00 // config register address
#define INA219_REG_CURRENT 0x04 // current register
#define INA219_REG_CALIBRATION 0x05 // calibration register

//  Initialize I2C1 and the INA219 current sensor
void INA219_Startup() {
9d010720:	27bdffe0 	addiu	sp,sp,-32
9d010724:	afbf001c 	sw	ra,28(sp)
9d010728:	afbe0018 	sw	s8,24(sp)
9d01072c:	03a0f025 	move	s8,sp
  // disable interrupts
  __builtin_disable_interrupts();
9d010730:	41626000 	di	v0
9d010734:	000000c0 	ehb
9d010738:	00000000 	nop

  // turn on I2C1 at 400kHz. (SET PINS)SDA1 is D9, SCL1 is D10
  i2c_master_setup();
9d01073c:	0f404085 	jal	9d010214 <i2c_master_setup>
9d010740:	00000000 	nop

  // set the INA219 sensitivity - 10 bit, plus/minus160mV, 148us per sample
  unsigned short ina219_calValue = 1024;
9d010744:	24020400 	li	v0,1024
9d010748:	a7c20010 	sh	v0,16(s8)
  unsigned short ina219_config = 0b0011000010001111;
9d01074c:	2402308f 	li	v0,12431
9d010750:	a7c20012 	sh	v0,18(s8)
  writeINA219(INA219_REG_CALIBRATION, ina219_calValue);
9d010754:	97c20010 	lhu	v0,16(s8)
9d010758:	00402825 	move	a1,v0
9d01075c:	24040005 	li	a0,5
9d010760:	0f404206 	jal	9d010818 <writeINA219>
9d010764:	00000000 	nop
  writeINA219(INA219_REG_CONFIG, ina219_config);
9d010768:	97c20012 	lhu	v0,18(s8)
9d01076c:	00402825 	move	a1,v0
9d010770:	00002025 	move	a0,zero
9d010774:	0f404206 	jal	9d010818 <writeINA219>
9d010778:	00000000 	nop

  __builtin_enable_interrupts();
9d01077c:	41626020 	ei	v0
}
9d010780:	00000000 	nop
9d010784:	03c0e825 	move	sp,s8
9d010788:	8fbf001c 	lw	ra,28(sp)
9d01078c:	8fbe0018 	lw	s8,24(sp)
9d010790:	27bd0020 	addiu	sp,sp,32
9d010794:	03e00008 	jr	ra
9d010798:	00000000 	nop

9d01079c <INA219_read_current>:

// get the current in mA
float INA219_read_current(){
9d01079c:	27bdffe0 	addiu	sp,sp,-32
9d0107a0:	afbf001c 	sw	ra,28(sp)
9d0107a4:	afbe0018 	sw	s8,24(sp)
9d0107a8:	03a0f025 	move	s8,sp
  signed short value = readINA219(INA219_REG_CURRENT);
9d0107ac:	24040004 	li	a0,4
9d0107b0:	0f40422d 	jal	9d0108b4 <readINA219>
9d0107b4:	00000000 	nop
9d0107b8:	a7c20010 	sh	v0,16(s8)
  float ma = value / 3.0;
9d0107bc:	87c20010 	lh	v0,16(s8)
9d0107c0:	00402025 	move	a0,v0
9d0107c4:	0f404e18 	jal	9d013860 <__floatsidf>
9d0107c8:	00000000 	nop
9d0107cc:	00402025 	move	a0,v0
9d0107d0:	00602825 	move	a1,v1
9d0107d4:	3c029d01 	lui	v0,0x9d01
9d0107d8:	8c464b78 	lw	a2,19320(v0)
9d0107dc:	8c474b7c 	lw	a3,19324(v0)
9d0107e0:	0f4033cc 	jal	9d00cf30 <__divdf3>
9d0107e4:	00000000 	nop
9d0107e8:	00402025 	move	a0,v0
9d0107ec:	00602825 	move	a1,v1
9d0107f0:	0f404818 	jal	9d012060 <__truncdfsf2>
9d0107f4:	00000000 	nop
9d0107f8:	afc20014 	sw	v0,20(s8)
  return ma;
9d0107fc:	8fc20014 	lw	v0,20(s8)
}
9d010800:	03c0e825 	move	sp,s8
9d010804:	8fbf001c 	lw	ra,28(sp)
9d010808:	8fbe0018 	lw	s8,24(sp)
9d01080c:	27bd0020 	addiu	sp,sp,32
9d010810:	03e00008 	jr	ra
9d010814:	00000000 	nop

9d010818 <writeINA219>:

// write 2 bytes
void writeINA219(unsigned char reg, unsigned short value){
9d010818:	27bdffe8 	addiu	sp,sp,-24
9d01081c:	afbf0014 	sw	ra,20(sp)
9d010820:	afbe0010 	sw	s8,16(sp)
9d010824:	03a0f025 	move	s8,sp
9d010828:	00801025 	move	v0,a0
9d01082c:	00a01825 	move	v1,a1
9d010830:	a3c20018 	sb	v0,24(s8)
9d010834:	00601025 	move	v0,v1
9d010838:	a7c2001c 	sh	v0,28(s8)
  i2c_master_start();
9d01083c:	0f404096 	jal	9d010258 <i2c_master_start>
9d010840:	00000000 	nop
  i2c_master_send(INA219_ADDR<<1); // write to the INA219
9d010844:	24040080 	li	a0,128
9d010848:	0f4040c0 	jal	9d010300 <i2c_master_send>
9d01084c:	00000000 	nop
  i2c_master_send(reg); // the reg to write to
9d010850:	93c20018 	lbu	v0,24(s8)
9d010854:	00402025 	move	a0,v0
9d010858:	0f4040c0 	jal	9d010300 <i2c_master_send>
9d01085c:	00000000 	nop
  i2c_master_send(value>>8);
9d010860:	97c2001c 	lhu	v0,28(s8)
9d010864:	00021202 	srl	v0,v0,0x8
9d010868:	3042ffff 	andi	v0,v0,0xffff
9d01086c:	304200ff 	andi	v0,v0,0xff
9d010870:	00402025 	move	a0,v0
9d010874:	0f4040c0 	jal	9d010300 <i2c_master_send>
9d010878:	00000000 	nop
  i2c_master_send(value&0xff);
9d01087c:	97c2001c 	lhu	v0,28(s8)
9d010880:	304200ff 	andi	v0,v0,0xff
9d010884:	00402025 	move	a0,v0
9d010888:	0f4040c0 	jal	9d010300 <i2c_master_send>
9d01088c:	00000000 	nop
  i2c_master_stop();
9d010890:	0f404115 	jal	9d010454 <i2c_master_stop>
9d010894:	00000000 	nop
}
9d010898:	00000000 	nop
9d01089c:	03c0e825 	move	sp,s8
9d0108a0:	8fbf0014 	lw	ra,20(sp)
9d0108a4:	8fbe0010 	lw	s8,16(sp)
9d0108a8:	27bd0018 	addiu	sp,sp,24
9d0108ac:	03e00008 	jr	ra
9d0108b0:	00000000 	nop

9d0108b4 <readINA219>:

// read 2 bytes
signed short readINA219(unsigned char reg){
9d0108b4:	27bdffe0 	addiu	sp,sp,-32
9d0108b8:	afbf001c 	sw	ra,28(sp)
9d0108bc:	afbe0018 	sw	s8,24(sp)
9d0108c0:	03a0f025 	move	s8,sp
9d0108c4:	00801025 	move	v0,a0
9d0108c8:	a3c20020 	sb	v0,32(s8)
  i2c_master_start();
9d0108cc:	0f404096 	jal	9d010258 <i2c_master_start>
9d0108d0:	00000000 	nop
  i2c_master_send(INA219_ADDR<<1); // write to the INA219
9d0108d4:	24040080 	li	a0,128
9d0108d8:	0f4040c0 	jal	9d010300 <i2c_master_send>
9d0108dc:	00000000 	nop
  i2c_master_send(reg); // the reg to read from
9d0108e0:	93c20020 	lbu	v0,32(s8)
9d0108e4:	00402025 	move	a0,v0
9d0108e8:	0f4040c0 	jal	9d010300 <i2c_master_send>
9d0108ec:	00000000 	nop
  i2c_master_restart();
9d0108f0:	0f4040ab 	jal	9d0102ac <i2c_master_restart>
9d0108f4:	00000000 	nop
  i2c_master_send((INA219_ADDR<<1)|0b1); // read from the INA219
9d0108f8:	24040081 	li	a0,129
9d0108fc:	0f4040c0 	jal	9d010300 <i2c_master_send>
9d010900:	00000000 	nop
  unsigned char r1 = i2c_master_recv();
9d010904:	0f4040e1 	jal	9d010384 <i2c_master_recv>
9d010908:	00000000 	nop
9d01090c:	a3c20010 	sb	v0,16(s8)
  i2c_master_ack(0); // read again
9d010910:	00002025 	move	a0,zero
9d010914:	0f4040f8 	jal	9d0103e0 <i2c_master_ack>
9d010918:	00000000 	nop
  unsigned char r2 = i2c_master_recv();
9d01091c:	0f4040e1 	jal	9d010384 <i2c_master_recv>
9d010920:	00000000 	nop
9d010924:	a3c20011 	sb	v0,17(s8)
  i2c_master_ack(1); // no more reads
9d010928:	24040001 	li	a0,1
9d01092c:	0f4040f8 	jal	9d0103e0 <i2c_master_ack>
9d010930:	00000000 	nop
  i2c_master_stop();
9d010934:	0f404115 	jal	9d010454 <i2c_master_stop>
9d010938:	00000000 	nop

  signed short value = (r1<<8)|r2;
9d01093c:	93c20010 	lbu	v0,16(s8)
9d010940:	00021200 	sll	v0,v0,0x8
9d010944:	7c021e20 	seh	v1,v0
9d010948:	93c20011 	lbu	v0,17(s8)
9d01094c:	7c021620 	seh	v0,v0
9d010950:	00621025 	or	v0,v1,v0
9d010954:	a7c20012 	sh	v0,18(s8)
  return value;
9d010958:	87c20012 	lh	v0,18(s8)
}
9d01095c:	03c0e825 	move	sp,s8
9d010960:	8fbf001c 	lw	ra,28(sp)
9d010964:	8fbe0018 	lw	s8,24(sp)
9d010968:	27bd0020 	addiu	sp,sp,32
9d01096c:	03e00008 	jr	ra
9d010970:	00000000 	nop

Disassembly of section .text.fp32mul:

9d010974 <__mulsf3>:
9d010974:	00043dc2 30e700ff 00054dc2 312900ff     .=.....0.M....)1
9d010984:	3c0a8000 00043200 00ca3025 00054200     ...<.2..%0...B..
9d010994:	010a4025 00856026 014c5024 24ecffff     %@..&`..$PL....$
9d0109a4:	2d8100fe 10200021 00000000              ...-!. .....

9d0109b0 <Clab1>:
9d0109b0:	252cffff 	addiu	t4,t1,-1
9d0109b4:	2d8100fe 	sltiu	at,t4,254
9d0109b8:	10200036 	beqz	at,9d010a94 <CspecB>
9d0109bc:	00000000 	nop

9d0109c0 <Clab2>:
9d0109c0:	00c80019 	multu	a2,t0
9d0109c4:	00005812 	mflo	t3
9d0109c8:	11600002 	beqz	t3,9d0109d4 <i17>
9d0109cc:	00003010 	mfhi	a2
9d0109d0:	34c60001 	ori	a2,a2,0x1

9d0109d4 <i17>:
9d0109d4:	04c00003 	bltz	a2,9d0109e4 <i18>
9d0109d8:	00000000 	nop
9d0109dc:	00063040 	sll	a2,a2,0x1
9d0109e0:	24e7ffff 	addiu	a3,a3,-1

9d0109e4 <i18>:
9d0109e4:	252cff82 	addiu	t4,t1,-126
9d0109e8:	00ec3821 	addu	a3,a3,t4
9d0109ec:	24ecffff 	addiu	t4,a3,-1
9d0109f0:	2d8100fe 	sltiu	at,t4,254
9d0109f4:	1020003a 	beqz	at,9d010ae0 <Coveund>
9d0109f8:	00000000 	nop

9d0109fc <Clab8>:
9d0109fc:	24c60080 	addiu	a2,a2,128
9d010a00:	2ccc0080 	sltiu	t4,a2,128
9d010a04:	00ec3821 	addu	a3,a3,t4
9d010a08:	00066202 	srl	t4,a2,0x8
9d010a0c:	318c0001 	andi	t4,t4,0x1
9d010a10:	00cc3023 	subu	a2,a2,t4
9d010a14:	00063040 	sll	a2,a2,0x1
9d010a18:	00063242 	srl	a2,a2,0x9
9d010a1c:	000765c0 	sll	t4,a3,0x17
9d010a20:	00cc3025 	or	a2,a2,t4
9d010a24:	00ca1025 	or	v0,a2,t2

9d010a28 <C999>:
9d010a28:	03e00008 	jr	ra
9d010a2c:	00000000 	nop

9d010a30 <CspecA>:
9d010a30:	14e0000d 	bnez	a3,9d010a68 <i19>
9d010a34:	00000000 	nop
9d010a38:	00c63021 	addu	a2,a2,a2
9d010a3c:	10c00005 	beqz	a2,9d010a54 <i20>
9d010a40:	00000000 	nop
9d010a44:	70cb5820 	clz	t3,a2
9d010a48:	00eb3823 	subu	a3,a3,t3
9d010a4c:	1000ffd8 	b	9d0109b0 <Clab1>
9d010a50:	01663004 	sllv	a2,a2,t3

9d010a54 <i20>:
9d010a54:	240100ff 	li	at,255
9d010a58:	1121001f 	beq	t1,at,9d010ad8 <Cnan>
9d010a5c:	00000000 	nop
9d010a60:	10000015 	b	9d010ab8 <Czer>
9d010a64:	00000000 	nop

9d010a68 <i19>:
9d010a68:	00c66021 	addu	t4,a2,a2
9d010a6c:	1580001a 	bnez	t4,9d010ad8 <Cnan>
9d010a70:	00000000 	nop
9d010a74:	15200004 	bnez	t1,9d010a88 <i21>
9d010a78:	00000000 	nop
9d010a7c:	01086021 	addu	t4,t0,t0
9d010a80:	11800015 	beqz	t4,9d010ad8 <Cnan>
9d010a84:	00000000 	nop

9d010a88 <i21>:
9d010a88:	240100ff 	li	at,255
9d010a8c:	1521000f 	bne	t1,at,9d010acc <Cinf>
9d010a90:	00000000 	nop

9d010a94 <CspecB>:
9d010a94:	1520000a 	bnez	t1,9d010ac0 <i22>
9d010a98:	00000000 	nop
9d010a9c:	01084021 	addu	t0,t0,t0
9d010aa0:	11000005 	beqz	t0,9d010ab8 <Czer>
9d010aa4:	00000000 	nop
9d010aa8:	710b5820 	clz	t3,t0
9d010aac:	012b4823 	subu	t1,t1,t3
9d010ab0:	1000ffc3 	b	9d0109c0 <Clab2>
9d010ab4:	01684004 	sllv	t0,t0,t3

9d010ab8 <Czer>:
9d010ab8:	1000ffdb 	b	9d010a28 <C999>
9d010abc:	000a1025 	or	v0,zero,t2

9d010ac0 <i22>:
9d010ac0:	01086021 	addu	t4,t0,t0
9d010ac4:	15800004 	bnez	t4,9d010ad8 <Cnan>
9d010ac8:	00000000 	nop

9d010acc <Cinf>:
9d010acc:	3c017f80 	lui	at,0x7f80
9d010ad0:	1000ffd5 	b	9d010a28 <C999>
9d010ad4:	01411025 	or	v0,t2,at

9d010ad8 <Cnan>:
9d010ad8:	1000ffd3 	b	9d010a28 <C999>
9d010adc:	3c02ffc0 	lui	v0,0xffc0

9d010ae0 <Coveund>:
9d010ae0:	1ce0fffa 	bgtz	a3,9d010acc <Cinf>
9d010ae4:	00000000 	nop
9d010ae8:	240b0001 	li	t3,1
9d010aec:	01675823 	subu	t3,t3,a3
9d010af0:	2d610020 	sltiu	at,t3,32
9d010af4:	1020fff0 	beqz	at,9d010ab8 <Czer>
9d010af8:	00000000 	nop
9d010afc:	240c0020 	li	t4,32
9d010b00:	018b6023 	subu	t4,t4,t3
9d010b04:	01863804 	sllv	a3,a2,t4
9d010b08:	10e00002 	beqz	a3,9d010b14 <i25>
9d010b0c:	01663006 	srlv	a2,a2,t3
9d010b10:	34c60002 	ori	a2,a2,0x2

9d010b14 <i25>:
9d010b14:	24070000 	li	a3,0
9d010b18:	24cc0080 	addiu	t4,a2,128
9d010b1c:	0581ffb7 	bgez	t4,9d0109fc <Clab8>
9d010b20:	00000000 	nop
9d010b24:	1000ffb5 	b	9d0109fc <Clab8>
9d010b28:	24070001 	li	a3,1
9d010b2c:	00000000 	nop

Disassembly of section .dinit:

9d010b30 <.dinit>:
9d010b30:	a0000014 	sb	zero,20(zero)
9d010b34:	0000000c 	syscall
9d010b38:	00000000 	nop
9d010b3c:	a0000054 	sb	zero,84(zero)
9d010b40:	00000064 	0x64
9d010b44:	00000000 	nop
9d010b48:	a00020bc 	sb	zero,8380(zero)
9d010b4c:	00000320 	0x320
9d010b50:	00000000 	nop
9d010b54:	a0000020 	sb	zero,32(zero)
9d010b58:	00000030 	tge	zero,zero
9d010b5c:	00000000 	nop
9d010b60:	a0000000 	sb	zero,0(zero)
9d010b64:	00000010 	mfhi	zero
9d010b68:	00000001 	movf	zero,zero,$fcc0
9d010b6c:	be839581 	cache	0x3,-27263(s4)
9d010b70:	39d1b717 	xori	s1,t6,0xb717
9d010b74:	be4ccccd 	cache	0xc,-13107(s2)
9d010b78:	ffffff38 	sdc3	$31,-200(ra)
9d010b7c:	a00000b8 	sb	zero,184(zero)
9d010b80:	00001f40 	sll	v1,zero,0x1d
9d010b84:	00000000 	nop
9d010b88:	a0000050 	sb	zero,80(zero)
9d010b8c:	00000004 	sllv	zero,zero,zero
9d010b90:	00000000 	nop
9d010b94:	a0001ff8 	sb	zero,8184(zero)
9d010b98:	00000060 	0x60
9d010b9c:	00000001 	movf	zero,zero,$fcc0
9d010ba0:	00000001 	movf	zero,zero,$fcc0
9d010ba4:	00000003 	sra	zero,zero,0x0
	...
9d010bbc:	9d012668 	0x9d012668
	...
9d010bcc:	9d01488c 	0x9d01488c
9d010bd0:	9d0130fc 	0x9d0130fc
	...
9d010c00:	a0002400 	sb	zero,9216(zero)
9d010c04:	00000004 	sllv	zero,zero,zero
9d010c08:	00000000 	nop
9d010c0c:	a0002058 	sb	zero,8280(zero)
9d010c10:	00000060 	0x60
9d010c14:	00000001 	movf	zero,zero,$fcc0
9d010c18:	00000001 	movf	zero,zero,$fcc0
9d010c1c:	00000003 	sra	zero,zero,0x0
	...
9d010c34:	9d012668 	0x9d012668
	...
9d010c44:	9d01488c 	0x9d01488c
9d010c48:	9d0130fc 	0x9d0130fc
	...
9d010c78:	a0000010 	sb	zero,16(zero)
9d010c7c:	00000004 	sllv	zero,zero,zero
9d010c80:	00000001 	movf	zero,zero,$fcc0
9d010c84:	00000002 	srl	zero,zero,0x0
9d010c88:	a0002404 	sb	zero,9220(zero)
9d010c8c:	00000004 	sllv	zero,zero,zero
9d010c90:	00000000 	nop
9d010c94:	a00020b8 	sb	zero,8376(zero)
9d010c98:	00000004 	sllv	zero,zero,zero
9d010c9c:	00000001 	movf	zero,zero,$fcc0
9d010ca0:	00000001 	movf	zero,zero,$fcc0
9d010ca4:	a0002408 	sb	zero,9224(zero)
9d010ca8:	00000004 	sllv	zero,zero,zero
9d010cac:	00000000 	nop
9d010cb0:	a00023dc 	sb	zero,9180(zero)
9d010cb4:	00000024 	and	zero,zero,zero
	...

Disassembly of section .text.__pop_int:

9d010cc0 <__pop_int>:
9d010cc0:	24020088 	li	v0,136
9d010cc4:	10a2003f 	beq	a1,v0,9d010dc4 <__pop_int+0x104>
9d010cc8:	28a20089 	slti	v0,a1,137
9d010ccc:	1040001a 	beqz	v0,9d010d38 <__pop_int+0x78>
9d010cd0:	24020081 	li	v0,129
9d010cd4:	10a20054 	beq	a1,v0,9d010e28 <__pop_int+0x168>
9d010cd8:	28a20082 	slti	v0,a1,130
9d010cdc:	10400005 	beqz	v0,9d010cf4 <__pop_int+0x34>
9d010ce0:	24020080 	li	v0,128
9d010ce4:	50a20051 	beql	a1,v0,9d010e2c <__pop_int+0x16c>
9d010ce8:	8ce20000 	lw	v0,0(a3)
9d010cec:	03e00008 	jr	ra
9d010cf0:	00001025 	move	v0,zero
9d010cf4:	24020082 	li	v0,130
9d010cf8:	50a2003b 	beql	a1,v0,9d010de8 <__pop_int+0x128>
9d010cfc:	8ce20000 	lw	v0,0(a3)
9d010d00:	24020084 	li	v0,132
9d010d04:	14a2fff9 	bne	a1,v0,9d010cec <__pop_int+0x2c>
9d010d08:	00000000 	nop
9d010d0c:	8ce20000 	lw	v0,0(a3)
9d010d10:	24430004 	addiu	v1,v0,4
9d010d14:	8c420000 	lw	v0,0(v0)
9d010d18:	10c00027 	beqz	a2,9d010db8 <__pop_int+0xf8>
9d010d1c:	ace30000 	sw	v1,0(a3)
9d010d20:	7c021620 	seh	v0,v0
9d010d24:	ac820000 	sw	v0,0(a0)
9d010d28:	000217c3 	sra	v0,v0,0x1f
9d010d2c:	ac820004 	sw	v0,4(a0)
9d010d30:	03e00008 	jr	ra
9d010d34:	24020001 	li	v0,1
9d010d38:	240200a0 	li	v0,160
9d010d3c:	50a20036 	beql	a1,v0,9d010e18 <__pop_int+0x158>
9d010d40:	8ce20000 	lw	v0,0(a3)
9d010d44:	28a200a1 	slti	v0,a1,161
9d010d48:	10400010 	beqz	v0,9d010d8c <__pop_int+0xcc>
9d010d4c:	24020090 	li	v0,144
9d010d50:	14a2ffe6 	bne	a1,v0,9d010cec <__pop_int+0x2c>
9d010d54:	00000000 	nop
9d010d58:	8ce20000 	lw	v0,0(a3)
9d010d5c:	24420007 	addiu	v0,v0,7
9d010d60:	7c021004 	ins	v0,zero,0x0,0x3
9d010d64:	8c480000 	lw	t0,0(v0)
9d010d68:	8c490004 	lw	t1,4(v0)
9d010d6c:	24420008 	addiu	v0,v0,8
9d010d70:	ace20000 	sw	v0,0(a3)
9d010d74:	ac880000 	sw	t0,0(a0)
9d010d78:	ac890004 	sw	t1,4(a0)
9d010d7c:	10c00001 	beqz	a2,9d010d84 <__pop_int+0xc4>
9d010d80:	24020001 	li	v0,1
9d010d84:	03e00008 	jr	ra
9d010d88:	00000000 	nop
9d010d8c:	240200c0 	li	v0,192
9d010d90:	50a20005 	beql	a1,v0,9d010da8 <__pop_int+0xe8>
9d010d94:	8ce20000 	lw	v0,0(a3)
9d010d98:	240200f0 	li	v0,240
9d010d9c:	14a2ffd3 	bne	a1,v0,9d010cec <__pop_int+0x2c>
9d010da0:	00000000 	nop
9d010da4:	8ce20000 	lw	v0,0(a3)
9d010da8:	24430004 	addiu	v1,v0,4
9d010dac:	ace30000 	sw	v1,0(a3)
9d010db0:	10000002 	b	9d010dbc <__pop_int+0xfc>
9d010db4:	8c420000 	lw	v0,0(v0)
9d010db8:	3042ffff 	andi	v0,v0,0xffff
9d010dbc:	10000020 	b	9d010e40 <__pop_int+0x180>
9d010dc0:	ac820000 	sw	v0,0(a0)
9d010dc4:	8ce20000 	lw	v0,0(a3)
9d010dc8:	24430004 	addiu	v1,v0,4
9d010dcc:	8c420000 	lw	v0,0(v0)
9d010dd0:	10c00003 	beqz	a2,9d010de0 <__pop_int+0x120>
9d010dd4:	ace30000 	sw	v1,0(a3)
9d010dd8:	1000ffd2 	b	9d010d24 <__pop_int+0x64>
9d010ddc:	7c021420 	seb	v0,v0
9d010de0:	1000fff6 	b	9d010dbc <__pop_int+0xfc>
9d010de4:	304200ff 	andi	v0,v0,0xff
9d010de8:	24420007 	addiu	v0,v0,7
9d010dec:	7c021004 	ins	v0,zero,0x0,0x3
9d010df0:	8c480000 	lw	t0,0(v0)
9d010df4:	8c490004 	lw	t1,4(v0)
9d010df8:	24420008 	addiu	v0,v0,8
9d010dfc:	ace20000 	sw	v0,0(a3)
9d010e00:	ac880000 	sw	t0,0(a0)
9d010e04:	ac890004 	sw	t1,4(a0)
9d010e08:	10c0ffde 	beqz	a2,9d010d84 <__pop_int+0xc4>
9d010e0c:	24020001 	li	v0,1
9d010e10:	03e00008 	jr	ra
9d010e14:	00000000 	nop
9d010e18:	24430004 	addiu	v1,v0,4
9d010e1c:	ace30000 	sw	v1,0(a3)
9d010e20:	1000ffc0 	b	9d010d24 <__pop_int+0x64>
9d010e24:	8c420000 	lw	v0,0(v0)
9d010e28:	8ce20000 	lw	v0,0(a3)
9d010e2c:	24430004 	addiu	v1,v0,4
9d010e30:	ace30000 	sw	v1,0(a3)
9d010e34:	8c420000 	lw	v0,0(v0)
9d010e38:	14c0ffbb 	bnez	a2,9d010d28 <__pop_int+0x68>
9d010e3c:	ac820000 	sw	v0,0(a0)
9d010e40:	1000ffbb 	b	9d010d30 <__pop_int+0x70>
9d010e44:	ac800004 	sw	zero,4(a0)

Disassembly of section .text.__push_int:

9d010e48 <__push_int>:
9d010e48:	24020088 	li	v0,136
9d010e4c:	50a2003c 	beql	a1,v0,9d010f40 <__push_int+0xf8>
9d010e50:	8ce20000 	lw	v0,0(a3)
9d010e54:	28a20089 	slti	v0,a1,137
9d010e58:	10400019 	beqz	v0,9d010ec0 <__push_int+0x78>
9d010e5c:	24020081 	li	v0,129
9d010e60:	50a20040 	beql	a1,v0,9d010f64 <__push_int+0x11c>
9d010e64:	8ce20000 	lw	v0,0(a3)
9d010e68:	28a20082 	slti	v0,a1,130
9d010e6c:	10400005 	beqz	v0,9d010e84 <__push_int+0x3c>
9d010e70:	24020080 	li	v0,128
9d010e74:	50a20048 	beql	a1,v0,9d010f98 <__push_int+0x150>
9d010e78:	8ce20000 	lw	v0,0(a3)
9d010e7c:	03e00008 	jr	ra
9d010e80:	00001025 	move	v0,zero
9d010e84:	24020082 	li	v0,130
9d010e88:	10a20015 	beq	a1,v0,9d010ee0 <__push_int+0x98>
9d010e8c:	24020084 	li	v0,132
9d010e90:	14a2fffa 	bne	a1,v0,9d010e7c <__push_int+0x34>
9d010e94:	00000000 	nop
9d010e98:	8ce20000 	lw	v0,0(a3)
9d010e9c:	8c830000 	lw	v1,0(a0)
9d010ea0:	24440004 	addiu	a0,v0,4
9d010ea4:	ace40000 	sw	a0,0(a3)
9d010ea8:	8c420000 	lw	v0,0(v0)
9d010eac:	a4430000 	sh	v1,0(v0)
9d010eb0:	10c00001 	beqz	a2,9d010eb8 <__push_int+0x70>
9d010eb4:	24020001 	li	v0,1
9d010eb8:	03e00008 	jr	ra
9d010ebc:	00000000 	nop
9d010ec0:	240200a0 	li	v0,160
9d010ec4:	50a20018 	beql	a1,v0,9d010f28 <__push_int+0xe0>
9d010ec8:	8ce20000 	lw	v0,0(a3)
9d010ecc:	28a200a1 	slti	v0,a1,161
9d010ed0:	1040000e 	beqz	v0,9d010f0c <__push_int+0xc4>
9d010ed4:	24020090 	li	v0,144
9d010ed8:	14a2ffe8 	bne	a1,v0,9d010e7c <__push_int+0x34>
9d010edc:	00000000 	nop
9d010ee0:	8ce20000 	lw	v0,0(a3)
9d010ee4:	10c00028 	beqz	a2,9d010f88 <__push_int+0x140>
9d010ee8:	24430004 	addiu	v1,v0,4
9d010eec:	ace30000 	sw	v1,0(a3)
9d010ef0:	8c850004 	lw	a1,4(a0)
9d010ef4:	8c840000 	lw	a0,0(a0)
9d010ef8:	8c420000 	lw	v0,0(v0)
9d010efc:	ac440000 	sw	a0,0(v0)
9d010f00:	ac450004 	sw	a1,4(v0)
9d010f04:	03e00008 	jr	ra
9d010f08:	24020001 	li	v0,1
9d010f0c:	240200c0 	li	v0,192
9d010f10:	50a20005 	beql	a1,v0,9d010f28 <__push_int+0xe0>
9d010f14:	8ce20000 	lw	v0,0(a3)
9d010f18:	240200f0 	li	v0,240
9d010f1c:	14a2ffd7 	bne	a1,v0,9d010e7c <__push_int+0x34>
9d010f20:	00000000 	nop
9d010f24:	8ce20000 	lw	v0,0(a3)
9d010f28:	8c830000 	lw	v1,0(a0)
9d010f2c:	24440004 	addiu	a0,v0,4
9d010f30:	ace40000 	sw	a0,0(a3)
9d010f34:	8c420000 	lw	v0,0(v0)
9d010f38:	1000fff2 	b	9d010f04 <__push_int+0xbc>
9d010f3c:	ac430000 	sw	v1,0(v0)
9d010f40:	8c830000 	lw	v1,0(a0)
9d010f44:	24440004 	addiu	a0,v0,4
9d010f48:	ace40000 	sw	a0,0(a3)
9d010f4c:	8c420000 	lw	v0,0(v0)
9d010f50:	a0430000 	sb	v1,0(v0)
9d010f54:	10c0ffd8 	beqz	a2,9d010eb8 <__push_int+0x70>
9d010f58:	24020001 	li	v0,1
9d010f5c:	03e00008 	jr	ra
9d010f60:	00000000 	nop
9d010f64:	8c830000 	lw	v1,0(a0)
9d010f68:	24440004 	addiu	a0,v0,4
9d010f6c:	ace40000 	sw	a0,0(a3)
9d010f70:	8c420000 	lw	v0,0(v0)
9d010f74:	ac430000 	sw	v1,0(v0)
9d010f78:	10c0ffcf 	beqz	a2,9d010eb8 <__push_int+0x70>
9d010f7c:	24020001 	li	v0,1
9d010f80:	03e00008 	jr	ra
9d010f84:	00000000 	nop
9d010f88:	8c850004 	lw	a1,4(a0)
9d010f8c:	8c840000 	lw	a0,0(a0)
9d010f90:	1000ffd9 	b	9d010ef8 <__push_int+0xb0>
9d010f94:	ace30000 	sw	v1,0(a3)
9d010f98:	8c830000 	lw	v1,0(a0)
9d010f9c:	24440004 	addiu	a0,v0,4
9d010fa0:	ace40000 	sw	a0,0(a3)
9d010fa4:	8c420000 	lw	v0,0(v0)
9d010fa8:	ac430000 	sw	v1,0(v0)
9d010fac:	24020001 	li	v0,1
9d010fb0:	03e00008 	jr	ra
9d010fb4:	00000000 	nop

Disassembly of section .text.libm:

9d010fb8 <__mchp_ldexp>:
9d010fb8:	00054840 00094d42 252cffff 2d8107fe     @H..BM....,%...-
9d010fc8:	1020000f 00000000                       .. .....

9d010fd0 <Clab1>:
9d010fd0:	01264821 	addu	t1,t1,a2
9d010fd4:	252cffff 	addiu	t4,t1,-1
9d010fd8:	2d8107fe 	sltiu	at,t4,2046
9d010fdc:	10200021 	beqz	at,9d011064 <Cspec2>
9d010fe0:	00000000 	nop
9d010fe4:	3c01800f 	lui	at,0x800f
9d010fe8:	3421ffff 	ori	at,at,0xffff
9d010fec:	00a12824 	and	a1,a1,at
9d010ff0:	00096500 	sll	t4,t1,0x14
9d010ff4:	00ac2825 	or	a1,a1,t4

9d010ff8 <Cret>:
9d010ff8:	00041025 	or	v0,zero,a0
9d010ffc:	00051825 	or	v1,zero,a1

9d011000 <C999>:
9d011000:	03e00008 	jr	ra
9d011004:	00000000 	nop

9d011008 <Cspec>:
9d011008:	00056300 	sll	t4,a1,0xc
9d01100c:	01846025 	or	t4,t4,a0
9d011010:	1180fff9 	beqz	t4,9d010ff8 <Cret>
9d011014:	00000000 	nop
9d011018:	11200004 	beqz	t1,9d01102c <i9>
9d01101c:	00000000 	nop
9d011020:	3c05fff8 	lui	a1,0xfff8
9d011024:	1000fff4 	b	9d010ff8 <Cret>
9d011028:	24040000 	li	a0,0

9d01102c <i9>:
9d01102c:	25290001 	addiu	t1,t1,1
9d011030:	3c018000 	lui	at,0x8000
9d011034:	00a15024 	and	t2,a1,at

9d011038 <b10>:
9d011038:	2529ffff 	addiu	t1,t1,-1
9d01103c:	0080602a 	slt	t4,a0,zero
9d011040:	00842021 	addu	a0,a0,a0
9d011044:	00a52821 	addu	a1,a1,a1
9d011048:	00ac2821 	addu	a1,a1,t4
9d01104c:	3c010010 	lui	at,0x10
9d011050:	00a1082b 	sltu	at,a1,at
9d011054:	1420fff8 	bnez	at,9d011038 <b10>
9d011058:	00000000 	nop
9d01105c:	1000ffdc 	b	9d010fd0 <Clab1>
9d011060:	00aa2825 	or	a1,a1,t2

9d011064 <Cspec2>:
9d011064:	000542c0 	sll	t0,a1,0xb
9d011068:	00046542 	srl	t4,a0,0x15
9d01106c:	010c4025 	or	t0,t0,t4
9d011070:	00043ac0 	sll	a3,a0,0xb
9d011074:	3c018000 	lui	at,0x8000
9d011078:	01014025 	or	t0,t0,at
9d01107c:	3c018000 	lui	at,0x8000
9d011080:	19200005 	blez	t1,9d011098 <i11>
9d011084:	00a12824 	and	a1,a1,at
9d011088:	3c017ff0 	lui	at,0x7ff0
9d01108c:	00a12825 	or	a1,a1,at
9d011090:	1000ffd9 	b	9d010ff8 <Cret>
9d011094:	24040000 	li	a0,0

9d011098 <i11>:
9d011098:	240a0001 	li	t2,1
9d01109c:	01495023 	subu	t2,t2,t1

9d0110a0 <L13>:
9d0110a0:	2d410020 	sltiu	at,t2,32
9d0110a4:	14200007 	bnez	at,9d0110c4 <L14>
9d0110a8:	00000000 	nop
9d0110ac:	214affe0 	addi	t2,t2,-32
9d0110b0:	0007202b 	sltu	a0,zero,a3
9d0110b4:	1008000d 	beq	zero,t0,9d0110ec <L15>
9d0110b8:	01043825 	or	a3,t0,a0
9d0110bc:	1000fff8 	b	9d0110a0 <L13>
9d0110c0:	34080000 	li	t0,0x0

9d0110c4 <L14>:
9d0110c4:	11400009 	beqz	t2,9d0110ec <L15>
9d0110c8:	00000000 	nop
9d0110cc:	000a5822 	neg	t3,t2
9d0110d0:	01672004 	sllv	a0,a3,t3
9d0110d4:	01685804 	sllv	t3,t0,t3
9d0110d8:	01473806 	srlv	a3,a3,t2
9d0110dc:	01484006 	srlv	t0,t0,t2
9d0110e0:	10800002 	beqz	a0,9d0110ec <L15>
9d0110e4:	01673825 	or	a3,t3,a3
9d0110e8:	34e70002 	ori	a3,a3,0x2

9d0110ec <L15>:
9d0110ec:	24e70400 	addiu	a3,a3,1024
9d0110f0:	2cec0400 	sltiu	t4,a3,1024
9d0110f4:	010c4021 	addu	t0,t0,t4
9d0110f8:	000762c2 	srl	t4,a3,0xb
9d0110fc:	318c0001 	andi	t4,t4,0x1
9d011100:	00ec3823 	subu	a3,a3,t4
9d011104:	000722c2 	srl	a0,a3,0xb
9d011108:	00086540 	sll	t4,t0,0x15
9d01110c:	008c2025 	or	a0,a0,t4
9d011110:	00086040 	sll	t4,t0,0x1
9d011114:	000c6302 	srl	t4,t4,0xc
9d011118:	1000ffb7 	b	9d010ff8 <Cret>
9d01111c:	00ac2825 	or	a1,a1,t4
9d011120:	00000000 	nop

Disassembly of section .text._sbrk_init:

9d011124 <_sbrk_init>:
9d011124:	27bdffd8 	addiu	sp,sp,-40
9d011128:	afb40020 	sw	s4,32(sp)
9d01112c:	3c14a000 	lui	s4,0xa000
9d011130:	8e8223f4 	lw	v0,9204(s4)
9d011134:	afbf0024 	sw	ra,36(sp)
9d011138:	afb3001c 	sw	s3,28(sp)
9d01113c:	afb20018 	sw	s2,24(sp)
9d011140:	afb10014 	sw	s1,20(sp)
9d011144:	1440003a 	bnez	v0,9d011230 <_sbrk_init+0x10c>
9d011148:	afb00010 	sw	s0,16(sp)
9d01114c:	3c12a000 	lui	s2,0xa000
9d011150:	8e5123fc 	lw	s1,9212(s2)
9d011154:	16200003 	bnez	s1,9d011164 <_sbrk_init+0x40>
9d011158:	3c13a000 	lui	s3,0xa000
9d01115c:	3c11a000 	lui	s1,0xa000
9d011160:	26312410 	addiu	s1,s1,9232
9d011164:	8e7023f8 	lw	s0,9208(s3)
9d011168:	16000005 	bnez	s0,9d011180 <_sbrk_init+0x5c>
9d01116c:	3c020000 	lui	v0,0x0
9d011170:	3c10a000 	lui	s0,0xa000
9d011174:	26102410 	addiu	s0,s0,9232
9d011178:	24420000 	addiu	v0,v0,0
9d01117c:	02028021 	addu	s0,s0,v0
9d011180:	00111f82 	srl	v1,s1,0x1e
9d011184:	24020002 	li	v0,2
9d011188:	50620001 	beql	v1,v0,9d011190 <_sbrk_init+0x6c>
9d01118c:	7e31e000 	ext	s1,s1,0x0,0x1d
9d011190:	00101f82 	srl	v1,s0,0x1e
9d011194:	24020002 	li	v0,2
9d011198:	50620001 	beql	v1,v0,9d0111a0 <_sbrk_init+0x7c>
9d01119c:	7e10e000 	ext	s0,s0,0x0,0x1d
9d0111a0:	0f4051b5 	jal	9d0146d4 <_stub_sbd_memlayout>
9d0111a4:	00000000 	nop
9d0111a8:	8c430000 	lw	v1,0(v0)
9d0111ac:	8c420004 	lw	v0,4(v0)
9d0111b0:	0223202b 	sltu	a0,s1,v1
9d0111b4:	14800004 	bnez	a0,9d0111c8 <_sbrk_init+0xa4>
9d0111b8:	00621021 	addu	v0,v1,v0
9d0111bc:	0222202b 	sltu	a0,s1,v0
9d0111c0:	54800029 	bnezl	a0,9d011268 <_sbrk_init+0x144>
9d0111c4:	0211182b 	sltu	v1,s0,s1
9d0111c8:	3c04a000 	lui	a0,0xa000
9d0111cc:	24841ff8 	addiu	a0,a0,8184
9d0111d0:	7c84e000 	ext	a0,a0,0x0,0x1d
9d0111d4:	0064202b 	sltu	a0,v1,a0
9d0111d8:	14800015 	bnez	a0,9d011230 <_sbrk_init+0x10c>
9d0111dc:	0203202b 	sltu	a0,s0,v1
9d0111e0:	14800004 	bnez	a0,9d0111f4 <_sbrk_init+0xd0>
9d0111e4:	0062202b 	sltu	a0,v1,v0
9d0111e8:	0202202b 	sltu	a0,s0,v0
9d0111ec:	14800018 	bnez	a0,9d011250 <_sbrk_init+0x12c>
9d0111f0:	0062202b 	sltu	a0,v1,v0
9d0111f4:	1080000f 	beqz	a0,9d011234 <_sbrk_init+0x110>
9d0111f8:	8fbf0024 	lw	ra,36(sp)
9d0111fc:	3c04a000 	lui	a0,0xa000
9d011200:	24841ff8 	addiu	a0,a0,8184
9d011204:	00042742 	srl	a0,a0,0x1d
9d011208:	24050005 	li	a1,5
9d01120c:	14850012 	bne	a0,a1,9d011258 <_sbrk_init+0x134>
9d011210:	24050004 	li	a1,4
9d011214:	3c04a000 	lui	a0,0xa000
9d011218:	00641825 	or	v1,v1,a0
9d01121c:	00441025 	or	v0,v0,a0
9d011220:	ae4323fc 	sw	v1,9212(s2)
9d011224:	ae6223f8 	sw	v0,9208(s3)
9d011228:	8e4223fc 	lw	v0,9212(s2)
9d01122c:	ae8223f4 	sw	v0,9204(s4)
9d011230:	8fbf0024 	lw	ra,36(sp)
9d011234:	8fb40020 	lw	s4,32(sp)
9d011238:	8fb3001c 	lw	s3,28(sp)
9d01123c:	8fb20018 	lw	s2,24(sp)
9d011240:	8fb10014 	lw	s1,20(sp)
9d011244:	8fb00010 	lw	s0,16(sp)
9d011248:	03e00008 	jr	ra
9d01124c:	27bd0028 	addiu	sp,sp,40
9d011250:	1000ffea 	b	9d0111fc <_sbrk_init+0xd8>
9d011254:	02001025 	move	v0,s0
9d011258:	1085ffef 	beq	a0,a1,9d011218 <_sbrk_init+0xf4>
9d01125c:	3c048000 	lui	a0,0x8000
9d011260:	1000fff1 	b	9d011228 <_sbrk_init+0x104>
9d011264:	ae4223fc 	sw	v0,9212(s2)
9d011268:	1460ffe4 	bnez	v1,9d0111fc <_sbrk_init+0xd8>
9d01126c:	02201825 	move	v1,s1
9d011270:	1000ffde 	b	9d0111ec <_sbrk_init+0xc8>
9d011274:	0202202b 	sltu	a0,s0,v0

Disassembly of section .text.__fmt_d:

9d011278 <__fmt_d>:
9d011278:	27bdffc0 	addiu	sp,sp,-64
9d01127c:	afb1002c 	sw	s1,44(sp)
9d011280:	00808825 	move	s1,a0
9d011284:	00c02025 	move	a0,a2
9d011288:	8c870004 	lw	a3,4(a0)
9d01128c:	8ca20000 	lw	v0,0(a1)
9d011290:	afb40038 	sw	s4,56(sp)
9d011294:	0007a7c2 	srl	s4,a3,0x1f
9d011298:	afb30034 	sw	s3,52(sp)
9d01129c:	afb20030 	sw	s2,48(sp)
9d0112a0:	afb00028 	sw	s0,40(sp)
9d0112a4:	afbf003c 	sw	ra,60(sp)
9d0112a8:	00a08025 	move	s0,a1
9d0112ac:	8ca30004 	lw	v1,4(a1)
9d0112b0:	8cb20008 	lw	s2,8(a1)
9d0112b4:	afa20020 	sw	v0,32(sp)
9d0112b8:	8cb3000c 	lw	s3,12(a1)
9d0112bc:	1280003e 	beqz	s4,9d0113b8 <__fmt_d+0x140>
9d0112c0:	8cc60000 	lw	a2,0(a2)
9d0112c4:	00063023 	negu	a2,a2
9d0112c8:	0006202b 	sltu	a0,zero,a2
9d0112cc:	00073823 	negu	a3,a3
9d0112d0:	04600008 	bltz	v1,9d0112f4 <__fmt_d+0x7c>
9d0112d4:	00e43823 	subu	a3,a3,a0
9d0112d8:	7c020844 	ins	v0,zero,0x1,0x1
9d0112dc:	16800005 	bnez	s4,9d0112f4 <__fmt_d+0x7c>
9d0112e0:	afa20020 	sw	v0,32(sp)
9d0112e4:	8fa20020 	lw	v0,32(sp)
9d0112e8:	30430004 	andi	v1,v0,0x4
9d0112ec:	1060002a 	beqz	v1,9d011398 <__fmt_d+0x120>
9d0112f0:	7c4200c0 	ext	v0,v0,0x3,0x1
9d0112f4:	2642ffff 	addiu	v0,s2,-1
9d0112f8:	27a30020 	addiu	v1,sp,32
9d0112fc:	afa30018 	sw	v1,24(sp)
9d011300:	2403000a 	li	v1,10
9d011304:	afa30014 	sw	v1,20(sp)
9d011308:	afa20010 	sw	v0,16(sp)
9d01130c:	0f4044f2 	jal	9d0113c8 <__cvt_u>
9d011310:	02002025 	move	a0,s0
9d011314:	16800006 	bnez	s4,9d011330 <__fmt_d+0xb8>
9d011318:	2403002d 	li	v1,45
9d01131c:	8fa30020 	lw	v1,32(sp)
9d011320:	30640004 	andi	a0,v1,0x4
9d011324:	1080001e 	beqz	a0,9d0113a0 <__fmt_d+0x128>
9d011328:	30630008 	andi	v1,v1,0x8
9d01132c:	2403002b 	li	v1,43
9d011330:	2442ffff 	addiu	v0,v0,-1
9d011334:	02622021 	addu	a0,s3,v0
9d011338:	a0830000 	sb	v1,0(a0)
9d01133c:	8e060010 	lw	a2,16(s0)
9d011340:	8fa30020 	lw	v1,32(sp)
9d011344:	02403825 	move	a3,s2
9d011348:	24c6ffff 	addiu	a2,a2,-1
9d01134c:	afa30010 	sw	v1,16(sp)
9d011350:	00c23023 	subu	a2,a2,v0
9d011354:	02622821 	addu	a1,s3,v0
9d011358:	0f4047d8 	jal	9d011f60 <__pad>
9d01135c:	02202025 	move	a0,s1
9d011360:	8e230004 	lw	v1,4(s1)
9d011364:	30630100 	andi	v1,v1,0x100
9d011368:	10600004 	beqz	v1,9d01137c <__fmt_d+0x104>
9d01136c:	8fbf003c 	lw	ra,60(sp)
9d011370:	8e030004 	lw	v1,4(s0)
9d011374:	0043202a 	slt	a0,v0,v1
9d011378:	0064100b 	movn	v0,v1,a0
9d01137c:	8fb40038 	lw	s4,56(sp)
9d011380:	8fb30034 	lw	s3,52(sp)
9d011384:	8fb20030 	lw	s2,48(sp)
9d011388:	8fb1002c 	lw	s1,44(sp)
9d01138c:	8fb00028 	lw	s0,40(sp)
9d011390:	03e00008 	jr	ra
9d011394:	27bd0040 	addiu	sp,sp,64
9d011398:	1000ffd7 	b	9d0112f8 <__fmt_d+0x80>
9d01139c:	02421023 	subu	v0,s2,v0
9d0113a0:	1060ffe6 	beqz	v1,9d01133c <__fmt_d+0xc4>
9d0113a4:	24040020 	li	a0,32
9d0113a8:	2442ffff 	addiu	v0,v0,-1
9d0113ac:	02621821 	addu	v1,s3,v0
9d0113b0:	1000ffe2 	b	9d01133c <__fmt_d+0xc4>
9d0113b4:	a0640000 	sb	a0,0(v1)
9d0113b8:	0463ffc8 	bgezl	v1,9d0112dc <__fmt_d+0x64>
9d0113bc:	7c020844 	ins	v0,zero,0x1,0x1
9d0113c0:	1000ffc9 	b	9d0112e8 <__fmt_d+0x70>
9d0113c4:	8fa20020 	lw	v0,32(sp)

Disassembly of section .text.__cvt_u:

9d0113c8 <__cvt_u>:
9d0113c8:	8c820004 	lw	v0,4(a0)
9d0113cc:	27bdffc0 	addiu	sp,sp,-64
9d0113d0:	afbe0038 	sw	s8,56(sp)
9d0113d4:	afb40028 	sw	s4,40(sp)
9d0113d8:	afb20020 	sw	s2,32(sp)
9d0113dc:	afb1001c 	sw	s1,28(sp)
9d0113e0:	afbf003c 	sw	ra,60(sp)
9d0113e4:	afb70034 	sw	s7,52(sp)
9d0113e8:	afb60030 	sw	s6,48(sp)
9d0113ec:	afb5002c 	sw	s5,44(sp)
9d0113f0:	afb30024 	sw	s3,36(sp)
9d0113f4:	afb00018 	sw	s0,24(sp)
9d0113f8:	00c08825 	move	s1,a2
9d0113fc:	00e09025 	move	s2,a3
9d011400:	8fb40054 	lw	s4,84(sp)
9d011404:	04410002 	bgez	v0,9d011410 <__cvt_u+0x48>
9d011408:	8fbe0058 	lw	s8,88(sp)
9d01140c:	24020001 	li	v0,1
9d011410:	8c900010 	lw	s0,16(a0)
9d011414:	8c95000c 	lw	s5,12(a0)
9d011418:	8fd70000 	lw	s7,0(s8)
9d01141c:	8fb30050 	lw	s3,80(sp)
9d011420:	2610ffff 	addiu	s0,s0,-1
9d011424:	02b01821 	addu	v1,s5,s0
9d011428:	a0600000 	sb	zero,0(v1)
9d01142c:	24090001 	li	t1,1
9d011430:	00534023 	subu	t0,v0,s3
9d011434:	32f70002 	andi	s7,s7,0x2
9d011438:	0014b7c3 	sra	s6,s4,0x1f
9d01143c:	1e000010 	bgtz	s0,9d011480 <__cvt_u+0xb8>
9d011440:	02321025 	or	v0,s1,s2
9d011444:	5120002c 	beqzl	t1,9d0114f8 <__cvt_u+0x130>
9d011448:	8fc20000 	lw	v0,0(s8)
9d01144c:	8fbf003c 	lw	ra,60(sp)
9d011450:	02001025 	move	v0,s0
9d011454:	8fbe0038 	lw	s8,56(sp)
9d011458:	8fb70034 	lw	s7,52(sp)
9d01145c:	8fb60030 	lw	s6,48(sp)
9d011460:	8fb5002c 	lw	s5,44(sp)
9d011464:	8fb40028 	lw	s4,40(sp)
9d011468:	8fb30024 	lw	s3,36(sp)
9d01146c:	8fb20020 	lw	s2,32(sp)
9d011470:	8fb1001c 	lw	s1,28(sp)
9d011474:	8fb00018 	lw	s0,24(sp)
9d011478:	03e00008 	jr	ra
9d01147c:	27bd0040 	addiu	sp,sp,64
9d011480:	14400007 	bnez	v0,9d0114a0 <__cvt_u+0xd8>
9d011484:	01131021 	addu	v0,t0,s3
9d011488:	1c400006 	bgtz	v0,9d0114a4 <__cvt_u+0xdc>
9d01148c:	02202025 	move	a0,s1
9d011490:	1a60ffec 	blez	s3,9d011444 <__cvt_u+0x7c>
9d011494:	00000000 	nop
9d011498:	12e0ffea 	beqz	s7,9d011444 <__cvt_u+0x7c>
9d01149c:	00000000 	nop
9d0114a0:	02202025 	move	a0,s1
9d0114a4:	02402825 	move	a1,s2
9d0114a8:	02803025 	move	a2,s4
9d0114ac:	02c03825 	move	a3,s6
9d0114b0:	afa80014 	sw	t0,20(sp)
9d0114b4:	0f403c1d 	jal	9d00f074 <__umoddi3>
9d0114b8:	2610ffff 	addiu	s0,s0,-1
9d0114bc:	afa20010 	sw	v0,16(sp)
9d0114c0:	02b01821 	addu	v1,s5,s0
9d0114c4:	24420030 	addiu	v0,v0,48
9d0114c8:	02202025 	move	a0,s1
9d0114cc:	02402825 	move	a1,s2
9d0114d0:	a0620000 	sb	v0,0(v1)
9d0114d4:	02803025 	move	a2,s4
9d0114d8:	0f403b2e 	jal	9d00ecb8 <__udivdi3>
9d0114dc:	02c03825 	move	a3,s6
9d0114e0:	2673ffff 	addiu	s3,s3,-1
9d0114e4:	00408825 	move	s1,v0
9d0114e8:	00609025 	move	s2,v1
9d0114ec:	8fa80014 	lw	t0,20(sp)
9d0114f0:	1000ffd2 	b	9d01143c <__cvt_u+0x74>
9d0114f4:	8fa90010 	lw	t1,16(sp)
9d0114f8:	7c022104 	ins	v0,zero,0x4,0x1
9d0114fc:	1000ffd3 	b	9d01144c <__cvt_u+0x84>
9d011500:	afc20000 	sw	v0,0(s8)

Disassembly of section .text.__read_int:

9d011504 <__read_int>:
9d011504:	27bdffd0 	addiu	sp,sp,-48
9d011508:	afb50028 	sw	s5,40(sp)
9d01150c:	8cb50008 	lw	s5,8(a1)
9d011510:	afb40024 	sw	s4,36(sp)
9d011514:	afb30020 	sw	s3,32(sp)
9d011518:	afb2001c 	sw	s2,28(sp)
9d01151c:	afb10018 	sw	s1,24(sp)
9d011520:	afbf002c 	sw	ra,44(sp)
9d011524:	afb00014 	sw	s0,20(sp)
9d011528:	00808825 	move	s1,a0
9d01152c:	00c09025 	move	s2,a2
9d011530:	8cb40010 	lw	s4,16(a1)
9d011534:	0f404b54 	jal	9d012d50 <__skipws>
9d011538:	8cb3000c 	lw	s3,12(a1)
9d01153c:	52a00001 	beqzl	s5,9d011544 <__read_int+0x40>
9d011540:	2695ffff 	addiu	s5,s4,-1
9d011544:	8e430000 	lw	v1,0(s2)
9d011548:	00008025 	move	s0,zero
9d01154c:	00621821 	addu	v1,v1,v0
9d011550:	ae430000 	sw	v1,0(s2)
9d011554:	0215102a 	slt	v0,s0,s5
9d011558:	1040001d 	beqz	v0,9d0115d0 <__read_int+0xcc>
9d01155c:	2682ffff 	addiu	v0,s4,-1
9d011560:	0202102a 	slt	v0,s0,v0
9d011564:	5040001b 	beqzl	v0,9d0115d4 <__read_int+0xd0>
9d011568:	02708021 	addu	s0,s3,s0
9d01156c:	8e22003c 	lw	v0,60(s1)
9d011570:	8e23004c 	lw	v1,76(s1)
9d011574:	0043182b 	sltu	v1,v0,v1
9d011578:	1060000e 	beqz	v1,9d0115b4 <__read_int+0xb0>
9d01157c:	24430001 	addiu	v1,v0,1
9d011580:	ae23003c 	sw	v1,60(s1)
9d011584:	90420000 	lbu	v0,0(v0)
9d011588:	2443ffd5 	addiu	v1,v0,-43
9d01158c:	7c030844 	ins	v1,zero,0x1,0x1
9d011590:	00701825 	or	v1,v1,s0
9d011594:	1460001a 	bnez	v1,9d011600 <__read_int+0xfc>
9d011598:	2443ffd0 	addiu	v1,v0,-48
9d01159c:	a2620000 	sb	v0,0(s3)
9d0115a0:	8e420000 	lw	v0,0(s2)
9d0115a4:	24100001 	li	s0,1
9d0115a8:	24420001 	addiu	v0,v0,1
9d0115ac:	1000ffe9 	b	9d011554 <__read_int+0x50>
9d0115b0:	ae420000 	sw	v0,0(s2)
9d0115b4:	0f404a27 	jal	9d01289c <__shgetc>
9d0115b8:	02202025 	move	a0,s1
9d0115bc:	2403ffff 	li	v1,-1
9d0115c0:	5443fff2 	bnel	v0,v1,9d01158c <__read_int+0x88>
9d0115c4:	2443ffd5 	addiu	v1,v0,-43
9d0115c8:	12000005 	beqz	s0,9d0115e0 <__read_int+0xdc>
9d0115cc:	8fbf002c 	lw	ra,44(sp)
9d0115d0:	02708021 	addu	s0,s3,s0
9d0115d4:	a2000000 	sb	zero,0(s0)
9d0115d8:	00001025 	move	v0,zero
9d0115dc:	8fbf002c 	lw	ra,44(sp)
9d0115e0:	8fb50028 	lw	s5,40(sp)
9d0115e4:	8fb40024 	lw	s4,36(sp)
9d0115e8:	8fb30020 	lw	s3,32(sp)
9d0115ec:	8fb2001c 	lw	s2,28(sp)
9d0115f0:	8fb10018 	lw	s1,24(sp)
9d0115f4:	8fb00014 	lw	s0,20(sp)
9d0115f8:	03e00008 	jr	ra
9d0115fc:	27bd0030 	addiu	sp,sp,48
9d011600:	2c63000a 	sltiu	v1,v1,10
9d011604:	54600008 	bnezl	v1,9d011628 <__read_int+0x124>
9d011608:	02701821 	addu	v1,s3,s0
9d01160c:	8e22004c 	lw	v0,76(s1)
9d011610:	5040fff0 	beqzl	v0,9d0115d4 <__read_int+0xd0>
9d011614:	02708021 	addu	s0,s3,s0
9d011618:	8e22003c 	lw	v0,60(s1)
9d01161c:	2442ffff 	addiu	v0,v0,-1
9d011620:	1000ffeb 	b	9d0115d0 <__read_int+0xcc>
9d011624:	ae22003c 	sw	v0,60(s1)
9d011628:	a0620000 	sb	v0,0(v1)
9d01162c:	8e420000 	lw	v0,0(s2)
9d011630:	26100001 	addiu	s0,s0,1
9d011634:	24420001 	addiu	v0,v0,1
9d011638:	1000ffc6 	b	9d011554 <__read_int+0x50>
9d01163c:	ae420000 	sw	v0,0(s2)

Disassembly of section .text.read:

9d011640 <read>:
9d011640:	50a0004a 	beqzl	a1,9d01176c <read+0x12c>
9d011644:	00002025 	move	a0,zero
9d011648:	50c00048 	beqzl	a2,9d01176c <read+0x12c>
9d01164c:	00002025 	move	a0,zero
9d011650:	27bdffe0 	addiu	sp,sp,-32
9d011654:	afb10014 	sw	s1,20(sp)
9d011658:	afbf001c 	sw	ra,28(sp)
9d01165c:	afb20018 	sw	s2,24(sp)
9d011660:	afb00010 	sw	s0,16(sp)
9d011664:	1480000b 	bnez	a0,9d011694 <read+0x54>
9d011668:	00c08825 	move	s1,a2
9d01166c:	3c020000 	lui	v0,0x0
9d011670:	24420000 	addiu	v0,v0,0
9d011674:	1040000f 	beqz	v0,9d0116b4 <read+0x74>
9d011678:	00a08025 	move	s0,a1
9d01167c:	00a69021 	addu	s2,a1,a2
9d011680:	0c000000 	jal	90000000 <_bmxdudba_address+0x8fff0000>
9d011684:	24040001 	li	a0,1
9d011688:	26100001 	addiu	s0,s0,1
9d01168c:	1650fffc 	bne	s2,s0,9d011680 <read+0x40>
9d011690:	a202ffff 	sb	v0,-1(s0)
9d011694:	02202025 	move	a0,s1
9d011698:	8fbf001c 	lw	ra,28(sp)
9d01169c:	00801025 	move	v0,a0
9d0116a0:	8fb20018 	lw	s2,24(sp)
9d0116a4:	8fb10014 	lw	s1,20(sp)
9d0116a8:	8fb00010 	lw	s0,16(sp)
9d0116ac:	03e00008 	jr	ra
9d0116b0:	27bd0020 	addiu	sp,sp,32
9d0116b4:	3c03bf80 	lui	v1,0xbf80
9d0116b8:	24626010 	addiu	v0,v1,24592
9d0116bc:	1040fff6 	beqz	v0,9d011698 <read+0x58>
9d0116c0:	3c03a000 	lui	v1,0xa000
9d0116c4:	8c640010 	lw	a0,16(v1)
9d0116c8:	24030002 	li	v1,2
9d0116cc:	1083001d 	beq	a0,v1,9d011744 <read+0x104>
9d0116d0:	3c03bf80 	lui	v1,0xbf80
9d0116d4:	3c03bf80 	lui	v1,0xbf80
9d0116d8:	8c646000 	lw	a0,24576(v1)
9d0116dc:	3c03bf80 	lui	v1,0xbf80
9d0116e0:	24636030 	addiu	v1,v1,24624
9d0116e4:	30848000 	andi	a0,a0,0x8000
9d0116e8:	14800003 	bnez	a0,9d0116f8 <read+0xb8>
9d0116ec:	3c04bf80 	lui	a0,0xbf80
9d0116f0:	34058000 	li	a1,0x8000
9d0116f4:	ac856008 	sw	a1,24584(a0)
9d0116f8:	02202025 	move	a0,s1
9d0116fc:	240500a1 	li	a1,161
9d011700:	8c460000 	lw	a2,0(v0)
9d011704:	30c60001 	andi	a2,a2,0x1
9d011708:	14c00003 	bnez	a2,9d011718 <read+0xd8>
9d01170c:	24a5ffff 	addiu	a1,a1,-1
9d011710:	14a0fffb 	bnez	a1,9d011700 <read+0xc0>
9d011714:	00000000 	nop
9d011718:	8c450000 	lw	a1,0(v0)
9d01171c:	30a50001 	andi	a1,a1,0x1
9d011720:	54a0ffdc 	bnezl	a1,9d011694 <read+0x54>
9d011724:	02248823 	subu	s1,s1,a0
9d011728:	8c650000 	lw	a1,0(v1)
9d01172c:	26100001 	addiu	s0,s0,1
9d011730:	2484ffff 	addiu	a0,a0,-1
9d011734:	1480fff1 	bnez	a0,9d0116fc <read+0xbc>
9d011738:	a205ffff 	sb	a1,-1(s0)
9d01173c:	1000ffd5 	b	9d011694 <read+0x54>
9d011740:	02248823 	subu	s1,s1,a0
9d011744:	24636240 	addiu	v1,v1,25152
9d011748:	5060ffe3 	beqzl	v1,9d0116d8 <read+0x98>
9d01174c:	3c03bf80 	lui	v1,0xbf80
9d011750:	3c02bf80 	lui	v0,0xbf80
9d011754:	8c446200 	lw	a0,25088(v0)
9d011758:	3c03bf80 	lui	v1,0xbf80
9d01175c:	3c02bf80 	lui	v0,0xbf80
9d011760:	24636230 	addiu	v1,v1,25136
9d011764:	1000ffdf 	b	9d0116e4 <read+0xa4>
9d011768:	24426210 	addiu	v0,v0,25104
9d01176c:	03e00008 	jr	ra
9d011770:	00801025 	move	v0,a0

Disassembly of section .rodata:

9d011778 <.rodata>:
9d011778:	00000061 	0x61
9d01177c:	00000062 	0x62
9d011780:	706d6f43 	0x706d6f43
9d011784:	6574656c 	0x6574656c
9d011788:	72742064 	0x72742064
9d01178c:	63656a61 	0x63656a61
9d011790:	79726f74 	0x79726f74
9d011794:	7274202c 	0x7274202c
9d011798:	63656a61 	0x63656a61
9d01179c:	79726f74 	0x79726f74
9d0117a0:	646e695f 	0x646e695f
9d0117a4:	72207865 	0x72207865
9d0117a8:	74657365 	jalx	9195cd94 <_bmxdudba_address+0x9194cd94>
9d0117ac:	656e202c 	0x656e202c
9d0117b0:	6f6d2077 	0x6f6d2077
9d0117b4:	203a6564 	addi	k0,at,25956
9d0117b8:	0d0a6425 	jal	94299094 <_bmxdudba_address+0x94289094>
9d0117bc:	00000000 	nop
9d0117c0:	0d756825 	jal	95d5a094 <_bmxdudba_address+0x95d4a094>
9d0117c4:	0000000a 	movz	zero,zero,zero
9d0117c8:	0a0d6625 	j	98359894 <_bmxdudba_address+0x98349894>
9d0117cc:	00000000 	nop
9d0117d0:	0a0d6425 	j	98359094 <_bmxdudba_address+0x98349094>
9d0117d4:	00000000 	nop
9d0117d8:	00006425 	0x6425
9d0117dc:	25206625 	addiu	zero,t1,26149
9d0117e0:	00000066 	0x66
9d0117e4:	25206625 	addiu	zero,t1,26149
9d0117e8:	000a0d66 	0xa0d66
9d0117ec:	25206625 	addiu	zero,t1,26149
9d0117f0:	66252066 	0x66252066
9d0117f4:	00000000 	nop
9d0117f8:	25206625 	addiu	zero,t1,26149
9d0117fc:	66252066 	0x66252066
9d011800:	00000a0d 	break	0x0,0x28
9d011804:	00006625 	0x6625
9d011808:	65646f4d 	0x65646f4d
9d01180c:	4f48203a 	c3	0x148203a
9d011810:	202c444c 	addi	t4,at,17484
9d011814:	67726154 	0x67726154
9d011818:	41207465 	0x41207465
9d01181c:	656c676e 	0x656c676e
9d011820:	2e25203a 	sltiu	a1,s1,8250
9d011824:	64206632 	0x64206632
9d011828:	000a6765 	0xa6765
9d01182c:	4f525245 	c3	0x1525245
9d011830:	54203a52 	bnezl	at,9d02017c <getpagesize+0xb57c>
9d011834:	656a6172 	0x656a6172
9d011838:	726f7463 	0x726f7463
9d01183c:	6f742079 	0x6f742079
9d011840:	6f6c206f 	0x6f6c206f
9d011844:	0d2e676e 	jal	94b99db8 <_bmxdudba_address+0x94b89db8>
9d011848:	0000000a 	movz	zero,zero,zero
9d01184c:	454c4449 	bc1any4f	$fcc3,9d022974 <getpagesize+0xdd74>
9d011850:	0000000a 	movz	zero,zero,zero
9d011854:	0a4d5750 	j	99355d40 <_bmxdudba_address+0x99345d40>
9d011858:	00000000 	nop
9d01185c:	53455449 	beql	k0,a1,9d026984 <getpagesize+0x11d84>
9d011860:	00000a54 	0xa54
9d011864:	444c4f48 	0x444c4f48
9d011868:	0000000a 	movz	zero,zero,zero
9d01186c:	43415254 	c0	0x1415254
9d011870:	00000a4b 	0xa4b
9d011874:	000a6425 	0xa6425
9d011878:	25206425 	addiu	zero,t1,25637
9d01187c:	00000a64 	0xa64
9d011880:	00000000 	nop
9d011884:	40590000 	cfc0	t9,c0_index
9d011888:	42c80000 	c0	0xc80000
9d01188c:	c2c80000 	ll	t0,0(s6)
9d011890:	00000000 	nop
9d011894:	4094e000 	mtc0	s4,c0_taglo
9d011898:	00000000 	nop
9d01189c:	40768000 	0x40768000
9d0118a0:	43fa0000 	c0	0x1fa0000
9d0118a4:	00000000 	nop

Disassembly of section .text.dpcmp:

9d0118a8 <__eqdf2>:
9d0118a8:	2409fffe 00055040 00075840 01645825     ...$@P..@X..%Xd.
9d0118b8:	01665825 014b5025 15400003 00000000     %Xf.%PK...@.....
9d0118c8:	1000003c 24020000                       <......$

9d0118d0 <i56>:
9d0118d0:	10800002 	beqz	a0,9d0118dc <i57>
9d0118d4:	00054040 	sll	t0,a1,0x1
9d0118d8:	25080001 	addiu	t0,t0,1

9d0118dc <i57>:
9d0118dc:	3c01ffe0 	lui	at,0xffe0
9d0118e0:	34210001 	ori	at,at,0x1
9d0118e4:	0101082b 	sltu	at,t0,at
9d0118e8:	10200037 	beqz	at,9d0119c8 <Lnan>
9d0118ec:	00000000 	nop
9d0118f0:	10c00002 	beqz	a2,9d0118fc <i58>
9d0118f4:	00074040 	sll	t0,a3,0x1
9d0118f8:	25080001 	addiu	t0,t0,1

9d0118fc <i58>:
9d0118fc:	3c01ffe0 	lui	at,0xffe0
9d011900:	34210001 	ori	at,at,0x1
9d011904:	0101082b 	sltu	at,t0,at
9d011908:	1020002f 	beqz	at,9d0119c8 <Lnan>
9d01190c:	00000000 	nop
9d011910:	04a10016 	bgez	a1,9d01196c <i59>
9d011914:	00000000 	nop
9d011918:	04e00003 	bltz	a3,9d011928 <i60>
9d01191c:	00000000 	nop
9d011920:	10000026 	b	9d0119bc <L999>
9d011924:	2402ffff 	li	v0,-1

9d011928 <i60>:
9d011928:	0086502b 	sltu	t2,a0,a2
9d01192c:	00862023 	subu	a0,a0,a2
9d011930:	00aa582b 	sltu	t3,a1,t2
9d011934:	00aa2823 	subu	a1,a1,t2
9d011938:	00a7502b 	sltu	t2,a1,a3
9d01193c:	014b5025 	or	t2,t2,t3
9d011940:	11400003 	beqz	t2,9d011950 <i61>
9d011944:	00a72823 	subu	a1,a1,a3
9d011948:	1000001c 	b	9d0119bc <L999>
9d01194c:	24020001 	li	v0,1

9d011950 <i61>:
9d011950:	00a45025 	or	t2,a1,a0
9d011954:	11400003 	beqz	t2,9d011964 <i62>
9d011958:	00000000 	nop
9d01195c:	10000017 	b	9d0119bc <L999>
9d011960:	2402ffff 	li	v0,-1

9d011964 <i62>:
9d011964:	10000015 	b	9d0119bc <L999>
9d011968:	24020000 	li	v0,0

9d01196c <i59>:
9d01196c:	04e10003 	bgez	a3,9d01197c <i63>
9d011970:	00000000 	nop
9d011974:	10000011 	b	9d0119bc <L999>
9d011978:	24020001 	li	v0,1

9d01197c <i63>:
9d01197c:	0086502b 	sltu	t2,a0,a2
9d011980:	00862023 	subu	a0,a0,a2
9d011984:	00aa582b 	sltu	t3,a1,t2
9d011988:	00aa2823 	subu	a1,a1,t2
9d01198c:	00a7502b 	sltu	t2,a1,a3
9d011990:	014b5025 	or	t2,t2,t3
9d011994:	11400003 	beqz	t2,9d0119a4 <i64>
9d011998:	00a72823 	subu	a1,a1,a3
9d01199c:	10000007 	b	9d0119bc <L999>
9d0119a0:	2402ffff 	li	v0,-1

9d0119a4 <i64>:
9d0119a4:	00a45025 	or	t2,a1,a0
9d0119a8:	11400003 	beqz	t2,9d0119b8 <i65>
9d0119ac:	00000000 	nop
9d0119b0:	10000002 	b	9d0119bc <L999>
9d0119b4:	24020001 	li	v0,1

9d0119b8 <i65>:
9d0119b8:	24020000 	li	v0,0

9d0119bc <L999>:
9d0119bc:	03e00008 	jr	ra
9d0119c0:	00000000 	nop
9d0119c4:	00000000 	nop

9d0119c8 <Lnan>:
9d0119c8:	1000fffc 	b	9d0119bc <L999>
9d0119cc:	00091025 	or	v0,zero,t1
9d0119d0:	00000000 	nop

Disassembly of section .text.dfcmplt:

9d0119d4 <dpcmplt>:
9d0119d4:	2409fffe 	li	t1,-2
9d0119d8:	00055040 	sll	t2,a1,0x1
9d0119dc:	00075840 	sll	t3,a3,0x1
9d0119e0:	01645825 	or	t3,t3,a0
9d0119e4:	01665825 	or	t3,t3,a2
9d0119e8:	014b5025 	or	t2,t2,t3
9d0119ec:	15400003 	bnez	t2,9d0119fc <dpcmplt+0x28>
9d0119f0:	00000000 	nop
9d0119f4:	1000003c 	b	9d011ae8 <dpcmplt+0x114>
9d0119f8:	24020000 	li	v0,0
9d0119fc:	10800002 	beqz	a0,9d011a08 <dpcmplt+0x34>
9d011a00:	00054040 	sll	t0,a1,0x1
9d011a04:	25080001 	addiu	t0,t0,1
9d011a08:	3c01ffe0 	lui	at,0xffe0
9d011a0c:	34210001 	ori	at,at,0x1
9d011a10:	0101082b 	sltu	at,t0,at
9d011a14:	10200037 	beqz	at,9d011af4 <dpcmplt+0x120>
9d011a18:	00000000 	nop
9d011a1c:	10c00002 	beqz	a2,9d011a28 <dpcmplt+0x54>
9d011a20:	00074040 	sll	t0,a3,0x1
9d011a24:	25080001 	addiu	t0,t0,1
9d011a28:	3c01ffe0 	lui	at,0xffe0
9d011a2c:	34210001 	ori	at,at,0x1
9d011a30:	0101082b 	sltu	at,t0,at
9d011a34:	1020002f 	beqz	at,9d011af4 <dpcmplt+0x120>
9d011a38:	00000000 	nop
9d011a3c:	04a10016 	bgez	a1,9d011a98 <dpcmplt+0xc4>
9d011a40:	00000000 	nop
9d011a44:	04e00003 	bltz	a3,9d011a54 <dpcmplt+0x80>
9d011a48:	00000000 	nop
9d011a4c:	10000026 	b	9d011ae8 <dpcmplt+0x114>
9d011a50:	2402ffff 	li	v0,-1
9d011a54:	0086502b 	sltu	t2,a0,a2
9d011a58:	00862023 	subu	a0,a0,a2
9d011a5c:	00aa582b 	sltu	t3,a1,t2
9d011a60:	00aa2823 	subu	a1,a1,t2
9d011a64:	00a7502b 	sltu	t2,a1,a3
9d011a68:	014b5025 	or	t2,t2,t3
9d011a6c:	11400003 	beqz	t2,9d011a7c <dpcmplt+0xa8>
9d011a70:	00a72823 	subu	a1,a1,a3
9d011a74:	1000001c 	b	9d011ae8 <dpcmplt+0x114>
9d011a78:	24020001 	li	v0,1
9d011a7c:	00a45025 	or	t2,a1,a0
9d011a80:	11400003 	beqz	t2,9d011a90 <dpcmplt+0xbc>
9d011a84:	00000000 	nop
9d011a88:	10000017 	b	9d011ae8 <dpcmplt+0x114>
9d011a8c:	2402ffff 	li	v0,-1
9d011a90:	10000015 	b	9d011ae8 <dpcmplt+0x114>
9d011a94:	24020000 	li	v0,0
9d011a98:	04e10003 	bgez	a3,9d011aa8 <dpcmplt+0xd4>
9d011a9c:	00000000 	nop
9d011aa0:	10000011 	b	9d011ae8 <dpcmplt+0x114>
9d011aa4:	24020001 	li	v0,1
9d011aa8:	0086502b 	sltu	t2,a0,a2
9d011aac:	00862023 	subu	a0,a0,a2
9d011ab0:	00aa582b 	sltu	t3,a1,t2
9d011ab4:	00aa2823 	subu	a1,a1,t2
9d011ab8:	00a7502b 	sltu	t2,a1,a3
9d011abc:	014b5025 	or	t2,t2,t3
9d011ac0:	11400003 	beqz	t2,9d011ad0 <dpcmplt+0xfc>
9d011ac4:	00a72823 	subu	a1,a1,a3
9d011ac8:	10000007 	b	9d011ae8 <dpcmplt+0x114>
9d011acc:	2402ffff 	li	v0,-1
9d011ad0:	00a45025 	or	t2,a1,a0
9d011ad4:	11400003 	beqz	t2,9d011ae4 <dpcmplt+0x110>
9d011ad8:	00000000 	nop
9d011adc:	10000002 	b	9d011ae8 <dpcmplt+0x114>
9d011ae0:	24020001 	li	v0,1
9d011ae4:	24020000 	li	v0,0
9d011ae8:	03e00008 	jr	ra
9d011aec:	00000000 	nop
9d011af0:	00000000 	nop
9d011af4:	1000fffc 	b	9d011ae8 <dpcmplt+0x114>
9d011af8:	34020001 	li	v0,0x1
9d011afc:	00000000 	nop

Disassembly of section .text._mon_putc:

9d011b00 <_mon_putc>:
9d011b00:	3c02a000 	lui	v0,0xa000
9d011b04:	8c430010 	lw	v1,16(v0)
9d011b08:	14600013 	bnez	v1,9d011b58 <_mon_putc+0x58>
9d011b0c:	00803025 	move	a2,a0
9d011b10:	3c020000 	lui	v0,0x0
9d011b14:	27bdffe8 	addiu	sp,sp,-24
9d011b18:	24420000 	addiu	v0,v0,0
9d011b1c:	10400006 	beqz	v0,9d011b38 <_mon_putc+0x38>
9d011b20:	afbf0014 	sw	ra,20(sp)
9d011b24:	0c000000 	jal	90000000 <_bmxdudba_address+0x8fff0000>
9d011b28:	00000000 	nop
9d011b2c:	8fbf0014 	lw	ra,20(sp)
9d011b30:	03e00008 	jr	ra
9d011b34:	27bd0018 	addiu	sp,sp,24
9d011b38:	3c020000 	lui	v0,0x0
9d011b3c:	24420000 	addiu	v0,v0,0
9d011b40:	10400025 	beqz	v0,9d011bd8 <_mon_putc+0xd8>
9d011b44:	3c05bf80 	lui	a1,0xbf80
9d011b48:	0c000000 	jal	90000000 <_bmxdudba_address+0x8fff0000>
9d011b4c:	00000000 	nop
9d011b50:	1000fff7 	b	9d011b30 <_mon_putc+0x30>
9d011b54:	8fbf0014 	lw	ra,20(sp)
9d011b58:	3c02bf80 	lui	v0,0xbf80
9d011b5c:	24426010 	addiu	v0,v0,24592
9d011b60:	1040002f 	beqz	v0,9d011c20 <_mon_putc+0x120>
9d011b64:	00000000 	nop
9d011b68:	24040001 	li	a0,1
9d011b6c:	14640012 	bne	v1,a0,9d011bb8 <_mon_putc+0xb8>
9d011b70:	3c03bf80 	lui	v1,0xbf80
9d011b74:	3c03bf80 	lui	v1,0xbf80
9d011b78:	3c04bf80 	lui	a0,0xbf80
9d011b7c:	3c05bf80 	lui	a1,0xbf80
9d011b80:	24636020 	addiu	v1,v1,24608
9d011b84:	24846018 	addiu	a0,a0,24600
9d011b88:	24a56008 	addiu	a1,a1,24584
9d011b8c:	34078000 	li	a3,0x8000
9d011b90:	aca70000 	sw	a3,0(a1)
9d011b94:	24050400 	li	a1,1024
9d011b98:	ac850000 	sw	a1,0(a0)
9d011b9c:	8c440000 	lw	a0,0(v0)
9d011ba0:	30840100 	andi	a0,a0,0x100
9d011ba4:	1080fffd 	beqz	a0,9d011b9c <_mon_putc+0x9c>
9d011ba8:	00000000 	nop
9d011bac:	ac660000 	sw	a2,0(v1)
9d011bb0:	03e00008 	jr	ra
9d011bb4:	00000000 	nop
9d011bb8:	3c04bf80 	lui	a0,0xbf80
9d011bbc:	3c05bf80 	lui	a1,0xbf80
9d011bc0:	3c02bf80 	lui	v0,0xbf80
9d011bc4:	24636220 	addiu	v1,v1,25120
9d011bc8:	24846218 	addiu	a0,a0,25112
9d011bcc:	24a56208 	addiu	a1,a1,25096
9d011bd0:	1000ffee 	b	9d011b8c <_mon_putc+0x8c>
9d011bd4:	24426210 	addiu	v0,v0,25104
9d011bd8:	24a56208 	addiu	a1,a1,25096
9d011bdc:	3c04bf80 	lui	a0,0xbf80
9d011be0:	34078000 	li	a3,0x8000
9d011be4:	aca70000 	sw	a3,0(a1)
9d011be8:	3c03bf80 	lui	v1,0xbf80
9d011bec:	24846218 	addiu	a0,a0,25112
9d011bf0:	3c02bf80 	lui	v0,0xbf80
9d011bf4:	24050400 	li	a1,1024
9d011bf8:	24636220 	addiu	v1,v1,25120
9d011bfc:	24426210 	addiu	v0,v0,25104
9d011c00:	ac850000 	sw	a1,0(a0)
9d011c04:	8c440000 	lw	a0,0(v0)
9d011c08:	30840100 	andi	a0,a0,0x100
9d011c0c:	1080fffd 	beqz	a0,9d011c04 <_mon_putc+0x104>
9d011c10:	00000000 	nop
9d011c14:	ac660000 	sw	a2,0(v1)
9d011c18:	1000ffc5 	b	9d011b30 <_mon_putc+0x30>
9d011c1c:	8fbf0014 	lw	ra,20(sp)
9d011c20:	03e00008 	jr	ra
9d011c24:	00000000 	nop

Disassembly of section .text.logbl:

9d011c28 <logbl>:
9d011c28:	27bdffe0 	addiu	sp,sp,-32
9d011c2c:	afa50024 	sw	a1,36(sp)
9d011c30:	afb20018 	sw	s2,24(sp)
9d011c34:	87b20026 	lh	s2,38(sp)
9d011c38:	24037ff0 	li	v1,32752
9d011c3c:	afbf001c 	sw	ra,28(sp)
9d011c40:	32427ff0 	andi	v0,s2,0x7ff0
9d011c44:	afb10014 	sw	s1,20(sp)
9d011c48:	afb00010 	sw	s0,16(sp)
9d011c4c:	10430021 	beq	v0,v1,9d011cd4 <logbl+0xac>
9d011c50:	afa40020 	sw	a0,32(sp)
9d011c54:	14400012 	bnez	v0,9d011ca0 <logbl+0x78>
9d011c58:	00003025 	move	a2,zero
9d011c5c:	0f40462a 	jal	9d0118a8 <__eqdf2>
9d011c60:	00003825 	move	a3,zero
9d011c64:	1440002e 	bnez	v0,9d011d20 <logbl+0xf8>
9d011c68:	3c029d00 	lui	v0,0x9d00
9d011c6c:	3c02a000 	lui	v0,0xa000
9d011c70:	24030021 	li	v1,33
9d011c74:	00008025 	move	s0,zero
9d011c78:	3c11ffc0 	lui	s1,0xffc0
9d011c7c:	ac432404 	sw	v1,9220(v0)
9d011c80:	8fbf001c 	lw	ra,28(sp)
9d011c84:	02001025 	move	v0,s0
9d011c88:	02201825 	move	v1,s1
9d011c8c:	8fb20018 	lw	s2,24(sp)
9d011c90:	8fb10014 	lw	s1,20(sp)
9d011c94:	8fb00010 	lw	s0,16(sp)
9d011c98:	03e00008 	jr	ra
9d011c9c:	27bd0020 	addiu	sp,sp,32
9d011ca0:	00022103 	sra	a0,v0,0x4
9d011ca4:	0f404e18 	jal	9d013860 <__floatsidf>
9d011ca8:	2484fc01 	addiu	a0,a0,-1023
9d011cac:	8fbf001c 	lw	ra,28(sp)
9d011cb0:	00408025 	move	s0,v0
9d011cb4:	00608825 	move	s1,v1
9d011cb8:	02001025 	move	v0,s0
9d011cbc:	02201825 	move	v1,s1
9d011cc0:	8fb20018 	lw	s2,24(sp)
9d011cc4:	8fb10014 	lw	s1,20(sp)
9d011cc8:	8fb00010 	lw	s0,16(sp)
9d011ccc:	03e00008 	jr	ra
9d011cd0:	27bd0020 	addiu	sp,sp,32
9d011cd4:	00803025 	move	a2,a0
9d011cd8:	00a03825 	move	a3,a1
9d011cdc:	00808025 	move	s0,a0
9d011ce0:	0f40462a 	jal	9d0118a8 <__eqdf2>
9d011ce4:	00a08825 	move	s1,a1
9d011ce8:	1440ffe6 	bnez	v0,9d011c84 <logbl+0x5c>
9d011cec:	8fbf001c 	lw	ra,28(sp)
9d011cf0:	32527fff 	andi	s2,s2,0x7fff
9d011cf4:	a7b20026 	sh	s2,38(sp)
9d011cf8:	8fb00020 	lw	s0,32(sp)
9d011cfc:	8fb10024 	lw	s1,36(sp)
9d011d00:	8fbf001c 	lw	ra,28(sp)
9d011d04:	02001025 	move	v0,s0
9d011d08:	02201825 	move	v1,s1
9d011d0c:	8fb20018 	lw	s2,24(sp)
9d011d10:	8fb10014 	lw	s1,20(sp)
9d011d14:	8fb00010 	lw	s0,16(sp)
9d011d18:	03e00008 	jr	ra
9d011d1c:	27bd0020 	addiu	sp,sp,32
9d011d20:	8c517554 	lw	s1,30036(v0)
9d011d24:	8c507550 	lw	s0,30032(v0)
9d011d28:	8fbf001c 	lw	ra,28(sp)
9d011d2c:	02201825 	move	v1,s1
9d011d30:	02001025 	move	v0,s0
9d011d34:	8fb20018 	lw	s2,24(sp)
9d011d38:	8fb10014 	lw	s1,20(sp)
9d011d3c:	8fb00010 	lw	s0,16(sp)
9d011d40:	03e00008 	jr	ra
9d011d44:	27bd0020 	addiu	sp,sp,32

Disassembly of section .rodata:

9d011d48 <table-0xc>:
9d011d48:	04020100 	bltzl	zero,9d01214c <i49+0x14>
9d011d4c:	05060307 	0x5060307
9d011d50:	00000000 	nop

9d011d54 <table>:
9d011d54:	ffffffff ffffffff ffffffff ffffffff     ................
9d011d64:	ffffffff ffffffff ffffffff ffffffff     ................
9d011d74:	ffffffff ffffffff ffffffff ffffffff     ................
9d011d84:	020100ff 06050403 ff090807 ffffffff     ................
9d011d94:	0b0affff 0f0e0d0c 13121110 17161514     ................
9d011da4:	1b1a1918 1f1e1d1c 23222120 ffffffff     ........ !"#....
9d011db4:	0b0affff 0f0e0d0c 13121110 17161514     ................
9d011dc4:	1b1a1918 1f1e1d1c 23222120 ffffffff     ........ !"#....
9d011dd4:	ffffffff ffffffff ffffffff ffffffff     ................
9d011de4:	ffffffff ffffffff ffffffff ffffffff     ................
9d011df4:	ffffffff ffffffff ffffffff ffffffff     ................
9d011e04:	ffffffff ffffffff ffffffff ffffffff     ................
9d011e14:	ffffffff ffffffff ffffffff ffffffff     ................
9d011e24:	ffffffff ffffffff ffffffff ffffffff     ................
9d011e34:	ffffffff ffffffff ffffffff ffffffff     ................
9d011e44:	ffffffff ffffffff ffffffff ffffffff     ................
9d011e54:	000000ff                                ....

Disassembly of section .text:

9d011e58 <dpfloor>:
9d011e58:	3c018000 00a13024 00053840 00073d42     ...<$0..@8..B=..
9d011e68:	240107ff 10e1002b 00000000 24090433     ...$+.......3..$
9d011e78:	01273823 2ce10035 1420000b 00000000     #8'.5..,.. .....
9d011e88:	04e00020 00000000 10c0002d 00000000      .......-.......
9d011e98:	00054840 01244825 15200026 00000000     @H..%H$.&. .....
9d011ea8:	10000027 00000000                       '.......

9d011eb0 <i1>:
9d011eb0:	10c00005 	beqz	a2,9d011ec8 <i3>
9d011eb4:	00000000 	nop
9d011eb8:	0004482b 	sltu	t1,zero,a0
9d011ebc:	00042023 	negu	a0,a0
9d011ec0:	00052823 	negu	a1,a1
9d011ec4:	00a92823 	subu	a1,a1,t1

9d011ec8 <i3>:
9d011ec8:	30e9001f 	andi	t1,a3,0x1f
9d011ecc:	24080001 	li	t0,1
9d011ed0:	01284004 	sllv	t0,t0,t1
9d011ed4:	00084023 	negu	t0,t0
9d011ed8:	2ce10020 	sltiu	at,a3,32
9d011edc:	14200004 	bnez	at,9d011ef0 <i4>
9d011ee0:	00000000 	nop
9d011ee4:	24040000 	li	a0,0
9d011ee8:	10000002 	b	9d011ef4 <e4>
9d011eec:	00a82824 	and	a1,a1,t0

9d011ef0 <i4>:
9d011ef0:	00882024 	and	a0,a0,t0

9d011ef4 <e4>:
9d011ef4:	10c00005 	beqz	a2,9d011f0c <Aret>
9d011ef8:	00000000 	nop
9d011efc:	0004482b 	sltu	t1,zero,a0
9d011f00:	00042023 	negu	a0,a0
9d011f04:	00052823 	negu	a1,a1
9d011f08:	00a92823 	subu	a1,a1,t1

9d011f0c <Aret>:
9d011f0c:	00041025 	or	v0,zero,a0
9d011f10:	00051825 	or	v1,zero,a1

9d011f14 <A999>:
9d011f14:	03e00008 	jr	ra
9d011f18:	00000000 	nop

9d011f1c <Aspec>:
9d011f1c:	3c01000f 	lui	at,0xf
9d011f20:	3421ffff 	ori	at,at,0xffff
9d011f24:	00a14824 	and	t1,a1,at
9d011f28:	01244825 	or	t1,t1,a0
9d011f2c:	15200009 	bnez	t1,9d011f54 <Anan>
9d011f30:	00000000 	nop
9d011f34:	1000fff5 	b	9d011f0c <Aret>
9d011f38:	00000000 	nop

9d011f3c <Amin1>:
9d011f3c:	3c05bff0 	lui	a1,0xbff0
9d011f40:	1000fff2 	b	9d011f0c <Aret>
9d011f44:	24040000 	li	a0,0

9d011f48 <Azer>:
9d011f48:	00062825 	or	a1,zero,a2
9d011f4c:	1000ffef 	b	9d011f0c <Aret>
9d011f50:	24040000 	li	a0,0

9d011f54 <Anan>:
9d011f54:	3c05fff8 	lui	a1,0xfff8
9d011f58:	1000ffec 	b	9d011f0c <Aret>
9d011f5c:	24040000 	li	a0,0

Disassembly of section .text.__pad:

9d011f60 <__pad>:
9d011f60:	27bdffc0 	addiu	sp,sp,-64
9d011f64:	afb3002c 	sw	s3,44(sp)
9d011f68:	8fb30050 	lw	s3,80(sp)
9d011f6c:	afb60038 	sw	s6,56(sp)
9d011f70:	afb40030 	sw	s4,48(sp)
9d011f74:	32730001 	andi	s3,s3,0x1
9d011f78:	afb20028 	sw	s2,40(sp)
9d011f7c:	afb10024 	sw	s1,36(sp)
9d011f80:	afb00020 	sw	s0,32(sp)
9d011f84:	afbf003c 	sw	ra,60(sp)
9d011f88:	afb50034 	sw	s5,52(sp)
9d011f8c:	00809025 	move	s2,a0
9d011f90:	00a0b025 	move	s6,a1
9d011f94:	00c08025 	move	s0,a2
9d011f98:	00e08825 	move	s1,a3
9d011f9c:	16600003 	bnez	s3,9d011fac <__pad+0x4c>
9d011fa0:	00c7a02b 	sltu	s4,a2,a3
9d011fa4:	56800013 	bnezl	s4,9d011ff4 <__pad+0x94>
9d011fa8:	0230a023 	subu	s4,s1,s0
9d011fac:	02003025 	move	a2,s0
9d011fb0:	02c02825 	move	a1,s6
9d011fb4:	0f404c89 	jal	9d013224 <__out>
9d011fb8:	02402025 	move	a0,s2
9d011fbc:	1680000d 	bnez	s4,9d011ff4 <__pad+0x94>
9d011fc0:	0230a023 	subu	s4,s1,s0
9d011fc4:	02008825 	move	s1,s0
9d011fc8:	8fbf003c 	lw	ra,60(sp)
9d011fcc:	02201025 	move	v0,s1
9d011fd0:	8fb60038 	lw	s6,56(sp)
9d011fd4:	8fb50034 	lw	s5,52(sp)
9d011fd8:	8fb40030 	lw	s4,48(sp)
9d011fdc:	8fb3002c 	lw	s3,44(sp)
9d011fe0:	8fb20028 	lw	s2,40(sp)
9d011fe4:	8fb10024 	lw	s1,36(sp)
9d011fe8:	8fb00020 	lw	s0,32(sp)
9d011fec:	03e00008 	jr	ra
9d011ff0:	27bd0040 	addiu	sp,sp,64
9d011ff4:	2e860011 	sltiu	a2,s4,17
9d011ff8:	24020010 	li	v0,16
9d011ffc:	0286100b 	movn	v0,s4,a2
9d012000:	00403025 	move	a2,v0
9d012004:	24050020 	li	a1,32
9d012008:	27a40010 	addiu	a0,sp,16
9d01200c:	0f4051f2 	jal	9d0147c8 <memset>
9d012010:	0280a825 	move	s5,s4
9d012014:	2ea20010 	sltiu	v0,s5,16
9d012018:	1040000b 	beqz	v0,9d012048 <__pad+0xe8>
9d01201c:	3286000f 	andi	a2,s4,0xf
9d012020:	27a50010 	addiu	a1,sp,16
9d012024:	0f404c89 	jal	9d013224 <__out>
9d012028:	02402025 	move	a0,s2
9d01202c:	1660ffe6 	bnez	s3,9d011fc8 <__pad+0x68>
9d012030:	02003025 	move	a2,s0
9d012034:	02c02825 	move	a1,s6
9d012038:	0f404c89 	jal	9d013224 <__out>
9d01203c:	02402025 	move	a0,s2
9d012040:	1000ffe2 	b	9d011fcc <__pad+0x6c>
9d012044:	8fbf003c 	lw	ra,60(sp)
9d012048:	24060010 	li	a2,16
9d01204c:	27a50010 	addiu	a1,sp,16
9d012050:	0f404c89 	jal	9d013224 <__out>
9d012054:	02402025 	move	a0,s2
9d012058:	1000ffee 	b	9d012014 <__pad+0xb4>
9d01205c:	26b5fff0 	addiu	s5,s5,-16

Disassembly of section .text.dptofp:

9d012060 <__truncdfsf2>:
9d012060:	00053ac0 00045d42 00eb3825 000432c0     .:..B]..%8...2..
9d012070:	3c018000 00e13825 3c018000 00a14824     ...<%8.....<$H..
9d012080:	00054040 00084542 2508fc80 250bffff     @@..BE.....%...%
9d012090:	2d6100fe 10200012 00000000              ..a-.. .....

9d01209c <Hlab1>:
9d01209c:	10c00002 	beqz	a2,9d0120a8 <i45>
9d0120a0:	00000000 	nop
9d0120a4:	34e70001 	ori	a3,a3,0x1

9d0120a8 <i45>:
9d0120a8:	24e70080 	addiu	a3,a3,128
9d0120ac:	2ceb0080 	sltiu	t3,a3,128
9d0120b0:	010b4021 	addu	t0,t0,t3
9d0120b4:	00075a02 	srl	t3,a3,0x8
9d0120b8:	316b0001 	andi	t3,t3,0x1
9d0120bc:	00eb3823 	subu	a3,a3,t3
9d0120c0:	00073840 	sll	a3,a3,0x1
9d0120c4:	00073a42 	srl	a3,a3,0x9
9d0120c8:	00085dc0 	sll	t3,t0,0x17
9d0120cc:	00eb3825 	or	a3,a3,t3
9d0120d0:	00e91025 	or	v0,a3,t1

9d0120d4 <H999>:
9d0120d4:	03e00008 	jr	ra
9d0120d8:	00000000 	nop
9d0120dc:	00000000 	nop

9d0120e0 <Hspec>:
9d0120e0:	2401047f 	li	at,1151
9d0120e4:	15010007 	bne	t0,at,9d012104 <i46>
9d0120e8:	00000000 	nop
9d0120ec:	00075840 	sll	t3,a3,0x1
9d0120f0:	01665825 	or	t3,t3,a2
9d0120f4:	11600003 	beqz	t3,9d012104 <i46>
9d0120f8:	00000000 	nop
9d0120fc:	1000fff5 	b	9d0120d4 <H999>
9d012100:	3c02ffc0 	lui	v0,0xffc0

9d012104 <i46>:
9d012104:	290100ff 	slti	at,t0,255
9d012108:	14200004 	bnez	at,9d01211c <i48>
9d01210c:	00000000 	nop
9d012110:	3c017f80 	lui	at,0x7f80
9d012114:	1000ffef 	b	9d0120d4 <H999>
9d012118:	01211025 	or	v0,t1,at

9d01211c <i48>:
9d01211c:	240a0001 	li	t2,1
9d012120:	01485023 	subu	t2,t2,t0
9d012124:	2d410020 	sltiu	at,t2,32
9d012128:	14200003 	bnez	at,9d012138 <i49>
9d01212c:	00000000 	nop
9d012130:	1000ffe8 	b	9d0120d4 <H999>
9d012134:	00091025 	or	v0,zero,t1

9d012138 <i49>:
9d012138:	240c0020 	li	t4,32
9d01213c:	018a6023 	subu	t4,t4,t2
9d012140:	01875804 	sllv	t3,a3,t4
9d012144:	00cb3025 	or	a2,a2,t3
9d012148:	01473806 	srlv	a3,a3,t2
9d01214c:	24080000 	li	t0,0
9d012150:	3c018000 	lui	at,0x8000
9d012154:	1000ffd1 	b	9d01209c <Hlab1>
9d012158:	00e13825 	or	a3,a3,at
9d01215c:	00000000 	nop

Disassembly of section .text.scalbn:

9d012160 <scalbn>:
9d012160:	27bdffe0 	addiu	sp,sp,-32
9d012164:	afb10014 	sw	s1,20(sp)
9d012168:	00c08825 	move	s1,a2
9d01216c:	28c60400 	slti	a2,a2,1024
9d012170:	afbf001c 	sw	ra,28(sp)
9d012174:	afb20018 	sw	s2,24(sp)
9d012178:	14c0001f 	bnez	a2,9d0121f8 <scalbn+0x98>
9d01217c:	afb00010 	sw	s0,16(sp)
9d012180:	3c129d00 	lui	s2,0x9d00
9d012184:	8e467590 	lw	a2,30096(s2)
9d012188:	8e477594 	lw	a3,30100(s2)
9d01218c:	0f403d0b 	jal	9d00f42c <__muldf3>
9d012190:	2630fc01 	addiu	s0,s1,-1023
9d012194:	2a040400 	slti	a0,s0,1024
9d012198:	14800009 	bnez	a0,9d0121c0 <scalbn+0x60>
9d01219c:	8e467590 	lw	a2,30096(s2)
9d0121a0:	8e477594 	lw	a3,30100(s2)
9d0121a4:	00402025 	move	a0,v0
9d0121a8:	00602825 	move	a1,v1
9d0121ac:	0f403d0b 	jal	9d00f42c <__muldf3>
9d0121b0:	2630f802 	addiu	s0,s1,-2046
9d0121b4:	2a050400 	slti	a1,s0,1024
9d0121b8:	240403ff 	li	a0,1023
9d0121bc:	0085800a 	movz	s0,a0,a1
9d0121c0:	261003ff 	addiu	s0,s0,1023
9d0121c4:	00102500 	sll	a0,s0,0x14
9d0121c8:	00002825 	move	a1,zero
9d0121cc:	00a03025 	move	a2,a1
9d0121d0:	00803825 	move	a3,a0
9d0121d4:	00602825 	move	a1,v1
9d0121d8:	0f403d0b 	jal	9d00f42c <__muldf3>
9d0121dc:	00402025 	move	a0,v0
9d0121e0:	8fbf001c 	lw	ra,28(sp)
9d0121e4:	8fb20018 	lw	s2,24(sp)
9d0121e8:	8fb10014 	lw	s1,20(sp)
9d0121ec:	8fb00010 	lw	s0,16(sp)
9d0121f0:	03e00008 	jr	ra
9d0121f4:	27bd0020 	addiu	sp,sp,32
9d0121f8:	2a26fc02 	slti	a2,s1,-1022
9d0121fc:	00801025 	move	v0,a0
9d012200:	00a01825 	move	v1,a1
9d012204:	10c0ffee 	beqz	a2,9d0121c0 <scalbn+0x60>
9d012208:	02208025 	move	s0,s1
9d01220c:	3c129d00 	lui	s2,0x9d00
9d012210:	8e467598 	lw	a2,30104(s2)
9d012214:	8e47759c 	lw	a3,30108(s2)
9d012218:	0f403d0b 	jal	9d00f42c <__muldf3>
9d01221c:	263003c9 	addiu	s0,s1,969
9d012220:	2a04fc02 	slti	a0,s0,-1022
9d012224:	1080ffe6 	beqz	a0,9d0121c0 <scalbn+0x60>
9d012228:	8e467598 	lw	a2,30104(s2)
9d01222c:	8e47759c 	lw	a3,30108(s2)
9d012230:	00402025 	move	a0,v0
9d012234:	00602825 	move	a1,v1
9d012238:	0f403d0b 	jal	9d00f42c <__muldf3>
9d01223c:	26300792 	addiu	s0,s1,1938
9d012240:	2a05fc02 	slti	a1,s0,-1022
9d012244:	2404fc02 	li	a0,-1022
9d012248:	1000ffdd 	b	9d0121c0 <scalbn+0x60>
9d01224c:	0085800b 	movn	s0,a0,a1

Disassembly of section .text.__pop_ptr:

9d012250 <__pop_ptr>:
9d012250:	24020084 	li	v0,132
9d012254:	50a20022 	beql	a1,v0,9d0122e0 <__pop_ptr+0x90>
9d012258:	8ce20000 	lw	v0,0(a3)
9d01225c:	28a20085 	slti	v0,a1,133
9d012260:	10400010 	beqz	v0,9d0122a4 <__pop_ptr+0x54>
9d012264:	24020081 	li	v0,129
9d012268:	50a20008 	beql	a1,v0,9d01228c <__pop_ptr+0x3c>
9d01226c:	8ce20000 	lw	v0,0(a3)
9d012270:	24020082 	li	v0,130
9d012274:	50a20027 	beql	a1,v0,9d012314 <__pop_ptr+0xc4>
9d012278:	8ce20000 	lw	v0,0(a3)
9d01227c:	24020080 	li	v0,128
9d012280:	14a20010 	bne	a1,v0,9d0122c4 <__pop_ptr+0x74>
9d012284:	00000000 	nop
9d012288:	8ce20000 	lw	v0,0(a3)
9d01228c:	24430004 	addiu	v1,v0,4
9d012290:	ace30000 	sw	v1,0(a3)
9d012294:	8c420000 	lw	v0,0(v0)
9d012298:	ac820000 	sw	v0,0(a0)
9d01229c:	10000015 	b	9d0122f4 <__pop_ptr+0xa4>
9d0122a0:	ac460000 	sw	a2,0(v0)
9d0122a4:	24020090 	li	v0,144
9d0122a8:	50a2001a 	beql	a1,v0,9d012314 <__pop_ptr+0xc4>
9d0122ac:	8ce20000 	lw	v0,0(a3)
9d0122b0:	28a20091 	slti	v0,a1,145
9d0122b4:	10400005 	beqz	v0,9d0122cc <__pop_ptr+0x7c>
9d0122b8:	24020088 	li	v0,136
9d0122bc:	50a2000f 	beql	a1,v0,9d0122fc <__pop_ptr+0xac>
9d0122c0:	8ce20000 	lw	v0,0(a3)
9d0122c4:	03e00008 	jr	ra
9d0122c8:	00001025 	move	v0,zero
9d0122cc:	240200a0 	li	v0,160
9d0122d0:	50a2ffee 	beql	a1,v0,9d01228c <__pop_ptr+0x3c>
9d0122d4:	8ce20000 	lw	v0,0(a3)
9d0122d8:	1000ffe9 	b	9d012280 <__pop_ptr+0x30>
9d0122dc:	240200c0 	li	v0,192
9d0122e0:	24430004 	addiu	v1,v0,4
9d0122e4:	ace30000 	sw	v1,0(a3)
9d0122e8:	8c420000 	lw	v0,0(v0)
9d0122ec:	ac820000 	sw	v0,0(a0)
9d0122f0:	a4460000 	sh	a2,0(v0)
9d0122f4:	03e00008 	jr	ra
9d0122f8:	24020001 	li	v0,1
9d0122fc:	24430004 	addiu	v1,v0,4
9d012300:	ace30000 	sw	v1,0(a3)
9d012304:	8c420000 	lw	v0,0(v0)
9d012308:	ac820000 	sw	v0,0(a0)
9d01230c:	1000fff9 	b	9d0122f4 <__pop_ptr+0xa4>
9d012310:	a0460000 	sb	a2,0(v0)
9d012314:	24430004 	addiu	v1,v0,4
9d012318:	ace30000 	sw	v1,0(a3)
9d01231c:	8c420000 	lw	v0,0(v0)
9d012320:	ac820000 	sw	v0,0(a0)
9d012324:	ac460000 	sw	a2,0(v0)
9d012328:	000637c3 	sra	a2,a2,0x1f
9d01232c:	1000fff1 	b	9d0122f4 <__pop_ptr+0xa4>
9d012330:	ac460004 	sw	a2,4(v0)

Disassembly of section .text.general_exception:

9d012334 <_general_exception_context>:
9d012334:	27bdffa8 	addiu	sp,sp,-88
9d012338:	afa10004 	sw	at,4(sp)
9d01233c:	afa20008 	sw	v0,8(sp)
9d012340:	afa3000c 	sw	v1,12(sp)
9d012344:	afa40010 	sw	a0,16(sp)
9d012348:	afa50014 	sw	a1,20(sp)
9d01234c:	afa60018 	sw	a2,24(sp)
9d012350:	afa7001c 	sw	a3,28(sp)
9d012354:	afa80020 	sw	t0,32(sp)
9d012358:	afa90024 	sw	t1,36(sp)
9d01235c:	afaa0028 	sw	t2,40(sp)
9d012360:	afab002c 	sw	t3,44(sp)
9d012364:	afac0030 	sw	t4,48(sp)
9d012368:	afad0034 	sw	t5,52(sp)
9d01236c:	afae0038 	sw	t6,56(sp)
9d012370:	afaf003c 	sw	t7,60(sp)
9d012374:	afb80040 	sw	t8,64(sp)
9d012378:	afb90044 	sw	t9,68(sp)
9d01237c:	afbf0048 	sw	ra,72(sp)
9d012380:	00004012 	mflo	t0
9d012384:	afa8004c 	sw	t0,76(sp)
9d012388:	00004010 	mfhi	t0
9d01238c:	afa80050 	sw	t0,80(sp)
9d012390:	3c1a9d01 	lui	k0,0x9d01
9d012394:	275a3f9c 	addiu	k0,k0,16284
9d012398:	00000000 	nop
9d01239c:	40046800 	mfc0	a0,c0_cause
9d0123a0:	40056000 	mfc0	a1,c0_status
9d0123a4:	0340f809 	jalr	k0
9d0123a8:	00000000 	nop
9d0123ac:	8fa80050 	lw	t0,80(sp)
9d0123b0:	01000011 	mthi	t0
9d0123b4:	8fa8004c 	lw	t0,76(sp)
9d0123b8:	01000013 	mtlo	t0
9d0123bc:	8fa10004 	lw	at,4(sp)
9d0123c0:	8fa20008 	lw	v0,8(sp)
9d0123c4:	8fa3000c 	lw	v1,12(sp)
9d0123c8:	8fa40010 	lw	a0,16(sp)
9d0123cc:	8fa50014 	lw	a1,20(sp)
9d0123d0:	8fa60018 	lw	a2,24(sp)
9d0123d4:	8fa7001c 	lw	a3,28(sp)
9d0123d8:	8fa80020 	lw	t0,32(sp)
9d0123dc:	8fa90024 	lw	t1,36(sp)
9d0123e0:	8faa0028 	lw	t2,40(sp)
9d0123e4:	8fab002c 	lw	t3,44(sp)
9d0123e8:	8fac0030 	lw	t4,48(sp)
9d0123ec:	8fad0034 	lw	t5,52(sp)
9d0123f0:	8fae0038 	lw	t6,56(sp)
9d0123f4:	8faf003c 	lw	t7,60(sp)
9d0123f8:	8fb80040 	lw	t8,64(sp)
9d0123fc:	8fb90044 	lw	t9,68(sp)
9d012400:	8fbf0048 	lw	ra,72(sp)
9d012404:	27bd0058 	addiu	sp,sp,88
9d012408:	000000c0 	ehb
9d01240c:	42000018 	eret

Disassembly of section .text.__stdio_read:

9d012410 <__stdio_read>:
9d012410:	8c83000c 	lw	v1,12(a0)
9d012414:	27bdffd0 	addiu	sp,sp,-48
9d012418:	afb00020 	sw	s0,32(sp)
9d01241c:	0003102b 	sltu	v0,zero,v1
9d012420:	00c21023 	subu	v0,a2,v0
9d012424:	00808025 	move	s0,a0
9d012428:	afa20014 	sw	v0,20(sp)
9d01242c:	8c820008 	lw	v0,8(a0)
9d012430:	8c840000 	lw	a0,0(a0)
9d012434:	afb20028 	sw	s2,40(sp)
9d012438:	afb10024 	sw	s1,36(sp)
9d01243c:	00a09025 	move	s2,a1
9d012440:	00c08825 	move	s1,a2
9d012444:	afa50010 	sw	a1,16(sp)
9d012448:	24060002 	li	a2,2
9d01244c:	27a50010 	addiu	a1,sp,16
9d012450:	afbf002c 	sw	ra,44(sp)
9d012454:	afa20018 	sw	v0,24(sp)
9d012458:	0f404df9 	jal	9d0137e4 <readv>
9d01245c:	afa3001c 	sw	v1,28(sp)
9d012460:	1c400007 	bgtz	v0,9d012480 <__stdio_read+0x70>
9d012464:	30430018 	andi	v1,v0,0x18
9d012468:	38640008 	xori	a0,v1,0x8
9d01246c:	8e030004 	lw	v1,4(s0)
9d012470:	00641825 	or	v1,v1,a0
9d012474:	ae030004 	sw	v1,4(s0)
9d012478:	10000011 	b	9d0124c0 <__stdio_read+0xb0>
9d01247c:	00408825 	move	s1,v0
9d012480:	8fa40014 	lw	a0,20(sp)
9d012484:	0082182b 	sltu	v1,a0,v0
9d012488:	5060000d 	beqzl	v1,9d0124c0 <__stdio_read+0xb0>
9d01248c:	00408825 	move	s1,v0
9d012490:	8e030008 	lw	v1,8(s0)
9d012494:	00441023 	subu	v0,v0,a0
9d012498:	00621021 	addu	v0,v1,v0
9d01249c:	ae020040 	sw	v0,64(s0)
9d0124a0:	8e02000c 	lw	v0,12(s0)
9d0124a4:	10400006 	beqz	v0,9d0124c0 <__stdio_read+0xb0>
9d0124a8:	ae03003c 	sw	v1,60(s0)
9d0124ac:	24620001 	addiu	v0,v1,1
9d0124b0:	ae02003c 	sw	v0,60(s0)
9d0124b4:	90620000 	lbu	v0,0(v1)
9d0124b8:	02519021 	addu	s2,s2,s1
9d0124bc:	a242ffff 	sb	v0,-1(s2)
9d0124c0:	8fbf002c 	lw	ra,44(sp)
9d0124c4:	02201025 	move	v0,s1
9d0124c8:	8fb20028 	lw	s2,40(sp)
9d0124cc:	8fb10024 	lw	s1,36(sp)
9d0124d0:	8fb00020 	lw	s0,32(sp)
9d0124d4:	03e00008 	jr	ra
9d0124d8:	27bd0030 	addiu	sp,sp,48

Disassembly of section .text.__simple_search_fl:

9d0124dc <__simple_search_fl>:
9d0124dc:	3c06a000 	lui	a2,0xa000
9d0124e0:	8cca2408 	lw	t2,9224(a2)
9d0124e4:	1140002b 	beqz	t2,9d012594 <__simple_search_fl+0xb8>
9d0124e8:	00001025 	move	v0,zero
9d0124ec:	01401825 	move	v1,t2
9d0124f0:	00003825 	move	a3,zero
9d0124f4:	00004025 	move	t0,zero
9d0124f8:	8c650000 	lw	a1,0(v1)
9d0124fc:	14a40008 	bne	a1,a0,9d012520 <__simple_search_fl+0x44>
9d012500:	8c690010 	lw	t1,16(v1)
9d012504:	50e00002 	beqzl	a3,9d012510 <__simple_search_fl+0x34>
9d012508:	acc92408 	sw	t1,9224(a2)
9d01250c:	ace90010 	sw	t1,16(a3)
9d012510:	03e00008 	jr	ra
9d012514:	24620010 	addiu	v0,v1,16
9d012518:	1000fff7 	b	9d0124f8 <__simple_search_fl+0x1c>
9d01251c:	01201825 	move	v1,t1
9d012520:	0085582b 	sltu	t3,a0,a1
9d012524:	11600007 	beqz	t3,9d012544 <__simple_search_fl+0x68>
9d012528:	00000000 	nop
9d01252c:	5040001b 	beqzl	v0,9d01259c <__simple_search_fl+0xc0>
9d012530:	00e04025 	move	t0,a3
9d012534:	8c4b0000 	lw	t3,0(v0)
9d012538:	00ab282b 	sltu	a1,a1,t3
9d01253c:	00e5400b 	movn	t0,a3,a1
9d012540:	0065100b 	movn	v0,v1,a1
9d012544:	1520fff4 	bnez	t1,9d012518 <__simple_search_fl+0x3c>
9d012548:	00603825 	move	a3,v1
9d01254c:	10400011 	beqz	v0,9d012594 <__simple_search_fl+0xb8>
9d012550:	00000000 	nop
9d012554:	8c430000 	lw	v1,0(v0)
9d012558:	8c450010 	lw	a1,16(v0)
9d01255c:	00641823 	subu	v1,v1,a0
9d012560:	2c690011 	sltiu	t1,v1,17
9d012564:	15200007 	bnez	t1,9d012584 <__simple_search_fl+0xa8>
9d012568:	24470010 	addiu	a3,v0,16
9d01256c:	ac440000 	sw	a0,0(v0)
9d012570:	2463fff0 	addiu	v1,v1,-16
9d012574:	00e42021 	addu	a0,a3,a0
9d012578:	ac850010 	sw	a1,16(a0)
9d01257c:	ac830000 	sw	v1,0(a0)
9d012580:	00802825 	move	a1,a0
9d012584:	55420002 	bnel	t2,v0,9d012590 <__simple_search_fl+0xb4>
9d012588:	ad050010 	sw	a1,16(t0)
9d01258c:	acc52408 	sw	a1,9224(a2)
9d012590:	00e01025 	move	v0,a3
9d012594:	03e00008 	jr	ra
9d012598:	00000000 	nop
9d01259c:	1000ffe9 	b	9d012544 <__simple_search_fl+0x68>
9d0125a0:	00601025 	move	v0,v1

Disassembly of section .text.__stdio_seek_rw:

9d0125a4 <__stdio_seek_rw>:
9d0125a4:	27bdffe0 	addiu	sp,sp,-32
9d0125a8:	24020001 	li	v0,1
9d0125ac:	afb20018 	sw	s2,24(sp)
9d0125b0:	afb10014 	sw	s1,20(sp)
9d0125b4:	afb00010 	sw	s0,16(sp)
9d0125b8:	afbf001c 	sw	ra,28(sp)
9d0125bc:	00808025 	move	s0,a0
9d0125c0:	00c09025 	move	s2,a2
9d0125c4:	14c20005 	bne	a2,v0,9d0125dc <__stdio_seek_rw+0x38>
9d0125c8:	00a08825 	move	s1,a1
9d0125cc:	8c820040 	lw	v0,64(a0)
9d0125d0:	8c83003c 	lw	v1,60(a0)
9d0125d4:	00431023 	subu	v0,v0,v1
9d0125d8:	00a28823 	subu	s1,a1,v0
9d0125dc:	8e020004 	lw	v0,4(s0)
9d0125e0:	30420020 	andi	v0,v0,0x20
9d0125e4:	1040000a 	beqz	v0,9d012610 <__stdio_seek_rw+0x6c>
9d0125e8:	02403025 	move	a2,s2
9d0125ec:	8e020014 	lw	v0,20(s0)
9d0125f0:	8e030018 	lw	v1,24(s0)
9d0125f4:	0062102b 	sltu	v0,v1,v0
9d0125f8:	5440000d 	bnezl	v0,9d012630 <__stdio_seek_rw+0x8c>
9d0125fc:	8e02002c 	lw	v0,44(s0)
9d012600:	ae000028 	sw	zero,40(s0)
9d012604:	ae000018 	sw	zero,24(s0)
9d012608:	ae000014 	sw	zero,20(s0)
9d01260c:	02403025 	move	a2,s2
9d012610:	02202825 	move	a1,s1
9d012614:	0f40501d 	jal	9d014074 <__stdio_seek_unbuffered>
9d012618:	02002025 	move	a0,s0
9d01261c:	0440000b 	bltz	v0,9d01264c <__stdio_seek_rw+0xa8>
9d012620:	00001025 	move	v0,zero
9d012624:	ae000040 	sw	zero,64(s0)
9d012628:	10000009 	b	9d012650 <__stdio_seek_rw+0xac>
9d01262c:	ae00003c 	sw	zero,60(s0)
9d012630:	00003025 	move	a2,zero
9d012634:	00002825 	move	a1,zero
9d012638:	0040f809 	jalr	v0
9d01263c:	02002025 	move	a0,s0
9d012640:	8e020014 	lw	v0,20(s0)
9d012644:	5440ffef 	bnezl	v0,9d012604 <__stdio_seek_rw+0x60>
9d012648:	ae000028 	sw	zero,40(s0)
9d01264c:	2402ffff 	li	v0,-1
9d012650:	8fbf001c 	lw	ra,28(sp)
9d012654:	8fb20018 	lw	s2,24(sp)
9d012658:	8fb10014 	lw	s1,20(sp)
9d01265c:	8fb00010 	lw	s0,16(sp)
9d012660:	03e00008 	jr	ra
9d012664:	27bd0020 	addiu	sp,sp,32

Disassembly of section .text.__stdio_close_rw:

9d012668 <__stdio_close_rw>:
9d012668:	14800003 	bnez	a0,9d012678 <__stdio_close_rw+0x10>
9d01266c:	00001025 	move	v0,zero
9d012670:	03e00008 	jr	ra
9d012674:	00000000 	nop
9d012678:	8c820004 	lw	v0,4(a0)
9d01267c:	27bdffe0 	addiu	sp,sp,-32
9d012680:	afb10018 	sw	s1,24(sp)
9d012684:	30420020 	andi	v0,v0,0x20
9d012688:	afb00014 	sw	s0,20(sp)
9d01268c:	afbf001c 	sw	ra,28(sp)
9d012690:	00808025 	move	s0,a0
9d012694:	10400009 	beqz	v0,9d0126bc <__stdio_close_rw+0x54>
9d012698:	00a08825 	move	s1,a1
9d01269c:	8c820014 	lw	v0,20(a0)
9d0126a0:	8c830018 	lw	v1,24(a0)
9d0126a4:	0062102b 	sltu	v0,v1,v0
9d0126a8:	54400014 	bnezl	v0,9d0126fc <__stdio_close_rw+0x94>
9d0126ac:	8c82002c 	lw	v0,44(a0)
9d0126b0:	ae000028 	sw	zero,40(s0)
9d0126b4:	ae000018 	sw	zero,24(s0)
9d0126b8:	ae000014 	sw	zero,20(s0)
9d0126bc:	8e05003c 	lw	a1,60(s0)
9d0126c0:	8e020040 	lw	v0,64(s0)
9d0126c4:	00a2182b 	sltu	v1,a1,v0
9d0126c8:	10600004 	beqz	v1,9d0126dc <__stdio_close_rw+0x74>
9d0126cc:	24060001 	li	a2,1
9d0126d0:	8e040000 	lw	a0,0(s0)
9d0126d4:	0f4052fc 	jal	9d014bf0 <lseek>
9d0126d8:	00a22823 	subu	a1,a1,v0
9d0126dc:	ae000040 	sw	zero,64(s0)
9d0126e0:	ae00003c 	sw	zero,60(s0)
9d0126e4:	1220000b 	beqz	s1,9d012714 <__stdio_close_rw+0xac>
9d0126e8:	00001025 	move	v0,zero
9d0126ec:	0f4052fe 	jal	9d014bf8 <close>
9d0126f0:	8e040000 	lw	a0,0(s0)
9d0126f4:	10000008 	b	9d012718 <__stdio_close_rw+0xb0>
9d0126f8:	8fbf001c 	lw	ra,28(sp)
9d0126fc:	00003025 	move	a2,zero
9d012700:	0040f809 	jalr	v0
9d012704:	00002825 	move	a1,zero
9d012708:	8e030014 	lw	v1,20(s0)
9d01270c:	1460ffe8 	bnez	v1,9d0126b0 <__stdio_close_rw+0x48>
9d012710:	2402ffff 	li	v0,-1
9d012714:	8fbf001c 	lw	ra,28(sp)
9d012718:	8fb10018 	lw	s1,24(sp)
9d01271c:	8fb00014 	lw	s0,20(sp)
9d012720:	03e00008 	jr	ra
9d012724:	27bd0020 	addiu	sp,sp,32

Disassembly of section .text.__fmt_u:

9d012728 <__fmt_u>:
9d012728:	8ca20000 	lw	v0,0(a1)
9d01272c:	8ca30004 	lw	v1,4(a1)
9d012730:	27bdffc0 	addiu	sp,sp,-64
9d012734:	afb30038 	sw	s3,56(sp)
9d012738:	afb20034 	sw	s2,52(sp)
9d01273c:	afb10030 	sw	s1,48(sp)
9d012740:	afb0002c 	sw	s0,44(sp)
9d012744:	afbf003c 	sw	ra,60(sp)
9d012748:	00808825 	move	s1,a0
9d01274c:	00a08025 	move	s0,a1
9d012750:	8cb20008 	lw	s2,8(a1)
9d012754:	afa20020 	sw	v0,32(sp)
9d012758:	04600003 	bltz	v1,9d012768 <__fmt_u+0x40>
9d01275c:	8cb3000c 	lw	s3,12(a1)
9d012760:	7c020844 	ins	v0,zero,0x1,0x1
9d012764:	afa20020 	sw	v0,32(sp)
9d012768:	27a20020 	addiu	v0,sp,32
9d01276c:	afa20018 	sw	v0,24(sp)
9d012770:	2402000a 	li	v0,10
9d012774:	afa20014 	sw	v0,20(sp)
9d012778:	afb20010 	sw	s2,16(sp)
9d01277c:	8cc70004 	lw	a3,4(a2)
9d012780:	8cc60000 	lw	a2,0(a2)
9d012784:	0f4044f2 	jal	9d0113c8 <__cvt_u>
9d012788:	02002025 	move	a0,s0
9d01278c:	8e060010 	lw	a2,16(s0)
9d012790:	8fa30020 	lw	v1,32(sp)
9d012794:	02403825 	move	a3,s2
9d012798:	24c6ffff 	addiu	a2,a2,-1
9d01279c:	afa30010 	sw	v1,16(sp)
9d0127a0:	00c23023 	subu	a2,a2,v0
9d0127a4:	02622821 	addu	a1,s3,v0
9d0127a8:	0f4047d8 	jal	9d011f60 <__pad>
9d0127ac:	02202025 	move	a0,s1
9d0127b0:	8e230004 	lw	v1,4(s1)
9d0127b4:	30630100 	andi	v1,v1,0x100
9d0127b8:	10600004 	beqz	v1,9d0127cc <__fmt_u+0xa4>
9d0127bc:	8fbf003c 	lw	ra,60(sp)
9d0127c0:	8e030004 	lw	v1,4(s0)
9d0127c4:	0043202a 	slt	a0,v0,v1
9d0127c8:	0064100b 	movn	v0,v1,a0
9d0127cc:	8fb30038 	lw	s3,56(sp)
9d0127d0:	8fb20034 	lw	s2,52(sp)
9d0127d4:	8fb10030 	lw	s1,48(sp)
9d0127d8:	8fb0002c 	lw	s0,44(sp)
9d0127dc:	03e00008 	jr	ra
9d0127e0:	27bd0040 	addiu	sp,sp,64

Disassembly of section .text.strtox:

9d0127e4 <strtox>:
9d0127e4:	27bdff78 	addiu	sp,sp,-136
9d0127e8:	afb20080 	sw	s2,128(sp)
9d0127ec:	afb1007c 	sw	s1,124(sp)
9d0127f0:	afb00078 	sw	s0,120(sp)
9d0127f4:	afbf0084 	sw	ra,132(sp)
9d0127f8:	00808025 	move	s0,a0
9d0127fc:	00a08825 	move	s1,a1
9d012800:	00c09025 	move	s2,a2
9d012804:	afa0001c 	sw	zero,28(sp)
9d012808:	afa40054 	sw	a0,84(sp)
9d01280c:	afa40020 	sw	a0,32(sp)
9d012810:	04800004 	bltz	a0,9d012824 <strtox+0x40>
9d012814:	2402ffff 	li	v0,-1
9d012818:	3c027fff 	lui	v0,0x7fff
9d01281c:	3442ffff 	ori	v0,v0,0xffff
9d012820:	00821021 	addu	v0,a0,v0
9d012824:	00002825 	move	a1,zero
9d012828:	27a40018 	addiu	a0,sp,24
9d01282c:	0f40517e 	jal	9d0145f8 <__shlim>
9d012830:	afa20058 	sw	v0,88(sp)
9d012834:	8fa20098 	lw	v0,152(sp)
9d012838:	8fa3009c 	lw	v1,156(sp)
9d01283c:	02402825 	move	a1,s2
9d012840:	27a40018 	addiu	a0,sp,24
9d012844:	afa20010 	sw	v0,16(sp)
9d012848:	afa30014 	sw	v1,20(sp)
9d01284c:	0f4030a3 	jal	9d00c28c <__intscan>
9d012850:	24060001 	li	a2,1
9d012854:	00402025 	move	a0,v0
9d012858:	12200008 	beqz	s1,9d01287c <strtox+0x98>
9d01285c:	00602825 	move	a1,v1
9d012860:	8fa20058 	lw	v0,88(sp)
9d012864:	8fa30054 	lw	v1,84(sp)
9d012868:	00621823 	subu	v1,v1,v0
9d01286c:	8fa2006c 	lw	v0,108(sp)
9d012870:	00621821 	addu	v1,v1,v0
9d012874:	02038021 	addu	s0,s0,v1
9d012878:	ae300000 	sw	s0,0(s1)
9d01287c:	8fbf0084 	lw	ra,132(sp)
9d012880:	00801025 	move	v0,a0
9d012884:	00a01825 	move	v1,a1
9d012888:	8fb20080 	lw	s2,128(sp)
9d01288c:	8fb1007c 	lw	s1,124(sp)
9d012890:	8fb00078 	lw	s0,120(sp)
9d012894:	03e00008 	jr	ra
9d012898:	27bd0088 	addiu	sp,sp,136

Disassembly of section .text.__shgetc:

9d01289c <__shgetc>:
9d01289c:	8c820050 	lw	v0,80(a0)
9d0128a0:	27bdffe8 	addiu	sp,sp,-24
9d0128a4:	afb00010 	sw	s0,16(sp)
9d0128a8:	afbf0014 	sw	ra,20(sp)
9d0128ac:	1040000b 	beqz	v0,9d0128dc <__shgetc+0x40>
9d0128b0:	00808025 	move	s0,a0
9d0128b4:	8c830054 	lw	v1,84(a0)
9d0128b8:	0062102a 	slt	v0,v1,v0
9d0128bc:	14400007 	bnez	v0,9d0128dc <__shgetc+0x40>
9d0128c0:	00000000 	nop
9d0128c4:	ae00004c 	sw	zero,76(s0)
9d0128c8:	2402ffff 	li	v0,-1
9d0128cc:	8fbf0014 	lw	ra,20(sp)
9d0128d0:	8fb00010 	lw	s0,16(sp)
9d0128d4:	03e00008 	jr	ra
9d0128d8:	27bd0018 	addiu	sp,sp,24
9d0128dc:	0f404f99 	jal	9d013e64 <__uflow>
9d0128e0:	02002025 	move	a0,s0
9d0128e4:	0442fff8 	bltzl	v0,9d0128c8 <__shgetc+0x2c>
9d0128e8:	ae00004c 	sw	zero,76(s0)
9d0128ec:	8e030040 	lw	v1,64(s0)
9d0128f0:	8e040050 	lw	a0,80(s0)
9d0128f4:	8e05003c 	lw	a1,60(s0)
9d0128f8:	10800009 	beqz	a0,9d012920 <__shgetc+0x84>
9d0128fc:	00603025 	move	a2,v1
9d012900:	8e060054 	lw	a2,84(s0)
9d012904:	00653823 	subu	a3,v1,a1
9d012908:	00862023 	subu	a0,a0,a2
9d01290c:	00e4382a 	slt	a3,a3,a0
9d012910:	14e00003 	bnez	a3,9d012920 <__shgetc+0x84>
9d012914:	00603025 	move	a2,v1
9d012918:	2484ffff 	addiu	a0,a0,-1
9d01291c:	00a43021 	addu	a2,a1,a0
9d012920:	10600006 	beqz	v1,9d01293c <__shgetc+0xa0>
9d012924:	ae06004c 	sw	a2,76(s0)
9d012928:	8e040054 	lw	a0,84(s0)
9d01292c:	00651823 	subu	v1,v1,a1
9d012930:	24630001 	addiu	v1,v1,1
9d012934:	00831821 	addu	v1,a0,v1
9d012938:	ae030054 	sw	v1,84(s0)
9d01293c:	90a3ffff 	lbu	v1,-1(a1)
9d012940:	5462ffe2 	bnel	v1,v0,9d0128cc <__shgetc+0x30>
9d012944:	a0a2ffff 	sb	v0,-1(a1)
9d012948:	1000ffe1 	b	9d0128d0 <__shgetc+0x34>
9d01294c:	8fbf0014 	lw	ra,20(sp)

Disassembly of section .text.__simple_malloc:

9d012950 <__simple_malloc>:
9d012950:	27bdffd8 	addiu	sp,sp,-40
9d012954:	afb10020 	sw	s1,32(sp)
9d012958:	3c11a000 	lui	s1,0xa000
9d01295c:	8e2220b8 	lw	v0,8376(s1)
9d012960:	afb0001c 	sw	s0,28(sp)
9d012964:	afbf0024 	sw	ra,36(sp)
9d012968:	1040000e 	beqz	v0,9d0129a4 <__simple_malloc+0x54>
9d01296c:	00808025 	move	s0,a0
9d012970:	0f405062 	jal	9d014188 <_get_heap_left_space>
9d012974:	00000000 	nop
9d012978:	27a40010 	addiu	a0,sp,16
9d01297c:	0f4050ed 	jal	9d0143b4 <__expand_heap>
9d012980:	afa20010 	sw	v0,16(sp)
9d012984:	2442000f 	addiu	v0,v0,15
9d012988:	8fa50010 	lw	a1,16(sp)
9d01298c:	7c021804 	ins	v0,zero,0x0,0x4
9d012990:	0f405210 	jal	9d014840 <__init_search_fl>
9d012994:	00402025 	move	a0,v0
9d012998:	1040000c 	beqz	v0,9d0129cc <__simple_malloc+0x7c>
9d01299c:	8fbf0024 	lw	ra,36(sp)
9d0129a0:	ae2020b8 	sw	zero,8376(s1)
9d0129a4:	52000001 	beqzl	s0,9d0129ac <__simple_malloc+0x5c>
9d0129a8:	24100001 	li	s0,1
9d0129ac:	2610000f 	addiu	s0,s0,15
9d0129b0:	7c101804 	ins	s0,zero,0x0,0x4
9d0129b4:	16000009 	bnez	s0,9d0129dc <__simple_malloc+0x8c>
9d0129b8:	3c02a000 	lui	v0,0xa000
9d0129bc:	2403000c 	li	v1,12
9d0129c0:	ac432404 	sw	v1,9220(v0)
9d0129c4:	00001025 	move	v0,zero
9d0129c8:	8fbf0024 	lw	ra,36(sp)
9d0129cc:	8fb10020 	lw	s1,32(sp)
9d0129d0:	8fb0001c 	lw	s0,28(sp)
9d0129d4:	03e00008 	jr	ra
9d0129d8:	27bd0028 	addiu	sp,sp,40
9d0129dc:	2e020004 	sltiu	v0,s0,4
9d0129e0:	24030004 	li	v1,4
9d0129e4:	0062800b 	movn	s0,v1,v0
9d0129e8:	0f404937 	jal	9d0124dc <__simple_search_fl>
9d0129ec:	02002025 	move	a0,s0
9d0129f0:	5440fff5 	bnezl	v0,9d0129c8 <__simple_malloc+0x78>
9d0129f4:	ac50fffc 	sw	s0,-4(v0)
9d0129f8:	1000fff4 	b	9d0129cc <__simple_malloc+0x7c>
9d0129fc:	8fbf0024 	lw	ra,36(sp)

Disassembly of section .text._sbrk:

9d012a00 <_sbrk>:
9d012a00:	27bdffe0 	addiu	sp,sp,-32
9d012a04:	afb00014 	sw	s0,20(sp)
9d012a08:	3c10a000 	lui	s0,0xa000
9d012a0c:	8e0223f4 	lw	v0,9204(s0)
9d012a10:	afb10018 	sw	s1,24(sp)
9d012a14:	afbf001c 	sw	ra,28(sp)
9d012a18:	1440000f 	bnez	v0,9d012a58 <_sbrk+0x58>
9d012a1c:	00808825 	move	s1,a0
9d012a20:	0f404449 	jal	9d011124 <_sbrk_init>
9d012a24:	00000000 	nop
9d012a28:	8e0223f4 	lw	v0,9204(s0)
9d012a2c:	1440000b 	bnez	v0,9d012a5c <_sbrk+0x5c>
9d012a30:	00000000 	nop
9d012a34:	3c02a000 	lui	v0,0xa000
9d012a38:	2403000c 	li	v1,12
9d012a3c:	ac432404 	sw	v1,9220(v0)
9d012a40:	2402ffff 	li	v0,-1
9d012a44:	8fbf001c 	lw	ra,28(sp)
9d012a48:	8fb10018 	lw	s1,24(sp)
9d012a4c:	8fb00014 	lw	s0,20(sp)
9d012a50:	03e00008 	jr	ra
9d012a54:	27bd0020 	addiu	sp,sp,32
9d012a58:	8e0223f4 	lw	v0,9204(s0)
9d012a5c:	1a20000a 	blez	s1,9d012a88 <_sbrk+0x88>
9d012a60:	00511821 	addu	v1,v0,s1
9d012a64:	0062202b 	sltu	a0,v1,v0
9d012a68:	1480fff2 	bnez	a0,9d012a34 <_sbrk+0x34>
9d012a6c:	3c04a000 	lui	a0,0xa000
9d012a70:	8c8423f8 	lw	a0,9208(a0)
9d012a74:	0083202b 	sltu	a0,a0,v1
9d012a78:	5480ffef 	bnezl	a0,9d012a38 <_sbrk+0x38>
9d012a7c:	3c02a000 	lui	v0,0xa000
9d012a80:	1000fff0 	b	9d012a44 <_sbrk+0x44>
9d012a84:	ae0323f4 	sw	v1,9204(s0)
9d012a88:	0043202b 	sltu	a0,v0,v1
9d012a8c:	14800005 	bnez	a0,9d012aa4 <_sbrk+0xa4>
9d012a90:	3c04a000 	lui	a0,0xa000
9d012a94:	8c8423fc 	lw	a0,9212(a0)
9d012a98:	0064202b 	sltu	a0,v1,a0
9d012a9c:	5080ffe9 	beqzl	a0,9d012a44 <_sbrk+0x44>
9d012aa0:	ae0323f4 	sw	v1,9204(s0)
9d012aa4:	3c02a000 	lui	v0,0xa000
9d012aa8:	1000ffe4 	b	9d012a3c <_sbrk+0x3c>
9d012aac:	24030016 	li	v1,22

Disassembly of section .text.fptodp:

9d012ab0 <__extendsfdf2>:
9d012ab0:	00043dc2 30e700ff 3c018000 00813024     .=.....0...<$0..
9d012ac0:	24e9ffff 2d2100fe 1020000d 00000000     ...$..!-.. .....

9d012ad0 <Glab1>:
9d012ad0:	24e70380 	addiu	a3,a3,896
9d012ad4:	00044a40 	sll	t1,a0,0x9
9d012ad8:	00094b02 	srl	t1,t1,0xc
9d012adc:	00c93025 	or	a2,a2,t1
9d012ae0:	00042f40 	sll	a1,a0,0x1d

9d012ae4 <Gret>:
9d012ae4:	00074d00 	sll	t1,a3,0x14
9d012ae8:	00c93025 	or	a2,a2,t1
9d012aec:	00051025 	or	v0,zero,a1
9d012af0:	00061825 	or	v1,zero,a2

9d012af4 <G999>:
9d012af4:	03e00008 	jr	ra
9d012af8:	00000000 	nop
9d012afc:	00000000 	nop

9d012b00 <Gspec>:
9d012b00:	24050000 	li	a1,0
9d012b04:	00842021 	addu	a0,a0,a0
9d012b08:	1080fff6 	beqz	a0,9d012ae4 <Gret>
9d012b0c:	00000000 	nop
9d012b10:	14e00009 	bnez	a3,9d012b38 <i42>
9d012b14:	00000000 	nop

9d012b18 <b43>:
9d012b18:	24e7ffff 	addiu	a3,a3,-1
9d012b1c:	00842021 	addu	a0,a0,a0
9d012b20:	3c010080 	lui	at,0x80
9d012b24:	0081082b 	sltu	at,a0,at
9d012b28:	1420fffb 	bnez	at,9d012b18 <b43>
9d012b2c:	00000000 	nop
9d012b30:	1000ffe7 	b	9d012ad0 <Glab1>
9d012b34:	00000000 	nop

9d012b38 <i42>:
9d012b38:	240707ff 	li	a3,2047
9d012b3c:	3c01ff00 	lui	at,0xff00
9d012b40:	34210001 	ori	at,at,0x1
9d012b44:	0081082b 	sltu	at,a0,at
9d012b48:	1420ffe6 	bnez	at,9d012ae4 <Gret>
9d012b4c:	00000000 	nop
9d012b50:	1000ffe4 	b	9d012ae4 <Gret>
9d012b54:	3c06fff8 	lui	a2,0xfff8
9d012b58:	00000000 	nop

Disassembly of section .text.__push_float:

9d012b5c <__push_float>:
9d012b5c:	24020081 	li	v0,129
9d012b60:	50a20012 	beql	a1,v0,9d012bac <__push_float+0x50>
9d012b64:	8cc20000 	lw	v0,0(a2)
9d012b68:	24020083 	li	v0,131
9d012b6c:	50a20006 	beql	a1,v0,9d012b88 <__push_float+0x2c>
9d012b70:	8cc20000 	lw	v0,0(a2)
9d012b74:	24020080 	li	v0,128
9d012b78:	10a20012 	beq	a1,v0,9d012bc4 <__push_float+0x68>
9d012b7c:	00001025 	move	v0,zero
9d012b80:	03e00008 	jr	ra
9d012b84:	00000000 	nop
9d012b88:	24430004 	addiu	v1,v0,4
9d012b8c:	acc30000 	sw	v1,0(a2)
9d012b90:	8c850004 	lw	a1,4(a0)
9d012b94:	8c420000 	lw	v0,0(v0)
9d012b98:	8c840000 	lw	a0,0(a0)
9d012b9c:	ac440000 	sw	a0,0(v0)
9d012ba0:	ac450004 	sw	a1,4(v0)
9d012ba4:	03e00008 	jr	ra
9d012ba8:	24020001 	li	v0,1
9d012bac:	24430004 	addiu	v1,v0,4
9d012bb0:	acc30000 	sw	v1,0(a2)
9d012bb4:	8c850004 	lw	a1,4(a0)
9d012bb8:	8c420000 	lw	v0,0(v0)
9d012bbc:	1000fff7 	b	9d012b9c <__push_float+0x40>
9d012bc0:	8c840000 	lw	a0,0(a0)
9d012bc4:	8cc20000 	lw	v0,0(a2)
9d012bc8:	8c850004 	lw	a1,4(a0)
9d012bcc:	8c840000 	lw	a0,0(a0)
9d012bd0:	24430004 	addiu	v1,v0,4
9d012bd4:	27bdffe8 	addiu	sp,sp,-24
9d012bd8:	acc30000 	sw	v1,0(a2)
9d012bdc:	afb00010 	sw	s0,16(sp)
9d012be0:	afbf0014 	sw	ra,20(sp)
9d012be4:	0f404818 	jal	9d012060 <__truncdfsf2>
9d012be8:	8c500000 	lw	s0,0(v0)
9d012bec:	8fbf0014 	lw	ra,20(sp)
9d012bf0:	ae020000 	sw	v0,0(s0)
9d012bf4:	24020001 	li	v0,1
9d012bf8:	8fb00010 	lw	s0,16(sp)
9d012bfc:	03e00008 	jr	ra
9d012c00:	27bd0018 	addiu	sp,sp,24

Disassembly of section .text.normalize:

9d012c04 <normalize>:
9d012c04:	27bdffe0 	addiu	sp,sp,-32
9d012c08:	afb10018 	sw	s1,24(sp)
9d012c0c:	00078d02 	srl	s1,a3,0x14
9d012c10:	322507ff 	andi	a1,s1,0x7ff
9d012c14:	afb00014 	sw	s0,20(sp)
9d012c18:	afbf001c 	sw	ra,28(sp)
9d012c1c:	00808025 	move	s0,a0
9d012c20:	00c01025 	move	v0,a2
9d012c24:	14a0000e 	bnez	a1,9d012c60 <normalize+0x5c>
9d012c28:	00e02025 	move	a0,a3
9d012c2c:	3c029d00 	lui	v0,0x9d00
9d012c30:	00c04025 	move	t0,a2
9d012c34:	00e01825 	move	v1,a3
9d012c38:	8c467570 	lw	a2,30064(v0)
9d012c3c:	8c477574 	lw	a3,30068(v0)
9d012c40:	01002025 	move	a0,t0
9d012c44:	0f403d0b 	jal	9d00f42c <__muldf3>
9d012c48:	00602825 	move	a1,v1
9d012c4c:	00602025 	move	a0,v1
9d012c50:	7c635500 	ext	v1,v1,0x14,0xb
9d012c54:	10600002 	beqz	v1,9d012c60 <normalize+0x5c>
9d012c58:	24050800 	li	a1,2048
9d012c5c:	2465ffc1 	addiu	a1,v1,-63
9d012c60:	000237c2 	srl	a2,v0,0x1f
9d012c64:	00041840 	sll	v1,a0,0x1
9d012c68:	00021040 	sll	v0,v0,0x1
9d012c6c:	00c31825 	or	v1,a2,v1
9d012c70:	8fbf001c 	lw	ra,28(sp)
9d012c74:	ae020000 	sw	v0,0(s0)
9d012c78:	7c63a000 	ext	v1,v1,0x0,0x15
9d012c7c:	3c020020 	lui	v0,0x20
9d012c80:	00431825 	or	v1,v0,v1
9d012c84:	32310800 	andi	s1,s1,0x800
9d012c88:	24a5fbcc 	addiu	a1,a1,-1076
9d012c8c:	ae11000c 	sw	s1,12(s0)
9d012c90:	02001025 	move	v0,s0
9d012c94:	ae030004 	sw	v1,4(s0)
9d012c98:	ae050008 	sw	a1,8(s0)
9d012c9c:	8fb10018 	lw	s1,24(sp)
9d012ca0:	8fb00014 	lw	s0,20(sp)
9d012ca4:	03e00008 	jr	ra
9d012ca8:	27bd0020 	addiu	sp,sp,32

Disassembly of section .text.strtox:

9d012cac <strtox>:
9d012cac:	27bdff80 	addiu	sp,sp,-128
9d012cb0:	afb20078 	sw	s2,120(sp)
9d012cb4:	afb10074 	sw	s1,116(sp)
9d012cb8:	afb00070 	sw	s0,112(sp)
9d012cbc:	00c09025 	move	s2,a2
9d012cc0:	00808025 	move	s0,a0
9d012cc4:	24060060 	li	a2,96
9d012cc8:	27a40010 	addiu	a0,sp,16
9d012ccc:	00a08825 	move	s1,a1
9d012cd0:	afbf007c 	sw	ra,124(sp)
9d012cd4:	0f4051f2 	jal	9d0147c8 <memset>
9d012cd8:	00002825 	move	a1,zero
9d012cdc:	2402ffff 	li	v0,-1
9d012ce0:	00002825 	move	a1,zero
9d012ce4:	27a40010 	addiu	a0,sp,16
9d012ce8:	afa20050 	sw	v0,80(sp)
9d012cec:	afb00018 	sw	s0,24(sp)
9d012cf0:	0f40517e 	jal	9d0145f8 <__shlim>
9d012cf4:	afb0004c 	sw	s0,76(sp)
9d012cf8:	02402825 	move	a1,s2
9d012cfc:	27a40010 	addiu	a0,sp,16
9d012d00:	0f4027c9 	jal	9d009f24 <__floatscan>
9d012d04:	24060001 	li	a2,1
9d012d08:	00402025 	move	a0,v0
9d012d0c:	12200008 	beqz	s1,9d012d30 <strtox+0x84>
9d012d10:	00602825 	move	a1,v1
9d012d14:	8fa20050 	lw	v0,80(sp)
9d012d18:	8fa3004c 	lw	v1,76(sp)
9d012d1c:	00621823 	subu	v1,v1,v0
9d012d20:	8fa20064 	lw	v0,100(sp)
9d012d24:	00621821 	addu	v1,v1,v0
9d012d28:	02038021 	addu	s0,s0,v1
9d012d2c:	ae300000 	sw	s0,0(s1)
9d012d30:	8fbf007c 	lw	ra,124(sp)
9d012d34:	00801025 	move	v0,a0
9d012d38:	00a01825 	move	v1,a1
9d012d3c:	8fb20078 	lw	s2,120(sp)
9d012d40:	8fb10074 	lw	s1,116(sp)
9d012d44:	8fb00070 	lw	s0,112(sp)
9d012d48:	03e00008 	jr	ra
9d012d4c:	27bd0080 	addiu	sp,sp,128

Disassembly of section .text.__skipws:

9d012d50 <__skipws>:
9d012d50:	27bdffe0 	addiu	sp,sp,-32
9d012d54:	afb10018 	sw	s1,24(sp)
9d012d58:	afb00014 	sw	s0,20(sp)
9d012d5c:	afbf001c 	sw	ra,28(sp)
9d012d60:	00808025 	move	s0,a0
9d012d64:	00008825 	move	s1,zero
9d012d68:	8e02003c 	lw	v0,60(s0)
9d012d6c:	8e03004c 	lw	v1,76(s0)
9d012d70:	0043182b 	sltu	v1,v0,v1
9d012d74:	10600017 	beqz	v1,9d012dd4 <__skipws+0x84>
9d012d78:	24430001 	addiu	v1,v0,1
9d012d7c:	ae03003c 	sw	v1,60(s0)
9d012d80:	90420000 	lbu	v0,0(v0)
9d012d84:	24030020 	li	v1,32
9d012d88:	10430010 	beq	v0,v1,9d012dcc <__skipws+0x7c>
9d012d8c:	2442fff7 	addiu	v0,v0,-9
9d012d90:	2c420005 	sltiu	v0,v0,5
9d012d94:	5440fff4 	bnezl	v0,9d012d68 <__skipws+0x18>
9d012d98:	26310001 	addiu	s1,s1,1
9d012d9c:	8e02004c 	lw	v0,76(s0)
9d012da0:	10400005 	beqz	v0,9d012db8 <__skipws+0x68>
9d012da4:	8fbf001c 	lw	ra,28(sp)
9d012da8:	8e02003c 	lw	v0,60(s0)
9d012dac:	2442ffff 	addiu	v0,v0,-1
9d012db0:	ae02003c 	sw	v0,60(s0)
9d012db4:	8fbf001c 	lw	ra,28(sp)
9d012db8:	02201025 	move	v0,s1
9d012dbc:	8fb00014 	lw	s0,20(sp)
9d012dc0:	8fb10018 	lw	s1,24(sp)
9d012dc4:	03e00008 	jr	ra
9d012dc8:	27bd0020 	addiu	sp,sp,32
9d012dcc:	1000ffe6 	b	9d012d68 <__skipws+0x18>
9d012dd0:	26310001 	addiu	s1,s1,1
9d012dd4:	0f404a27 	jal	9d01289c <__shgetc>
9d012dd8:	02002025 	move	a0,s0
9d012ddc:	2403ffff 	li	v1,-1
9d012de0:	1443ffe8 	bne	v0,v1,9d012d84 <__skipws+0x34>
9d012de4:	8fbf001c 	lw	ra,28(sp)
9d012de8:	1000fff4 	b	9d012dbc <__skipws+0x6c>
9d012dec:	02201025 	move	v0,s1

Disassembly of section .text.__string_read:

9d012df0 <__string_read>:
9d012df0:	27bdffd0 	addiu	sp,sp,-48
9d012df4:	afb00014 	sw	s0,20(sp)
9d012df8:	8c900038 	lw	s0,56(a0)
9d012dfc:	afb2001c 	sw	s2,28(sp)
9d012e00:	24d20100 	addiu	s2,a2,256
9d012e04:	afb50028 	sw	s5,40(sp)
9d012e08:	afb40024 	sw	s4,36(sp)
9d012e0c:	afb30020 	sw	s3,32(sp)
9d012e10:	00a0a825 	move	s5,a1
9d012e14:	00809825 	move	s3,a0
9d012e18:	00c0a025 	move	s4,a2
9d012e1c:	00002825 	move	a1,zero
9d012e20:	02403025 	move	a2,s2
9d012e24:	02002025 	move	a0,s0
9d012e28:	afbf002c 	sw	ra,44(sp)
9d012e2c:	0f405083 	jal	9d01420c <memchr>
9d012e30:	afb10018 	sw	s1,24(sp)
9d012e34:	54400001 	bnezl	v0,9d012e3c <__string_read+0x4c>
9d012e38:	00509023 	subu	s2,v0,s0
9d012e3c:	0292882b 	sltu	s1,s4,s2
9d012e40:	0251a00a 	movz	s4,s2,s1
9d012e44:	02803025 	move	a2,s4
9d012e48:	02002825 	move	a1,s0
9d012e4c:	0f4051aa 	jal	9d0146a8 <memcpy>
9d012e50:	02a02025 	move	a0,s5
9d012e54:	8fbf002c 	lw	ra,44(sp)
9d012e58:	02141021 	addu	v0,s0,s4
9d012e5c:	02128021 	addu	s0,s0,s2
9d012e60:	ae62003c 	sw	v0,60(s3)
9d012e64:	ae700040 	sw	s0,64(s3)
9d012e68:	ae700038 	sw	s0,56(s3)
9d012e6c:	02801025 	move	v0,s4
9d012e70:	8fb50028 	lw	s5,40(sp)
9d012e74:	8fb40024 	lw	s4,36(sp)
9d012e78:	8fb30020 	lw	s3,32(sp)
9d012e7c:	8fb2001c 	lw	s2,28(sp)
9d012e80:	8fb10018 	lw	s1,24(sp)
9d012e84:	8fb00014 	lw	s0,20(sp)
9d012e88:	03e00008 	jr	ra
9d012e8c:	27bd0030 	addiu	sp,sp,48

Disassembly of section .text.__stdio_close:

9d012e90 <__stdio_close>:
9d012e90:	14800003 	bnez	a0,9d012ea0 <__stdio_close+0x10>
9d012e94:	00001025 	move	v0,zero
9d012e98:	03e00008 	jr	ra
9d012e9c:	00000000 	nop
9d012ea0:	8c820004 	lw	v0,4(a0)
9d012ea4:	27bdffe0 	addiu	sp,sp,-32
9d012ea8:	afb10018 	sw	s1,24(sp)
9d012eac:	30420020 	andi	v0,v0,0x20
9d012eb0:	afb00014 	sw	s0,20(sp)
9d012eb4:	afbf001c 	sw	ra,28(sp)
9d012eb8:	00808025 	move	s0,a0
9d012ebc:	1440000b 	bnez	v0,9d012eec <__stdio_close+0x5c>
9d012ec0:	00a08825 	move	s1,a1
9d012ec4:	ae000028 	sw	zero,40(s0)
9d012ec8:	ae000018 	sw	zero,24(s0)
9d012ecc:	16200014 	bnez	s1,9d012f20 <__stdio_close+0x90>
9d012ed0:	ae000014 	sw	zero,20(s0)
9d012ed4:	00001025 	move	v0,zero
9d012ed8:	8fbf001c 	lw	ra,28(sp)
9d012edc:	8fb10018 	lw	s1,24(sp)
9d012ee0:	8fb00014 	lw	s0,20(sp)
9d012ee4:	03e00008 	jr	ra
9d012ee8:	27bd0020 	addiu	sp,sp,32
9d012eec:	8c820014 	lw	v0,20(a0)
9d012ef0:	8c830018 	lw	v1,24(a0)
9d012ef4:	0062102b 	sltu	v0,v1,v0
9d012ef8:	1040fff2 	beqz	v0,9d012ec4 <__stdio_close+0x34>
9d012efc:	00003025 	move	a2,zero
9d012f00:	8c82002c 	lw	v0,44(a0)
9d012f04:	0040f809 	jalr	v0
9d012f08:	00002825 	move	a1,zero
9d012f0c:	8e030014 	lw	v1,20(s0)
9d012f10:	1060fff1 	beqz	v1,9d012ed8 <__stdio_close+0x48>
9d012f14:	2402ffff 	li	v0,-1
9d012f18:	1000ffeb 	b	9d012ec8 <__stdio_close+0x38>
9d012f1c:	ae000028 	sw	zero,40(s0)
9d012f20:	0f4052fe 	jal	9d014bf8 <close>
9d012f24:	8e040000 	lw	a0,0(s0)
9d012f28:	1000ffec 	b	9d012edc <__stdio_close+0x4c>
9d012f2c:	8fbf001c 	lw	ra,28(sp)

Disassembly of section .text.fpcmp:

9d012f30 <__eqsf2>:
9d012f30:	2408fffe 00043040 00053840 00c74825     ...$@0..@8..%H..
9d012f40:	1120001b 00000000 3c01ff00 34210001     .. ........<..!4
9d012f50:	00c1082b 1020001a 00000000 3c01ff00     +..... ........<
9d012f60:	34210001 00e1082b 10200015 00000000     ..!4+..... .....
9d012f70:	04810002 00063042 00063023              ....B0..#0..

9d012f7c <i48>:
9d012f7c:	04a10002 	bgez	a1,9d012f88 <i49>
9d012f80:	00073842 	srl	a3,a3,0x1
9d012f84:	00073823 	negu	a3,a3

9d012f88 <i49>:
9d012f88:	00c7082a 	slt	at,a2,a3
9d012f8c:	10200003 	beqz	at,9d012f9c <i50>
9d012f90:	00000000 	nop
9d012f94:	10000007 	b	9d012fb4 <J999>
9d012f98:	2402ffff 	li	v0,-1

9d012f9c <i50>:
9d012f9c:	00e6082a 	slt	at,a3,a2
9d012fa0:	10200003 	beqz	at,9d012fb0 <Jequ>
9d012fa4:	00000000 	nop
9d012fa8:	10000002 	b	9d012fb4 <J999>
9d012fac:	24020001 	li	v0,1

9d012fb0 <Jequ>:
9d012fb0:	24020000 	li	v0,0

9d012fb4 <J999>:
9d012fb4:	03e00008 	jr	ra
9d012fb8:	00000000 	nop
9d012fbc:	00000000 	nop

9d012fc0 <Jnan>:
9d012fc0:	1000fffc 	b	9d012fb4 <J999>
9d012fc4:	00081025 	or	v0,zero,t0
9d012fc8:	00000000 	nop

Disassembly of section .text.fpcmplt:

9d012fcc <fpcmplt>:
9d012fcc:	2408fffe 	li	t0,-2
9d012fd0:	00043040 	sll	a2,a0,0x1
9d012fd4:	00053840 	sll	a3,a1,0x1
9d012fd8:	00c74825 	or	t1,a2,a3
9d012fdc:	1120001b 	beqz	t1,9d01304c <fpcmplt+0x80>
9d012fe0:	00000000 	nop
9d012fe4:	3c01ff00 	lui	at,0xff00
9d012fe8:	34210001 	ori	at,at,0x1
9d012fec:	00c1082b 	sltu	at,a2,at
9d012ff0:	1020001a 	beqz	at,9d01305c <fpcmplt+0x90>
9d012ff4:	00000000 	nop
9d012ff8:	3c01ff00 	lui	at,0xff00
9d012ffc:	34210001 	ori	at,at,0x1
9d013000:	00e1082b 	sltu	at,a3,at
9d013004:	10200015 	beqz	at,9d01305c <fpcmplt+0x90>
9d013008:	00000000 	nop
9d01300c:	04810002 	bgez	a0,9d013018 <fpcmplt+0x4c>
9d013010:	00063042 	srl	a2,a2,0x1
9d013014:	00063023 	negu	a2,a2
9d013018:	04a10002 	bgez	a1,9d013024 <fpcmplt+0x58>
9d01301c:	00073842 	srl	a3,a3,0x1
9d013020:	00073823 	negu	a3,a3
9d013024:	00c7082a 	slt	at,a2,a3
9d013028:	10200003 	beqz	at,9d013038 <fpcmplt+0x6c>
9d01302c:	00000000 	nop
9d013030:	10000007 	b	9d013050 <fpcmplt+0x84>
9d013034:	2402ffff 	li	v0,-1
9d013038:	00e6082a 	slt	at,a3,a2
9d01303c:	10200003 	beqz	at,9d01304c <fpcmplt+0x80>
9d013040:	00000000 	nop
9d013044:	10000002 	b	9d013050 <fpcmplt+0x84>
9d013048:	24020001 	li	v0,1
9d01304c:	24020000 	li	v0,0
9d013050:	03e00008 	jr	ra
9d013054:	00000000 	nop
9d013058:	00000000 	nop
9d01305c:	1000fffc 	b	9d013050 <fpcmplt+0x84>
9d013060:	34020001 	li	v0,0x1
9d013064:	00000000 	nop

Disassembly of section .text.__toread:

9d013068 <__toread>:
9d013068:	27bdffe8 	addiu	sp,sp,-24
9d01306c:	afb00010 	sw	s0,16(sp)
9d013070:	afbf0014 	sw	ra,20(sp)
9d013074:	80820048 	lb	v0,72(a0)
9d013078:	2443ffff 	addiu	v1,v0,-1
9d01307c:	00431025 	or	v0,v0,v1
9d013080:	a0820048 	sb	v0,72(a0)
9d013084:	8c830018 	lw	v1,24(a0)
9d013088:	8c820014 	lw	v0,20(a0)
9d01308c:	0062102b 	sltu	v0,v1,v0
9d013090:	10400005 	beqz	v0,9d0130a8 <__toread+0x40>
9d013094:	00808025 	move	s0,a0
9d013098:	8c82002c 	lw	v0,44(a0)
9d01309c:	00003025 	move	a2,zero
9d0130a0:	0040f809 	jalr	v0
9d0130a4:	00002825 	move	a1,zero
9d0130a8:	8e020004 	lw	v0,4(s0)
9d0130ac:	ae000028 	sw	zero,40(s0)
9d0130b0:	ae000018 	sw	zero,24(s0)
9d0130b4:	30430002 	andi	v1,v0,0x2
9d0130b8:	10600008 	beqz	v1,9d0130dc <__toread+0x74>
9d0130bc:	ae000014 	sw	zero,20(s0)
9d0130c0:	34420010 	ori	v0,v0,0x10
9d0130c4:	ae020004 	sw	v0,4(s0)
9d0130c8:	2402ffff 	li	v0,-1
9d0130cc:	8fbf0014 	lw	ra,20(sp)
9d0130d0:	8fb00010 	lw	s0,16(sp)
9d0130d4:	03e00008 	jr	ra
9d0130d8:	27bd0018 	addiu	sp,sp,24
9d0130dc:	8e030008 	lw	v1,8(s0)
9d0130e0:	8e04000c 	lw	a0,12(s0)
9d0130e4:	7c4200c0 	ext	v0,v0,0x3,0x1
9d0130e8:	00021023 	negu	v0,v0
9d0130ec:	00641821 	addu	v1,v1,a0
9d0130f0:	ae030040 	sw	v1,64(s0)
9d0130f4:	1000fff5 	b	9d0130cc <__toread+0x64>
9d0130f8:	ae03003c 	sw	v1,60(s0)

Disassembly of section .text.__stdio_seek:

9d0130fc <__stdio_seek>:
9d0130fc:	8c820004 	lw	v0,4(a0)
9d013100:	27bdffe0 	addiu	sp,sp,-32
9d013104:	afb20018 	sw	s2,24(sp)
9d013108:	30420020 	andi	v0,v0,0x20
9d01310c:	afb10014 	sw	s1,20(sp)
9d013110:	afb00010 	sw	s0,16(sp)
9d013114:	afbf001c 	sw	ra,28(sp)
9d013118:	00808025 	move	s0,a0
9d01311c:	00a08825 	move	s1,a1
9d013120:	10400009 	beqz	v0,9d013148 <__stdio_seek+0x4c>
9d013124:	00c09025 	move	s2,a2
9d013128:	8c820014 	lw	v0,20(a0)
9d01312c:	8c830018 	lw	v1,24(a0)
9d013130:	0062102b 	sltu	v0,v1,v0
9d013134:	5440000a 	bnezl	v0,9d013160 <__stdio_seek+0x64>
9d013138:	8c82002c 	lw	v0,44(a0)
9d01313c:	ae000028 	sw	zero,40(s0)
9d013140:	ae000018 	sw	zero,24(s0)
9d013144:	ae000014 	sw	zero,20(s0)
9d013148:	02403025 	move	a2,s2
9d01314c:	02202825 	move	a1,s1
9d013150:	0f40501d 	jal	9d014074 <__stdio_seek_unbuffered>
9d013154:	02002025 	move	a0,s0
9d013158:	10000008 	b	9d01317c <__stdio_seek+0x80>
9d01315c:	8fbf001c 	lw	ra,28(sp)
9d013160:	00003025 	move	a2,zero
9d013164:	0040f809 	jalr	v0
9d013168:	00002825 	move	a1,zero
9d01316c:	8e030014 	lw	v1,20(s0)
9d013170:	1460fff2 	bnez	v1,9d01313c <__stdio_seek+0x40>
9d013174:	2402ffff 	li	v0,-1
9d013178:	8fbf001c 	lw	ra,28(sp)
9d01317c:	8fb20018 	lw	s2,24(sp)
9d013180:	8fb10014 	lw	s1,20(sp)
9d013184:	8fb00010 	lw	s0,16(sp)
9d013188:	03e00008 	jr	ra
9d01318c:	27bd0020 	addiu	sp,sp,32

Disassembly of section .text.__overflow:

9d013190 <__overflow>:
9d013190:	8c820028 	lw	v0,40(a0)
9d013194:	27bdffe0 	addiu	sp,sp,-32
9d013198:	afb00018 	sw	s0,24(sp)
9d01319c:	afbf001c 	sw	ra,28(sp)
9d0131a0:	00808025 	move	s0,a0
9d0131a4:	10400010 	beqz	v0,9d0131e8 <__overflow+0x58>
9d0131a8:	a3a50010 	sb	a1,16(sp)
9d0131ac:	8e030014 	lw	v1,20(s0)
9d0131b0:	8e020028 	lw	v0,40(s0)
9d0131b4:	0062102b 	sltu	v0,v1,v0
9d0131b8:	14400014 	bnez	v0,9d01320c <__overflow+0x7c>
9d0131bc:	93a20010 	lbu	v0,16(sp)
9d0131c0:	8e02002c 	lw	v0,44(s0)
9d0131c4:	24060001 	li	a2,1
9d0131c8:	27a50010 	addiu	a1,sp,16
9d0131cc:	0040f809 	jalr	v0
9d0131d0:	02002025 	move	a0,s0
9d0131d4:	24030001 	li	v1,1
9d0131d8:	14430007 	bne	v0,v1,9d0131f8 <__overflow+0x68>
9d0131dc:	93a20010 	lbu	v0,16(sp)
9d0131e0:	10000007 	b	9d013200 <__overflow+0x70>
9d0131e4:	8fbf001c 	lw	ra,28(sp)
9d0131e8:	0f405051 	jal	9d014144 <__towrite>
9d0131ec:	00000000 	nop
9d0131f0:	5040ffef 	beqzl	v0,9d0131b0 <__overflow+0x20>
9d0131f4:	8e030014 	lw	v1,20(s0)
9d0131f8:	2402ffff 	li	v0,-1
9d0131fc:	8fbf001c 	lw	ra,28(sp)
9d013200:	8fb00018 	lw	s0,24(sp)
9d013204:	03e00008 	jr	ra
9d013208:	27bd0020 	addiu	sp,sp,32
9d01320c:	82040034 	lb	a0,52(s0)
9d013210:	1044ffeb 	beq	v0,a0,9d0131c0 <__overflow+0x30>
9d013214:	24640001 	addiu	a0,v1,1
9d013218:	ae040014 	sw	a0,20(s0)
9d01321c:	1000fff7 	b	9d0131fc <__overflow+0x6c>
9d013220:	a0620000 	sb	v0,0(v1)

Disassembly of section .text.__out:

9d013224 <__out>:
9d013224:	8c820004 	lw	v0,4(a0)
9d013228:	27bdffe0 	addiu	sp,sp,-32
9d01322c:	afbf001c 	sw	ra,28(sp)
9d013230:	30470100 	andi	a3,v0,0x100
9d013234:	afb10018 	sw	s1,24(sp)
9d013238:	10e00017 	beqz	a3,9d013298 <__out+0x74>
9d01323c:	afb00014 	sw	s0,20(sp)
9d013240:	8c820010 	lw	v0,16(a0)
9d013244:	00c01825 	move	v1,a2
9d013248:	00c2882b 	sltu	s1,a2,v0
9d01324c:	0051180a 	movz	v1,v0,s1
9d013250:	1060000c 	beqz	v1,9d013284 <__out+0x60>
9d013254:	00608825 	move	s1,v1
9d013258:	00808025 	move	s0,a0
9d01325c:	8c840014 	lw	a0,20(a0)
9d013260:	0f4051aa 	jal	9d0146a8 <memcpy>
9d013264:	00603025 	move	a2,v1
9d013268:	8e020014 	lw	v0,20(s0)
9d01326c:	8e030010 	lw	v1,16(s0)
9d013270:	00511021 	addu	v0,v0,s1
9d013274:	00718823 	subu	s1,v1,s1
9d013278:	ae020014 	sw	v0,20(s0)
9d01327c:	ae110010 	sw	s1,16(s0)
9d013280:	a0400000 	sb	zero,0(v0)
9d013284:	8fbf001c 	lw	ra,28(sp)
9d013288:	8fb10018 	lw	s1,24(sp)
9d01328c:	8fb00014 	lw	s0,20(sp)
9d013290:	03e00008 	jr	ra
9d013294:	27bd0020 	addiu	sp,sp,32
9d013298:	30420010 	andi	v0,v0,0x10
9d01329c:	5440fffa 	bnezl	v0,9d013288 <__out+0x64>
9d0132a0:	8fbf001c 	lw	ra,28(sp)
9d0132a4:	0f40510a 	jal	9d014428 <__fwrite>
9d0132a8:	00000000 	nop
9d0132ac:	1000fff6 	b	9d013288 <__out+0x64>
9d0132b0:	8fbf001c 	lw	ra,28(sp)

Disassembly of section .text.dptoli:

9d0132b4 <__fixdfsi>:
9d0132b4:	00053ac0 00045542 00ea3825 3c018000     .:..BU..%8.....<
9d0132c4:	00e13825 00055040 000a5542 2406041e     %8..@P..BU.....$
9d0132d4:	00ca3023 18c0000c 00000000 2cc10020     #0.......... ..,
9d0132e4:	14200002 00000000 34070000              .. ........4

9d0132f0 <L42>:
9d0132f0:	04a10002 	bgez	a1,9d0132fc <i50>
9d0132f4:	00c73806 	srlv	a3,a3,a2
9d0132f8:	00073823 	negu	a3,a3

9d0132fc <i50>:
9d0132fc:	00071025 	or	v0,zero,a3

9d013300 <I999>:
9d013300:	03e00008 	jr	ra
9d013304:	00000000 	nop
9d013308:	00000000 	nop

9d01330c <Inaninf>:
9d01330c:	10800002 	beqz	a0,9d013318 <i51>
9d013310:	00000000 	nop
9d013314:	34a50001 	ori	a1,a1,0x1

9d013318 <i51>:
9d013318:	3c017ff0 	lui	at,0x7ff0
9d01331c:	34210001 	ori	at,at,0x1
9d013320:	00a1082b 	sltu	at,a1,at
9d013324:	14200003 	bnez	at,9d013334 <i52>
9d013328:	00000000 	nop
9d01332c:	1000fff4 	b	9d013300 <I999>
9d013330:	3c028000 	lui	v0,0x8000

9d013334 <i52>:
9d013334:	3c027fff 	lui	v0,0x7fff
9d013338:	1000fff1 	b	9d013300 <I999>
9d01333c:	3442ffff 	ori	v0,v0,0xffff
9d013340:	00000000 	nop

Disassembly of section .text.dptoul:

9d013344 <__fixunsdfsi>:
9d013344:	00053ac0 00045542 00ea3825 3c018000     .:..BU..%8.....<
9d013354:	00e13825 00055040 000a5542 2406041e     %8..@P..BU.....$
9d013364:	00ca3023 04c0000c 00000000 2cc10020     #0.......... ..,
9d013374:	14200002 00000000 34070000              .. ........4

9d013380 <L43>:
9d013380:	04a10002 	bgez	a1,9d01338c <i53>
9d013384:	00c73806 	srlv	a3,a3,a2
9d013388:	00073823 	negu	a3,a3

9d01338c <i53>:
9d01338c:	00071025 	or	v0,zero,a3

9d013390 <K999>:
9d013390:	03e00008 	jr	ra
9d013394:	00000000 	nop
9d013398:	00000000 	nop

9d01339c <Knaninf>:
9d01339c:	10800002 	beqz	a0,9d0133a8 <i54>
9d0133a0:	00000000 	nop
9d0133a4:	34a50001 	ori	a1,a1,0x1

9d0133a8 <i54>:
9d0133a8:	3c017ff0 	lui	at,0x7ff0
9d0133ac:	34210001 	ori	at,at,0x1
9d0133b0:	00a1082b 	sltu	at,a1,at
9d0133b4:	14200003 	bnez	at,9d0133c4 <i55>
9d0133b8:	00000000 	nop
9d0133bc:	1000fff4 	b	9d013390 <K999>
9d0133c0:	3c028000 	lui	v0,0x8000

9d0133c4 <i55>:
9d0133c4:	1000fff2 	b	9d013390 <K999>
9d0133c8:	2402ffff 	li	v0,-1
9d0133cc:	00000000 	nop

Disassembly of section .text.copysignf:

9d0133d0 <copysignf>:
9d0133d0:	27bdffd0 	addiu	sp,sp,-48
9d0133d4:	afb30028 	sw	s3,40(sp)
9d0133d8:	afb20024 	sw	s2,36(sp)
9d0133dc:	00e09825 	move	s3,a3
9d0133e0:	00c09025 	move	s2,a2
9d0133e4:	afbf002c 	sw	ra,44(sp)
9d0133e8:	afb10020 	sw	s1,32(sp)
9d0133ec:	0f404818 	jal	9d012060 <__truncdfsf2>
9d0133f0:	afb0001c 	sw	s0,28(sp)
9d0133f4:	02602825 	move	a1,s3
9d0133f8:	02402025 	move	a0,s2
9d0133fc:	0f404818 	jal	9d012060 <__truncdfsf2>
9d013400:	00408825 	move	s1,v0
9d013404:	00408025 	move	s0,v0
9d013408:	0f404aac 	jal	9d012ab0 <__extendsfdf2>
9d01340c:	02202025 	move	a0,s1
9d013410:	02002025 	move	a0,s0
9d013414:	afa20010 	sw	v0,16(sp)
9d013418:	7c707400 	ext	s0,v1,0x10,0xf
9d01341c:	0f404aac 	jal	9d012ab0 <__extendsfdf2>
9d013420:	afa30014 	sw	v1,20(sp)
9d013424:	00031c02 	srl	v1,v1,0x10
9d013428:	7c037004 	ins	v1,zero,0x0,0xf
9d01342c:	02031825 	or	v1,s0,v1
9d013430:	a7a30016 	sh	v1,22(sp)
9d013434:	8fa40010 	lw	a0,16(sp)
9d013438:	0f404818 	jal	9d012060 <__truncdfsf2>
9d01343c:	8fa50014 	lw	a1,20(sp)
9d013440:	8fbf002c 	lw	ra,44(sp)
9d013444:	8fb30028 	lw	s3,40(sp)
9d013448:	8fb20024 	lw	s2,36(sp)
9d01344c:	8fb10020 	lw	s1,32(sp)
9d013450:	8fb0001c 	lw	s0,28(sp)
9d013454:	03e00008 	jr	ra
9d013458:	27bd0030 	addiu	sp,sp,48

Disassembly of section .text.__fopen_rw:

9d01345c <__fopen_rw>:
9d01345c:	27bdffe8 	addiu	sp,sp,-24
9d013460:	afb00010 	sw	s0,16(sp)
9d013464:	afbf0014 	sw	ra,20(sp)
9d013468:	0f404a54 	jal	9d012950 <__simple_malloc>
9d01346c:	24040468 	li	a0,1128
9d013470:	10400017 	beqz	v0,9d0134d0 <__fopen_rw+0x74>
9d013474:	00408025 	move	s0,v0
9d013478:	24060060 	li	a2,96
9d01347c:	00002825 	move	a1,zero
9d013480:	0f4051f2 	jal	9d0147c8 <memset>
9d013484:	00402025 	move	a0,v0
9d013488:	3c029d01 	lui	v0,0x9d01
9d01348c:	2442488c 	addiu	v0,v0,18572
9d013490:	ae02002c 	sw	v0,44(s0)
9d013494:	3c029d01 	lui	v0,0x9d01
9d013498:	244225a4 	addiu	v0,v0,9636
9d01349c:	ae020030 	sw	v0,48(s0)
9d0134a0:	3c029d01 	lui	v0,0x9d01
9d0134a4:	24422668 	addiu	v0,v0,9832
9d0134a8:	ae02001c 	sw	v0,28(s0)
9d0134ac:	3c029d01 	lui	v0,0x9d01
9d0134b0:	24422410 	addiu	v0,v0,9232
9d0134b4:	ae020044 	sw	v0,68(s0)
9d0134b8:	2402ffff 	li	v0,-1
9d0134bc:	a2020034 	sb	v0,52(s0)
9d0134c0:	26020068 	addiu	v0,s0,104
9d0134c4:	ae020008 	sw	v0,8(s0)
9d0134c8:	24020400 	li	v0,1024
9d0134cc:	ae02000c 	sw	v0,12(s0)
9d0134d0:	8fbf0014 	lw	ra,20(sp)
9d0134d4:	02001025 	move	v0,s0
9d0134d8:	8fb00010 	lw	s0,16(sp)
9d0134dc:	03e00008 	jr	ra
9d0134e0:	27bd0018 	addiu	sp,sp,24

Disassembly of section .text.write:

9d0134e4 <write>:
9d0134e4:	27bdffe0 	addiu	sp,sp,-32
9d0134e8:	afb10014 	sw	s1,20(sp)
9d0134ec:	afbf001c 	sw	ra,28(sp)
9d0134f0:	afb20018 	sw	s2,24(sp)
9d0134f4:	afb00010 	sw	s0,16(sp)
9d0134f8:	10a0000d 	beqz	a1,9d013530 <write+0x4c>
9d0134fc:	00008825 	move	s1,zero
9d013500:	50c0000c 	beqzl	a2,9d013534 <write+0x50>
9d013504:	8fbf001c 	lw	ra,28(sp)
9d013508:	2c840003 	sltiu	a0,a0,3
9d01350c:	10800008 	beqz	a0,9d013530 <write+0x4c>
9d013510:	00c08825 	move	s1,a2
9d013514:	3c020000 	lui	v0,0x0
9d013518:	24420000 	addiu	v0,v0,0
9d01351c:	1040000b 	beqz	v0,9d01354c <write+0x68>
9d013520:	00a08025 	move	s0,a1
9d013524:	00c02825 	move	a1,a2
9d013528:	0c000000 	jal	90000000 <_bmxdudba_address+0x8fff0000>
9d01352c:	02002025 	move	a0,s0
9d013530:	8fbf001c 	lw	ra,28(sp)
9d013534:	02201025 	move	v0,s1
9d013538:	8fb20018 	lw	s2,24(sp)
9d01353c:	8fb10014 	lw	s1,20(sp)
9d013540:	8fb00010 	lw	s0,16(sp)
9d013544:	03e00008 	jr	ra
9d013548:	27bd0020 	addiu	sp,sp,32
9d01354c:	00a69021 	addu	s2,a1,a2
9d013550:	82040000 	lb	a0,0(s0)
9d013554:	0f4046c0 	jal	9d011b00 <_mon_putc>
9d013558:	26100001 	addiu	s0,s0,1
9d01355c:	1650fffc 	bne	s2,s0,9d013550 <write+0x6c>
9d013560:	8fbf001c 	lw	ra,28(sp)
9d013564:	1000fff4 	b	9d013538 <write+0x54>
9d013568:	02201025 	move	v0,s1

Disassembly of section .text.__vsnprintf:

9d01356c <__vsnprintf>:
9d01356c:	27bdffc8 	addiu	sp,sp,-56
9d013570:	2403ffff 	li	v1,-1
9d013574:	afa30010 	sw	v1,16(sp)
9d013578:	24030102 	li	v1,258
9d01357c:	00a01025 	move	v0,a1
9d013580:	afbf0034 	sw	ra,52(sp)
9d013584:	00c02825 	move	a1,a2
9d013588:	afa30014 	sw	v1,20(sp)
9d01358c:	14800002 	bnez	a0,9d013598 <__vsnprintf+0x2c>
9d013590:	00e03025 	move	a2,a3
9d013594:	27a4002c 	addiu	a0,sp,44
9d013598:	afa40018 	sw	a0,24(sp)
9d01359c:	afa2001c 	sw	v0,28(sp)
9d0135a0:	10400002 	beqz	v0,9d0135ac <__vsnprintf+0x40>
9d0135a4:	00001825 	move	v1,zero
9d0135a8:	2443ffff 	addiu	v1,v0,-1
9d0135ac:	04410008 	bgez	v0,9d0135d0 <__vsnprintf+0x64>
9d0135b0:	afa30020 	sw	v1,32(sp)
9d0135b4:	3c02a000 	lui	v0,0xa000
9d0135b8:	2403004f 	li	v1,79
9d0135bc:	ac432404 	sw	v1,9220(v0)
9d0135c0:	2402ffff 	li	v0,-1
9d0135c4:	8fbf0034 	lw	ra,52(sp)
9d0135c8:	03e00008 	jr	ra
9d0135cc:	27bd0038 	addiu	sp,sp,56
9d0135d0:	afa40028 	sw	a0,40(sp)
9d0135d4:	afa40024 	sw	a0,36(sp)
9d0135d8:	a0800000 	sb	zero,0(a0)
9d0135dc:	0f4050b1 	jal	9d0142c4 <__vfprintf>
9d0135e0:	27a40010 	addiu	a0,sp,16
9d0135e4:	1000fff8 	b	9d0135c8 <__vsnprintf+0x5c>
9d0135e8:	8fbf0034 	lw	ra,52(sp)

Disassembly of section .text.fptoli:

9d0135ec <__fixsfsi>:
9d0135ec:	00042a00 3c018000 00a12825 00043dc2     .*.....<%(...=..
9d0135fc:	30e700ff 2406009e 00c73023 18c0000d     ...0...$#0......
9d01360c:	00000000 28c10020 14200003 00000000     .... ..(.. .....
9d01361c:	10000005 24020000                       .......$

9d013624 <i42>:
9d013624:	04810002 	bgez	a0,9d013630 <i43>
9d013628:	00c52806 	srlv	a1,a1,a2
9d01362c:	00052823 	negu	a1,a1

9d013630 <i43>:
9d013630:	00051025 	or	v0,zero,a1

9d013634 <G999>:
9d013634:	03e00008 	jr	ra
9d013638:	00000000 	nop
9d01363c:	00000000 	nop

9d013640 <Gspec>:
9d013640:	3c017f80 	lui	at,0x7f80
9d013644:	34210001 	ori	at,at,0x1
9d013648:	0081082b 	sltu	at,a0,at
9d01364c:	14200003 	bnez	at,9d01365c <i44>
9d013650:	00000000 	nop
9d013654:	1000fff7 	b	9d013634 <G999>
9d013658:	3c028000 	lui	v0,0x8000

9d01365c <i44>:
9d01365c:	3c027fff 	lui	v0,0x7fff
9d013660:	1000fff4 	b	9d013634 <G999>
9d013664:	3442ffff 	ori	v0,v0,0xffff
9d013668:	00000000 	nop

Disassembly of section .text.dremf:

9d01366c <dremf>:
9d01366c:	27bdffe0 	addiu	sp,sp,-32
9d013670:	afb10014 	sw	s1,20(sp)
9d013674:	afb00010 	sw	s0,16(sp)
9d013678:	00e08825 	move	s1,a3
9d01367c:	00c08025 	move	s0,a2
9d013680:	afbf001c 	sw	ra,28(sp)
9d013684:	0f404818 	jal	9d012060 <__truncdfsf2>
9d013688:	afb20018 	sw	s2,24(sp)
9d01368c:	02202825 	move	a1,s1
9d013690:	02002025 	move	a0,s0
9d013694:	0f404818 	jal	9d012060 <__truncdfsf2>
9d013698:	00409025 	move	s2,v0
9d01369c:	0f404aac 	jal	9d012ab0 <__extendsfdf2>
9d0136a0:	00402025 	move	a0,v0
9d0136a4:	02402025 	move	a0,s2
9d0136a8:	00408025 	move	s0,v0
9d0136ac:	0f404aac 	jal	9d012ab0 <__extendsfdf2>
9d0136b0:	00608825 	move	s1,v1
9d0136b4:	00402025 	move	a0,v0
9d0136b8:	02003025 	move	a2,s0
9d0136bc:	02203825 	move	a3,s1
9d0136c0:	0f4034fa 	jal	9d00d3e8 <dreml>
9d0136c4:	00602825 	move	a1,v1
9d0136c8:	00402025 	move	a0,v0
9d0136cc:	0f404818 	jal	9d012060 <__truncdfsf2>
9d0136d0:	00602825 	move	a1,v1
9d0136d4:	8fbf001c 	lw	ra,28(sp)
9d0136d8:	8fb20018 	lw	s2,24(sp)
9d0136dc:	8fb10014 	lw	s1,20(sp)
9d0136e0:	8fb00010 	lw	s0,16(sp)
9d0136e4:	03e00008 	jr	ra
9d0136e8:	27bd0020 	addiu	sp,sp,32

Disassembly of section .text:

9d0136ec <__dinit_copy_emb>:
9d0136ec:	03e00008 	jr	ra
9d0136f0:	00000000 	nop

9d0136f4 <__pic32_data_init>:
9d0136f4:	03e01825 	move	v1,ra

9d0136f8 <_dinit_init>:
9d0136f8:	3c049d01 	lui	a0,0x9d01
9d0136fc:	24840b30 	addiu	a0,a0,2864
9d013700:	10800016 	beqz	a0,9d01375c <_dinit_init+0x64>
9d013704:	00000000 	nop
9d013708:	8c850000 	lw	a1,0(a0)
9d01370c:	10a00013 	beqz	a1,9d01375c <_dinit_init+0x64>
9d013710:	24840004 	addiu	a0,a0,4
9d013714:	8c860000 	lw	a2,0(a0)
9d013718:	24840004 	addiu	a0,a0,4
9d01371c:	848b0000 	lh	t3,0(a0)
9d013720:	24840004 	addiu	a0,a0,4
9d013724:	3c0c9d01 	lui	t4,0x9d01
9d013728:	258c4b10 	addiu	t4,t4,19216
9d01372c:	000b5880 	sll	t3,t3,0x2
9d013730:	016c6021 	addu	t4,t3,t4
9d013734:	8d8c0000 	lw	t4,0(t4)
9d013738:	0180f809 	jalr	t4
9d01373c:	00000000 	nop
9d013740:	00402025 	move	a0,v0
9d013744:	24840003 	addiu	a0,a0,3
9d013748:	2406fffc 	li	a2,-4
9d01374c:	00c42024 	and	a0,a2,a0
9d013750:	8c850000 	lw	a1,0(a0)
9d013754:	14a0ffec 	bnez	a1,9d013708 <_dinit_init+0x10>
9d013758:	00000000 	nop
9d01375c:	0060f825 	move	ra,v1
9d013760:	03e00008 	jr	ra
9d013764:	00000000 	nop

Disassembly of section .text.atoi:

9d013768 <atoi>:
9d013768:	24050020 	li	a1,32
9d01376c:	80820000 	lb	v0,0(a0)
9d013770:	1045000d 	beq	v0,a1,9d0137a8 <atoi+0x40>
9d013774:	2443fff7 	addiu	v1,v0,-9
9d013778:	2c630005 	sltiu	v1,v1,5
9d01377c:	1460000a 	bnez	v1,9d0137a8 <atoi+0x40>
9d013780:	2403002b 	li	v1,43
9d013784:	1043000a 	beq	v0,v1,9d0137b0 <atoi+0x48>
9d013788:	2403002d 	li	v1,45
9d01378c:	14430003 	bne	v0,v1,9d01379c <atoi+0x34>
9d013790:	00002825 	move	a1,zero
9d013794:	24050001 	li	a1,1
9d013798:	24840001 	addiu	a0,a0,1
9d01379c:	00001025 	move	v0,zero
9d0137a0:	10000007 	b	9d0137c0 <atoi+0x58>
9d0137a4:	2407000a 	li	a3,10
9d0137a8:	1000fff0 	b	9d01376c <atoi+0x4>
9d0137ac:	24840001 	addiu	a0,a0,1
9d0137b0:	1000fff9 	b	9d013798 <atoi+0x30>
9d0137b4:	00002825 	move	a1,zero
9d0137b8:	24840001 	addiu	a0,a0,1
9d0137bc:	00431023 	subu	v0,v0,v1
9d0137c0:	80830000 	lb	v1,0(a0)
9d0137c4:	2463ffd0 	addiu	v1,v1,-48
9d0137c8:	2c66000a 	sltiu	a2,v1,10
9d0137cc:	54c0fffa 	bnezl	a2,9d0137b8 <atoi+0x50>
9d0137d0:	70471002 	mul	v0,v0,a3
9d0137d4:	50a00001 	beqzl	a1,9d0137dc <atoi+0x74>
9d0137d8:	00021023 	negu	v0,v0
9d0137dc:	03e00008 	jr	ra
9d0137e0:	00000000 	nop

Disassembly of section .text.__readv:

9d0137e4 <readv>:
9d0137e4:	27bdffd8 	addiu	sp,sp,-40
9d0137e8:	afb40020 	sw	s4,32(sp)
9d0137ec:	afb3001c 	sw	s3,28(sp)
9d0137f0:	afb20018 	sw	s2,24(sp)
9d0137f4:	afb10014 	sw	s1,20(sp)
9d0137f8:	afb00010 	sw	s0,16(sp)
9d0137fc:	afbf0024 	sw	ra,36(sp)
9d013800:	0080a025 	move	s4,a0
9d013804:	00c09825 	move	s3,a2
9d013808:	00a08025 	move	s0,a1
9d01380c:	00008825 	move	s1,zero
9d013810:	00009025 	move	s2,zero
9d013814:	0253102a 	slt	v0,s2,s3
9d013818:	14400009 	bnez	v0,9d013840 <readv+0x5c>
9d01381c:	8fbf0024 	lw	ra,36(sp)
9d013820:	02201025 	move	v0,s1
9d013824:	8fb40020 	lw	s4,32(sp)
9d013828:	8fb3001c 	lw	s3,28(sp)
9d01382c:	8fb20018 	lw	s2,24(sp)
9d013830:	8fb10014 	lw	s1,20(sp)
9d013834:	8fb00010 	lw	s0,16(sp)
9d013838:	03e00008 	jr	ra
9d01383c:	27bd0028 	addiu	sp,sp,40
9d013840:	8e060004 	lw	a2,4(s0)
9d013844:	8e050000 	lw	a1,0(s0)
9d013848:	02802025 	move	a0,s4
9d01384c:	0f404590 	jal	9d011640 <read>
9d013850:	26520001 	addiu	s2,s2,1
9d013854:	02228821 	addu	s1,s1,v0
9d013858:	1000ffee 	b	9d013814 <readv+0x30>
9d01385c:	26100008 	addiu	s0,s0,8

Disassembly of section .text.litodp:

9d013860 <__floatsidf>:
9d013860:	24050000 00054825 00053825 00043025     ...$%H..%8..%0..
9d013870:	10c0000c 00000000 04c10006 00000000     ................
9d013880:	3c098000 0005502b 00052823 00063023     ...<+P..#(..#0..
9d013890:	00ca3023                                #0..

9d013894 <i40>:
9d013894:	2407041e 	li	a3,1054
9d013898:	70c84020 	clz	t0,a2
9d01389c:	00e83823 	subu	a3,a3,t0
9d0138a0:	01063004 	sllv	a2,a2,t0

9d0138a4 <i39>:
9d0138a4:	000542c2 	srl	t0,a1,0xb
9d0138a8:	00065540 	sll	t2,a2,0x15
9d0138ac:	010a4025 	or	t0,t0,t2
9d0138b0:	00065040 	sll	t2,a2,0x1
9d0138b4:	000a5302 	srl	t2,t2,0xc
9d0138b8:	012a4825 	or	t1,t1,t2
9d0138bc:	00075500 	sll	t2,a3,0x14
9d0138c0:	012a4825 	or	t1,t1,t2
9d0138c4:	00081025 	or	v0,zero,t0
9d0138c8:	00091825 	or	v1,zero,t1

9d0138cc <E999>:
9d0138cc:	03e00008 	jr	ra
9d0138d0:	00000000 	nop
9d0138d4:	00000000 	nop

Disassembly of section .text:

9d0138d8 <__floatdidf>:
9d0138d8:	27bdffe0 	addiu	sp,sp,-32
9d0138dc:	afb20018 	sw	s2,24(sp)
9d0138e0:	00809025 	move	s2,a0
9d0138e4:	00a02025 	move	a0,a1
9d0138e8:	afbf001c 	sw	ra,28(sp)
9d0138ec:	afb10014 	sw	s1,20(sp)
9d0138f0:	0f404e18 	jal	9d013860 <__floatsidf>
9d0138f4:	afb00010 	sw	s0,16(sp)
9d0138f8:	3c049d00 	lui	a0,0x9d00
9d0138fc:	8c8675a0 	lw	a2,30112(a0)
9d013900:	8c8775a4 	lw	a3,30116(a0)
9d013904:	00602825 	move	a1,v1
9d013908:	0f403d0b 	jal	9d00f42c <__muldf3>
9d01390c:	00402025 	move	a0,v0
9d013910:	02402025 	move	a0,s2
9d013914:	00408025 	move	s0,v0
9d013918:	0f405073 	jal	9d0141cc <__floatunsidf>
9d01391c:	00608825 	move	s1,v1
9d013920:	00402025 	move	a0,v0
9d013924:	02003025 	move	a2,s0
9d013928:	02203825 	move	a3,s1
9d01392c:	0f40382f 	jal	9d00e0bc <__adddf3>
9d013930:	00602825 	move	a1,v1
9d013934:	8fbf001c 	lw	ra,28(sp)
9d013938:	8fb20018 	lw	s2,24(sp)
9d01393c:	8fb10014 	lw	s1,20(sp)
9d013940:	8fb00010 	lw	s0,16(sp)
9d013944:	03e00008 	jr	ra
9d013948:	27bd0020 	addiu	sp,sp,32

Disassembly of section .text.__scan_d:

9d01394c <__scan_d>:
9d01394c:	27bdffd8 	addiu	sp,sp,-40
9d013950:	afb10020 	sw	s1,32(sp)
9d013954:	afb0001c 	sw	s0,28(sp)
9d013958:	00a08825 	move	s1,a1
9d01395c:	8cd0000c 	lw	s0,12(a2)
9d013960:	00c02825 	move	a1,a2
9d013964:	afbf0024 	sw	ra,36(sp)
9d013968:	0f404541 	jal	9d011504 <__read_int>
9d01396c:	00e03025 	move	a2,a3
9d013970:	2403ffff 	li	v1,-1
9d013974:	1043000c 	beq	v0,v1,9d0139a8 <__scan_d+0x5c>
9d013978:	02002025 	move	a0,s0
9d01397c:	2406000a 	li	a2,10
9d013980:	0f405152 	jal	9d014548 <strtoll>
9d013984:	27a50010 	addiu	a1,sp,16
9d013988:	ae220000 	sw	v0,0(s1)
9d01398c:	8fa20010 	lw	v0,16(sp)
9d013990:	ae230004 	sw	v1,4(s1)
9d013994:	2404fffe 	li	a0,-2
9d013998:	00501026 	xor	v0,v0,s0
9d01399c:	24030001 	li	v1,1
9d0139a0:	0082180a 	movz	v1,a0,v0
9d0139a4:	00601025 	move	v0,v1
9d0139a8:	8fbf0024 	lw	ra,36(sp)
9d0139ac:	8fb10020 	lw	s1,32(sp)
9d0139b0:	8fb0001c 	lw	s0,28(sp)
9d0139b4:	03e00008 	jr	ra
9d0139b8:	27bd0028 	addiu	sp,sp,40

Disassembly of section .text.__consumews:

9d0139bc <__consumews>:
9d0139bc:	8ca20000 	lw	v0,0(a1)
9d0139c0:	24030020 	li	v1,32
9d0139c4:	80420000 	lb	v0,0(v0)
9d0139c8:	10430004 	beq	v0,v1,9d0139dc <__consumews+0x20>
9d0139cc:	2442fff7 	addiu	v0,v0,-9
9d0139d0:	2c430005 	sltiu	v1,v0,5
9d0139d4:	10600013 	beqz	v1,9d013a24 <__consumews+0x68>
9d0139d8:	00001025 	move	v0,zero
9d0139dc:	27bdffe8 	addiu	sp,sp,-24
9d0139e0:	afb00010 	sw	s0,16(sp)
9d0139e4:	afbf0014 	sw	ra,20(sp)
9d0139e8:	0f404b54 	jal	9d012d50 <__skipws>
9d0139ec:	00a08025 	move	s0,a1
9d0139f0:	24040020 	li	a0,32
9d0139f4:	8e030000 	lw	v1,0(s0)
9d0139f8:	24650001 	addiu	a1,v1,1
9d0139fc:	ae050000 	sw	a1,0(s0)
9d013a00:	80630001 	lb	v1,1(v1)
9d013a04:	1064fffb 	beq	v1,a0,9d0139f4 <__consumews+0x38>
9d013a08:	2463fff7 	addiu	v1,v1,-9
9d013a0c:	2c630005 	sltiu	v1,v1,5
9d013a10:	1460fff8 	bnez	v1,9d0139f4 <__consumews+0x38>
9d013a14:	8fbf0014 	lw	ra,20(sp)
9d013a18:	8fb00010 	lw	s0,16(sp)
9d013a1c:	03e00008 	jr	ra
9d013a20:	27bd0018 	addiu	sp,sp,24
9d013a24:	03e00008 	jr	ra
9d013a28:	00000000 	nop

Disassembly of section .text.__putc:

9d013a2c <__putc>:
9d013a2c:	8ca20004 	lw	v0,4(a1)
9d013a30:	27bdffe8 	addiu	sp,sp,-24
9d013a34:	30420020 	andi	v0,v0,0x20
9d013a38:	14400006 	bnez	v0,9d013a54 <__putc+0x28>
9d013a3c:	afbf0014 	sw	ra,20(sp)
9d013a40:	0f404f11 	jal	9d013c44 <__putc_unbuffered>
9d013a44:	00000000 	nop
9d013a48:	8fbf0014 	lw	ra,20(sp)
9d013a4c:	03e00008 	jr	ra
9d013a50:	27bd0018 	addiu	sp,sp,24
9d013a54:	00803025 	move	a2,a0
9d013a58:	308200ff 	andi	v0,a0,0xff
9d013a5c:	80a40034 	lb	a0,52(a1)
9d013a60:	10820009 	beq	a0,v0,9d013a88 <__putc+0x5c>
9d013a64:	00a01825 	move	v1,a1
9d013a68:	8ca40014 	lw	a0,20(a1)
9d013a6c:	8ca50028 	lw	a1,40(a1)
9d013a70:	0085282b 	sltu	a1,a0,a1
9d013a74:	10a00004 	beqz	a1,9d013a88 <__putc+0x5c>
9d013a78:	24850001 	addiu	a1,a0,1
9d013a7c:	ac650014 	sw	a1,20(v1)
9d013a80:	1000fff1 	b	9d013a48 <__putc+0x1c>
9d013a84:	a0860000 	sb	a2,0(a0)
9d013a88:	00c02825 	move	a1,a2
9d013a8c:	0f404c64 	jal	9d013190 <__overflow>
9d013a90:	00602025 	move	a0,v1
9d013a94:	1000ffed 	b	9d013a4c <__putc+0x20>
9d013a98:	8fbf0014 	lw	ra,20(sp)

Disassembly of section .text.__simple_free:

9d013a9c <__simple_free>:
9d013a9c:	10800017 	beqz	a0,9d013afc <__simple_free+0x60>
9d013aa0:	3c07a000 	lui	a3,0xa000
9d013aa4:	8ce22408 	lw	v0,9224(a3)
9d013aa8:	2486fff0 	addiu	a2,a0,-16
9d013aac:	10400015 	beqz	v0,9d013b04 <__simple_free+0x68>
9d013ab0:	00e04025 	move	t0,a3
9d013ab4:	8c83fff0 	lw	v1,-16(a0)
9d013ab8:	8c450000 	lw	a1,0(v0)
9d013abc:	00834821 	addu	t1,a0,v1
9d013ac0:	14490007 	bne	v0,t1,9d013ae0 <__simple_free+0x44>
9d013ac4:	24a50010 	addiu	a1,a1,16
9d013ac8:	8c420010 	lw	v0,16(v0)
9d013acc:	00651821 	addu	v1,v1,a1
9d013ad0:	ac83fff0 	sw	v1,-16(a0)
9d013ad4:	ac820000 	sw	v0,0(a0)
9d013ad8:	03e00008 	jr	ra
9d013adc:	ace62408 	sw	a2,9224(a3)
9d013ae0:	00453821 	addu	a3,v0,a1
9d013ae4:	14c70003 	bne	a2,a3,9d013af4 <__simple_free+0x58>
9d013ae8:	00651821 	addu	v1,v1,a1
9d013aec:	03e00008 	jr	ra
9d013af0:	ac430000 	sw	v1,0(v0)
9d013af4:	ac820000 	sw	v0,0(a0)
9d013af8:	ad062408 	sw	a2,9224(t0)
9d013afc:	03e00008 	jr	ra
9d013b00:	00000000 	nop
9d013b04:	1000fffc 	b	9d013af8 <__simple_free+0x5c>
9d013b08:	ac800000 	sw	zero,0(a0)

Disassembly of section .text.__vsscanf:

9d013b0c <__vsscanf>:
9d013b0c:	27bdff80 	addiu	sp,sp,-128
9d013b10:	afb20078 	sw	s2,120(sp)
9d013b14:	afb10074 	sw	s1,116(sp)
9d013b18:	afb00070 	sw	s0,112(sp)
9d013b1c:	00a08825 	move	s1,a1
9d013b20:	00808025 	move	s0,a0
9d013b24:	00c09025 	move	s2,a2
9d013b28:	27a40010 	addiu	a0,sp,16
9d013b2c:	24060060 	li	a2,96
9d013b30:	afbf007c 	sw	ra,124(sp)
9d013b34:	0f4051f2 	jal	9d0147c8 <memset>
9d013b38:	00002825 	move	a1,zero
9d013b3c:	3c029d01 	lui	v0,0x9d01
9d013b40:	244249b0 	addiu	v0,v0,18864
9d013b44:	02403025 	move	a2,s2
9d013b48:	02202825 	move	a1,s1
9d013b4c:	27a40010 	addiu	a0,sp,16
9d013b50:	afb00018 	sw	s0,24(sp)
9d013b54:	afb00048 	sw	s0,72(sp)
9d013b58:	0f4050a2 	jal	9d014288 <__vfscanf>
9d013b5c:	afa20054 	sw	v0,84(sp)
9d013b60:	8fbf007c 	lw	ra,124(sp)
9d013b64:	8fb20078 	lw	s2,120(sp)
9d013b68:	8fb10074 	lw	s1,116(sp)
9d013b6c:	8fb00070 	lw	s0,112(sp)
9d013b70:	03e00008 	jr	ra
9d013b74:	27bd0080 	addiu	sp,sp,128

Disassembly of section .text.a_clz_64:

9d013b78 <a_clz_64>:
9d013b78:	24030020 	li	v1,32
9d013b7c:	00a5200b 	movn	a0,a1,a1
9d013b80:	0005180b 	movn	v1,zero,a1
9d013b84:	00042c02 	srl	a1,a0,0x10
9d013b88:	14a00004 	bnez	a1,9d013b9c <a_clz_64+0x24>
9d013b8c:	00051202 	srl	v0,a1,0x8
9d013b90:	34630010 	ori	v1,v1,0x10
9d013b94:	00802825 	move	a1,a0
9d013b98:	00051202 	srl	v0,a1,0x8
9d013b9c:	14400004 	bnez	v0,9d013bb0 <a_clz_64+0x38>
9d013ba0:	00022102 	srl	a0,v0,0x4
9d013ba4:	34630008 	ori	v1,v1,0x8
9d013ba8:	00a01025 	move	v0,a1
9d013bac:	00022102 	srl	a0,v0,0x4
9d013bb0:	54800004 	bnezl	a0,9d013bc4 <a_clz_64+0x4c>
9d013bb4:	00041082 	srl	v0,a0,0x2
9d013bb8:	34630004 	ori	v1,v1,0x4
9d013bbc:	00402025 	move	a0,v0
9d013bc0:	00041082 	srl	v0,a0,0x2
9d013bc4:	54400004 	bnezl	v0,9d013bd8 <a_clz_64+0x60>
9d013bc8:	00021042 	srl	v0,v0,0x1
9d013bcc:	34630002 	ori	v1,v1,0x2
9d013bd0:	00801025 	move	v0,a0
9d013bd4:	00021042 	srl	v0,v0,0x1
9d013bd8:	38420001 	xori	v0,v0,0x1
9d013bdc:	03e00008 	jr	ra
9d013be0:	00431025 	or	v0,v0,v1

Disassembly of section .text.__string_out:

9d013be4 <__string_out>:
9d013be4:	8c820010 	lw	v0,16(a0)
9d013be8:	27bdffe0 	addiu	sp,sp,-32
9d013bec:	afb10018 	sw	s1,24(sp)
9d013bf0:	00c2882b 	sltu	s1,a2,v0
9d013bf4:	0051300a 	movz	a2,v0,s1
9d013bf8:	afbf001c 	sw	ra,28(sp)
9d013bfc:	10c0000c 	beqz	a2,9d013c30 <__string_out+0x4c>
9d013c00:	afb00014 	sw	s0,20(sp)
9d013c04:	00808025 	move	s0,a0
9d013c08:	8c840014 	lw	a0,20(a0)
9d013c0c:	0f4051aa 	jal	9d0146a8 <memcpy>
9d013c10:	00c08825 	move	s1,a2
9d013c14:	8e020014 	lw	v0,20(s0)
9d013c18:	8e060010 	lw	a2,16(s0)
9d013c1c:	00511021 	addu	v0,v0,s1
9d013c20:	00d18823 	subu	s1,a2,s1
9d013c24:	ae020014 	sw	v0,20(s0)
9d013c28:	ae110010 	sw	s1,16(s0)
9d013c2c:	a0400000 	sb	zero,0(v0)
9d013c30:	8fbf001c 	lw	ra,28(sp)
9d013c34:	8fb10018 	lw	s1,24(sp)
9d013c38:	8fb00014 	lw	s0,20(sp)
9d013c3c:	03e00008 	jr	ra
9d013c40:	27bd0020 	addiu	sp,sp,32

Disassembly of section .text.__putc_unbuffered:

9d013c44 <__putc_unbuffered>:
9d013c44:	8ca20004 	lw	v0,4(a1)
9d013c48:	27bdffe0 	addiu	sp,sp,-32
9d013c4c:	308300ff 	andi	v1,a0,0xff
9d013c50:	30420100 	andi	v0,v0,0x100
9d013c54:	afbf001c 	sw	ra,28(sp)
9d013c58:	1040000a 	beqz	v0,9d013c84 <__putc_unbuffered+0x40>
9d013c5c:	a3a30010 	sb	v1,16(sp)
9d013c60:	8ca20014 	lw	v0,20(a1)
9d013c64:	308400ff 	andi	a0,a0,0xff
9d013c68:	24460001 	addiu	a2,v0,1
9d013c6c:	aca60014 	sw	a2,20(a1)
9d013c70:	a0430000 	sb	v1,0(v0)
9d013c74:	8fbf001c 	lw	ra,28(sp)
9d013c78:	00801025 	move	v0,a0
9d013c7c:	03e00008 	jr	ra
9d013c80:	27bd0020 	addiu	sp,sp,32
9d013c84:	00a02025 	move	a0,a1
9d013c88:	24060001 	li	a2,1
9d013c8c:	0f40510a 	jal	9d014428 <__fwrite>
9d013c90:	27a50010 	addiu	a1,sp,16
9d013c94:	1040fff7 	beqz	v0,9d013c74 <__putc_unbuffered+0x30>
9d013c98:	2404ffff 	li	a0,-1
9d013c9c:	1000fff5 	b	9d013c74 <__putc_unbuffered+0x30>
9d013ca0:	93a40010 	lbu	a0,16(sp)

Disassembly of section .text.__fopen_std:

9d013ca4 <__fopen_std>:
9d013ca4:	27bdffe8 	addiu	sp,sp,-24
9d013ca8:	afb00010 	sw	s0,16(sp)
9d013cac:	afbf0014 	sw	ra,20(sp)
9d013cb0:	0f404a54 	jal	9d012950 <__simple_malloc>
9d013cb4:	24040038 	li	a0,56
9d013cb8:	1040000d 	beqz	v0,9d013cf0 <__fopen_std+0x4c>
9d013cbc:	00408025 	move	s0,v0
9d013cc0:	24060038 	li	a2,56
9d013cc4:	00002825 	move	a1,zero
9d013cc8:	0f4051f2 	jal	9d0147c8 <memset>
9d013ccc:	00402025 	move	a0,v0
9d013cd0:	3c029d01 	lui	v0,0x9d01
9d013cd4:	2442488c 	addiu	v0,v0,18572
9d013cd8:	ae02002c 	sw	v0,44(s0)
9d013cdc:	3c029d01 	lui	v0,0x9d01
9d013ce0:	244230fc 	addiu	v0,v0,12540
9d013ce4:	ae020030 	sw	v0,48(s0)
9d013ce8:	2402ffff 	li	v0,-1
9d013cec:	a2020034 	sb	v0,52(s0)
9d013cf0:	8fbf0014 	lw	ra,20(sp)
9d013cf4:	02001025 	move	v0,s0
9d013cf8:	8fb00010 	lw	s0,16(sp)
9d013cfc:	03e00008 	jr	ra
9d013d00:	27bd0018 	addiu	sp,sp,24

Disassembly of section .text.sitofp:

9d013d04 <__floatsisf>:
9d013d04:	3c018000 10800012 00813024 04810002     ...<....$0......
9d013d14:	00000000 00042023                       ....# ..

9d013d1c <i40>:
9d013d1c:	2405009e 	li	a1,158
9d013d20:	70873820 	clz	a3,a0
9d013d24:	00a72823 	subu	a1,a1,a3
9d013d28:	00e42004 	sllv	a0,a0,a3
9d013d2c:	24840080 	addiu	a0,a0,128
9d013d30:	2c880080 	sltiu	t0,a0,128
9d013d34:	00a82821 	addu	a1,a1,t0
9d013d38:	00044203 	sra	t0,a0,0x8
9d013d3c:	31080001 	andi	t0,t0,0x1
9d013d40:	00882023 	subu	a0,a0,t0
9d013d44:	00042040 	sll	a0,a0,0x1
9d013d48:	00042242 	srl	a0,a0,0x9
9d013d4c:	000545c0 	sll	t0,a1,0x17
9d013d50:	00882025 	or	a0,a0,t0

9d013d54 <i39>:
9d013d54:	00861025 	or	v0,a0,a2

9d013d58 <E999>:
9d013d58:	03e00008 	jr	ra
9d013d5c:	00000000 	nop
9d013d60:	00000000 	nop

Disassembly of section .text.__fmt_state:

9d013d64 <__fmt_state>:
9d013d64:	3c069d01 	lui	a2,0x9d01
9d013d68:	00001025 	move	v0,zero
9d013d6c:	24c64ae0 	addiu	a2,a2,19168
9d013d70:	00021840 	sll	v1,v0,0x1
9d013d74:	00661821 	addu	v1,v1,a2
9d013d78:	80670000 	lb	a3,0(v1)
9d013d7c:	54e00003 	bnezl	a3,9d013d8c <__fmt_state+0x28>
9d013d80:	8c850000 	lw	a1,0(a0)
9d013d84:	03e00008 	jr	ra
9d013d88:	90620001 	lbu	v0,1(v1)
9d013d8c:	24420001 	addiu	v0,v0,1
9d013d90:	80a80000 	lb	t0,0(a1)
9d013d94:	15070004 	bne	t0,a3,9d013da8 <__fmt_state+0x44>
9d013d98:	304200ff 	andi	v0,v0,0xff
9d013d9c:	90620001 	lbu	v0,1(v1)
9d013da0:	24a50001 	addiu	a1,a1,1
9d013da4:	ac850000 	sw	a1,0(a0)
9d013da8:	2c43000b 	sltiu	v1,v0,11
9d013dac:	1460fff1 	bnez	v1,9d013d74 <__fmt_state+0x10>
9d013db0:	00021840 	sll	v1,v0,0x1
9d013db4:	03e00008 	jr	ra
9d013db8:	00000000 	nop

Disassembly of section .text:

9d013dbc <set_mode>:

// Define the global mode variable
volatile mode_t mode = IDLE;  // Initialize to a default state

// Function to set the mode
void set_mode(mode_t new_mode) {
9d013dbc:	27bdfff8 	addiu	sp,sp,-8
9d013dc0:	afbe0004 	sw	s8,4(sp)
9d013dc4:	03a0f025 	move	s8,sp
9d013dc8:	afc40008 	sw	a0,8(s8)
    mode = new_mode;
9d013dcc:	8fc20008 	lw	v0,8(s8)
9d013dd0:	af828060 	sw	v0,-32672(gp)
}
9d013dd4:	00000000 	nop
9d013dd8:	03c0e825 	move	sp,s8
9d013ddc:	8fbe0004 	lw	s8,4(sp)
9d013de0:	27bd0008 	addiu	sp,sp,8
9d013de4:	03e00008 	jr	ra
9d013de8:	00000000 	nop

9d013dec <get_mode>:

// Function to get the mode
mode_t get_mode(void) {
9d013dec:	27bdfff8 	addiu	sp,sp,-8
9d013df0:	afbe0004 	sw	s8,4(sp)
9d013df4:	03a0f025 	move	s8,sp
    return mode;
9d013df8:	8f828060 	lw	v0,-32672(gp)
}
9d013dfc:	03c0e825 	move	sp,s8
9d013e00:	8fbe0004 	lw	s8,4(sp)
9d013e04:	27bd0008 	addiu	sp,sp,8
9d013e08:	03e00008 	jr	ra
9d013e0c:	00000000 	nop

Disassembly of section .text.main_entry:

9d013e10 <_main_entry>:
9d013e10:	3c040000 	lui	a0,0x0
9d013e14:	27bdffe8 	addiu	sp,sp,-24
9d013e18:	24840000 	addiu	a0,a0,0
9d013e1c:	10800003 	beqz	a0,9d013e2c <_main_entry+0x1c>
9d013e20:	afbf0014 	sw	ra,20(sp)
9d013e24:	0080f809 	jalr	a0
9d013e28:	00000000 	nop
9d013e2c:	30840000 	andi	a0,a0,0x0
9d013e30:	30a50000 	andi	a1,a1,0x0
9d013e34:	3c089d01 	lui	t0,0x9d01
9d013e38:	250886a4 	addiu	t0,t0,-31068
9d013e3c:	0100f809 	jalr	t0
9d013e40:	00000000 	nop

9d013e44 <__crt0_exit>:
9d013e44:	3c020000 24420000 10400003 00000000     ...<..B$..@.....
9d013e54:	0040f809 00000000 1000fff9 00000000     ..@.............

Disassembly of section .text.__uflow:

9d013e64 <__uflow>:
9d013e64:	27bdffe0 	addiu	sp,sp,-32
9d013e68:	afb00018 	sw	s0,24(sp)
9d013e6c:	afbf001c 	sw	ra,28(sp)
9d013e70:	0f404c1a 	jal	9d013068 <__toread>
9d013e74:	00808025 	move	s0,a0
9d013e78:	50400006 	beqzl	v0,9d013e94 <__uflow+0x30>
9d013e7c:	8e020044 	lw	v0,68(s0)
9d013e80:	2402ffff 	li	v0,-1
9d013e84:	8fbf001c 	lw	ra,28(sp)
9d013e88:	8fb00018 	lw	s0,24(sp)
9d013e8c:	03e00008 	jr	ra
9d013e90:	27bd0020 	addiu	sp,sp,32
9d013e94:	24060001 	li	a2,1
9d013e98:	27a50010 	addiu	a1,sp,16
9d013e9c:	0040f809 	jalr	v0
9d013ea0:	02002025 	move	a0,s0
9d013ea4:	24030001 	li	v1,1
9d013ea8:	1443fff5 	bne	v0,v1,9d013e80 <__uflow+0x1c>
9d013eac:	93a20010 	lbu	v0,16(sp)
9d013eb0:	1000fff5 	b	9d013e88 <__uflow+0x24>
9d013eb4:	8fbf001c 	lw	ra,28(sp)

Disassembly of section .text.__pop_float:

9d013eb8 <__pop_float>:
9d013eb8:	28a30080 	slti	v1,a1,128
9d013ebc:	14600010 	bnez	v1,9d013f00 <__pop_float+0x48>
9d013ec0:	00001025 	move	v0,zero
9d013ec4:	28a30082 	slti	v1,a1,130
9d013ec8:	14600003 	bnez	v1,9d013ed8 <__pop_float+0x20>
9d013ecc:	24030083 	li	v1,131
9d013ed0:	14a3000b 	bne	a1,v1,9d013f00 <__pop_float+0x48>
9d013ed4:	00000000 	nop
9d013ed8:	8cc20000 	lw	v0,0(a2)
9d013edc:	24420007 	addiu	v0,v0,7
9d013ee0:	7c021004 	ins	v0,zero,0x0,0x3
9d013ee4:	24430008 	addiu	v1,v0,8
9d013ee8:	acc30000 	sw	v1,0(a2)
9d013eec:	8c430004 	lw	v1,4(v0)
9d013ef0:	8c420000 	lw	v0,0(v0)
9d013ef4:	ac830004 	sw	v1,4(a0)
9d013ef8:	ac820000 	sw	v0,0(a0)
9d013efc:	24020001 	li	v0,1
9d013f00:	03e00008 	jr	ra
9d013f04:	00000000 	nop

Disassembly of section .text.__stdio_exit:

9d013f08 <__stdio_exit>:
9d013f08:	27bdffe8 	addiu	sp,sp,-24
9d013f0c:	afbf0014 	sw	ra,20(sp)
9d013f10:	0f4052f0 	jal	9d014bc0 <__stdio_exit_ofl>
9d013f14:	00000000 	nop
9d013f18:	3c02a000 	lui	v0,0xa000
9d013f1c:	8c442400 	lw	a0,9216(v0)
9d013f20:	0f4050fc 	jal	9d0143f0 <__fclose>
9d013f24:	00002825 	move	a1,zero
9d013f28:	3c02a000 	lui	v0,0xa000
9d013f2c:	8c442400 	lw	a0,9216(v0)
9d013f30:	0f4050fc 	jal	9d0143f0 <__fclose>
9d013f34:	00002825 	move	a1,zero
9d013f38:	3c02a000 	lui	v0,0xa000
9d013f3c:	8c442400 	lw	a0,9216(v0)
9d013f40:	0f4050fc 	jal	9d0143f0 <__fclose>
9d013f44:	00002825 	move	a1,zero
9d013f48:	8fbf0014 	lw	ra,20(sp)
9d013f4c:	03e00008 	jr	ra
9d013f50:	27bd0018 	addiu	sp,sp,24

Disassembly of section .text._bootstrap_exception_handler:

9d013f54 <_bootstrap_exception_handler>:
9d013f54:	3c020000 	lui	v0,0x0
9d013f58:	24420000 	addiu	v0,v0,0
9d013f5c:	10400005 	beqz	v0,9d013f74 <_bootstrap_exception_handler+0x20>
9d013f60:	3c020000 	lui	v0,0x0
9d013f64:	24420000 	addiu	v0,v0,0
9d013f68:	10400003 	beqz	v0,9d013f78 <_bootstrap_exception_handler+0x24>
9d013f6c:	3c029d01 	lui	v0,0x9d01
9d013f70:	7000003f 	sdbbp
9d013f74:	3c029d01 	lui	v0,0x9d01
9d013f78:	244240bc 	addiu	v0,v0,16572
9d013f7c:	10400005 	beqz	v0,9d013f94 <_bootstrap_exception_handler+0x40>
9d013f80:	00000000 	nop
9d013f84:	27bdffe8 	addiu	sp,sp,-24
9d013f88:	afbf0014 	sw	ra,20(sp)
9d013f8c:	0040f809 	jalr	v0
9d013f90:	00000000 	nop
9d013f94:	1000ffff 	b	9d013f94 <_bootstrap_exception_handler+0x40>
9d013f98:	00000000 	nop

Disassembly of section .text._general_exception_handler:

9d013f9c <_general_exception_handler>:
9d013f9c:	3c020000 	lui	v0,0x0
9d013fa0:	24420000 	addiu	v0,v0,0
9d013fa4:	10400005 	beqz	v0,9d013fbc <_general_exception_handler+0x20>
9d013fa8:	3c020000 	lui	v0,0x0
9d013fac:	24420000 	addiu	v0,v0,0
9d013fb0:	10400003 	beqz	v0,9d013fc0 <_general_exception_handler+0x24>
9d013fb4:	3c029d01 	lui	v0,0x9d01
9d013fb8:	7000003f 	sdbbp
9d013fbc:	3c029d01 	lui	v0,0x9d01
9d013fc0:	244240bc 	addiu	v0,v0,16572
9d013fc4:	10400005 	beqz	v0,9d013fdc <_general_exception_handler+0x40>
9d013fc8:	00000000 	nop
9d013fcc:	27bdffe8 	addiu	sp,sp,-24
9d013fd0:	afbf0014 	sw	ra,20(sp)
9d013fd4:	0040f809 	jalr	v0
9d013fd8:	00000000 	nop
9d013fdc:	1000ffff 	b	9d013fdc <_general_exception_handler+0x40>
9d013fe0:	00000000 	nop

Disassembly of section .vector_default:

9d013fe4 <_DefaultInterrupt>:
9d013fe4:	3c020000 	lui	v0,0x0
9d013fe8:	24420000 	addiu	v0,v0,0
9d013fec:	10400007 	beqz	v0,9d01400c <_DefaultInterrupt+0x28>
9d013ff0:	3c020000 	lui	v0,0x0
9d013ff4:	24420000 	addiu	v0,v0,0
9d013ff8:	50400005 	beqzl	v0,9d014010 <_DefaultInterrupt+0x2c>
9d013ffc:	3c029d01 	lui	v0,0x9d01
9d014000:	7000003f 	sdbbp
9d014004:	03e00008 	jr	ra
9d014008:	00000000 	nop
9d01400c:	3c029d01 	lui	v0,0x9d01
9d014010:	244240bc 	addiu	v0,v0,16572
9d014014:	10400003 	beqz	v0,9d014024 <_DefaultInterrupt+0x40>
9d014018:	00000000 	nop
9d01401c:	0040f809 	jalr	v0
9d014020:	00000000 	nop
9d014024:	03e00008 	jr	ra
9d014028:	00000000 	nop

Disassembly of section .text.__ftello_adj_rw:

9d01402c <__ftello_adj_rw>:
9d01402c:	8c820004 	lw	v0,4(a0)
9d014030:	30460002 	andi	a2,v0,0x2
9d014034:	14c00004 	bnez	a2,9d014048 <__ftello_adj_rw+0x1c>
9d014038:	00001825 	move	v1,zero
9d01403c:	8c830040 	lw	v1,64(a0)
9d014040:	8c86003c 	lw	a2,60(a0)
9d014044:	00661823 	subu	v1,v1,a2
9d014048:	8c870014 	lw	a3,20(a0)
9d01404c:	8c860018 	lw	a2,24(a0)
9d014050:	00e62023 	subu	a0,a3,a2
9d014054:	00831821 	addu	v1,a0,v1
9d014058:	aca30000 	sw	v1,0(a1)
9d01405c:	30430040 	andi	v1,v0,0x40
9d014060:	10600002 	beqz	v1,9d01406c <__ftello_adj_rw+0x40>
9d014064:	00001025 	move	v0,zero
9d014068:	00c7102b 	sltu	v0,a2,a3
9d01406c:	03e00008 	jr	ra
9d014070:	00000000 	nop

Disassembly of section .text.__stdio_seek_unbuffered:

9d014074 <__stdio_seek_unbuffered>:
9d014074:	27bdffe8 	addiu	sp,sp,-24
9d014078:	afb00010 	sw	s0,16(sp)
9d01407c:	00808025 	move	s0,a0
9d014080:	8c840000 	lw	a0,0(a0)
9d014084:	afbf0014 	sw	ra,20(sp)
9d014088:	0f4052fc 	jal	9d014bf0 <lseek>
9d01408c:	00000000 	nop
9d014090:	04400005 	bltz	v0,9d0140a8 <__stdio_seek_unbuffered+0x34>
9d014094:	2403ffff 	li	v1,-1
9d014098:	8e020004 	lw	v0,4(s0)
9d01409c:	00001825 	move	v1,zero
9d0140a0:	7c0218c4 	ins	v0,zero,0x3,0x1
9d0140a4:	ae020004 	sw	v0,4(s0)
9d0140a8:	8fbf0014 	lw	ra,20(sp)
9d0140ac:	00601025 	move	v0,v1
9d0140b0:	8fb00010 	lw	s0,16(sp)
9d0140b4:	03e00008 	jr	ra
9d0140b8:	27bd0018 	addiu	sp,sp,24

Disassembly of section .text:

9d0140bc <__pic32_software_reset>:
9d0140bc:	41606000 	di
9d0140c0:	000000c0 	ehb
9d0140c4:	3c03aa99 	lui	v1,0xaa99
9d0140c8:	3c02bf81 	lui	v0,0xbf81
9d0140cc:	24636655 	addiu	v1,v1,26197
9d0140d0:	ac40f230 	sw	zero,-3536(v0)
9d0140d4:	ac43f230 	sw	v1,-3536(v0)
9d0140d8:	3c035566 	lui	v1,0x5566
9d0140dc:	346399aa 	ori	v1,v1,0x99aa
9d0140e0:	ac43f230 	sw	v1,-3536(v0)
9d0140e4:	3c02bf81 	lui	v0,0xbf81
9d0140e8:	24030001 	li	v1,1
9d0140ec:	ac43f618 	sw	v1,-2536(v0)
9d0140f0:	3c02bf81 	lui	v0,0xbf81
9d0140f4:	8c42f610 	lw	v0,-2544(v0)
9d0140f8:	0b405031 	j	9d0140c4 <__pic32_software_reset+0x8>
9d0140fc:	00000000 	nop

Disassembly of section .text.__sio_sprintf_deEfFgGnu:

9d014100 <__sio_sprintf_deEfFgGnu>:
9d014100:	27bdffe8 	addiu	sp,sp,-24
9d014104:	afbf0014 	sw	ra,20(sp)
9d014108:	0f40449e 	jal	9d011278 <__fmt_d>
9d01410c:	00000000 	nop
9d014110:	0f402ac6 	jal	9d00ab18 <__fmt_fp>
9d014114:	00000000 	nop
9d014118:	0f4049ca 	jal	9d012728 <__fmt_u>
9d01411c:	00000000 	nop
9d014120:	0f404fae 	jal	9d013eb8 <__pop_float>
9d014124:	00000000 	nop
9d014128:	0f404330 	jal	9d010cc0 <__pop_int>
9d01412c:	00000000 	nop
9d014130:	0f404894 	jal	9d012250 <__pop_ptr>
9d014134:	00000000 	nop
9d014138:	8fbf0014 	lw	ra,20(sp)
9d01413c:	03e00008 	jr	ra
9d014140:	27bd0018 	addiu	sp,sp,24

Disassembly of section .text.__towrite:

9d014144 <__towrite>:
9d014144:	27bdffe8 	addiu	sp,sp,-24
9d014148:	afb00010 	sw	s0,16(sp)
9d01414c:	afbf0014 	sw	ra,20(sp)
9d014150:	0f405093 	jal	9d01424c <__towrite_rw>
9d014154:	00808025 	move	s0,a0
9d014158:	14400008 	bnez	v0,9d01417c <__towrite+0x38>
9d01415c:	8fbf0014 	lw	ra,20(sp)
9d014160:	8e030008 	lw	v1,8(s0)
9d014164:	8e04000c 	lw	a0,12(s0)
9d014168:	ae030018 	sw	v1,24(s0)
9d01416c:	ae030014 	sw	v1,20(s0)
9d014170:	00641821 	addu	v1,v1,a0
9d014174:	ae030028 	sw	v1,40(s0)
9d014178:	8fbf0014 	lw	ra,20(sp)
9d01417c:	8fb00010 	lw	s0,16(sp)
9d014180:	03e00008 	jr	ra
9d014184:	27bd0018 	addiu	sp,sp,24

Disassembly of section .text._get_heap_left_space:

9d014188 <_get_heap_left_space>:
9d014188:	3c02a000 	lui	v0,0xa000
9d01418c:	8c4323f4 	lw	v1,9204(v0)
9d014190:	27bdffe8 	addiu	sp,sp,-24
9d014194:	afb00010 	sw	s0,16(sp)
9d014198:	afbf0014 	sw	ra,20(sp)
9d01419c:	14600003 	bnez	v1,9d0141ac <_get_heap_left_space+0x24>
9d0141a0:	00408025 	move	s0,v0
9d0141a4:	0f404449 	jal	9d011124 <_sbrk_init>
9d0141a8:	00000000 	nop
9d0141ac:	3c02a000 	lui	v0,0xa000
9d0141b0:	8c4323f8 	lw	v1,9208(v0)
9d0141b4:	8fbf0014 	lw	ra,20(sp)
9d0141b8:	8e0223f4 	lw	v0,9204(s0)
9d0141bc:	8fb00010 	lw	s0,16(sp)
9d0141c0:	27bd0018 	addiu	sp,sp,24
9d0141c4:	03e00008 	jr	ra
9d0141c8:	00621023 	subu	v0,v1,v0

Disassembly of section .text:

9d0141cc <__floatunsidf>:
9d0141cc:	27bdffe8 	addiu	sp,sp,-24
9d0141d0:	afb00010 	sw	s0,16(sp)
9d0141d4:	afbf0014 	sw	ra,20(sp)
9d0141d8:	0f404e18 	jal	9d013860 <__floatsidf>
9d0141dc:	00808025 	move	s0,a0
9d0141e0:	06010006 	bgez	s0,9d0141fc <__floatunsidf+0x30>
9d0141e4:	00602825 	move	a1,v1
9d0141e8:	3c049d00 	lui	a0,0x9d00
9d0141ec:	8c867490 	lw	a2,29840(a0)
9d0141f0:	8c877494 	lw	a3,29844(a0)
9d0141f4:	0f40382f 	jal	9d00e0bc <__adddf3>
9d0141f8:	00402025 	move	a0,v0
9d0141fc:	8fbf0014 	lw	ra,20(sp)
9d014200:	8fb00010 	lw	s0,16(sp)
9d014204:	03e00008 	jr	ra
9d014208:	27bd0018 	addiu	sp,sp,24

Disassembly of section .text.memchr:

9d01420c <memchr>:
9d01420c:	10c0000b 	beqz	a2,9d01423c <memchr+0x30>
9d014210:	30a500ff 	andi	a1,a1,0xff
9d014214:	90820000 	lbu	v0,0(a0)
9d014218:	1045000a 	beq	v0,a1,9d014244 <memchr+0x38>
9d01421c:	00863021 	addu	a2,a0,a2
9d014220:	10000004 	b	9d014234 <memchr+0x28>
9d014224:	24840001 	addiu	a0,a0,1
9d014228:	10450006 	beq	v0,a1,9d014244 <memchr+0x38>
9d01422c:	00000000 	nop
9d014230:	24840001 	addiu	a0,a0,1
9d014234:	54c4fffc 	bnel	a2,a0,9d014228 <memchr+0x1c>
9d014238:	90820000 	lbu	v0,0(a0)
9d01423c:	03e00008 	jr	ra
9d014240:	00001025 	move	v0,zero
9d014244:	03e00008 	jr	ra
9d014248:	00801025 	move	v0,a0

Disassembly of section .text.__towrite_rw:

9d01424c <__towrite_rw>:
9d01424c:	80820048 	lb	v0,72(a0)
9d014250:	2443ffff 	addiu	v1,v0,-1
9d014254:	00431025 	or	v0,v0,v1
9d014258:	a0820048 	sb	v0,72(a0)
9d01425c:	8c820004 	lw	v0,4(a0)
9d014260:	30430004 	andi	v1,v0,0x4
9d014264:	50600005 	beqzl	v1,9d01427c <__towrite_rw+0x30>
9d014268:	ac800040 	sw	zero,64(a0)
9d01426c:	34420010 	ori	v0,v0,0x10
9d014270:	ac820004 	sw	v0,4(a0)
9d014274:	03e00008 	jr	ra
9d014278:	2402ffff 	li	v0,-1
9d01427c:	ac80003c 	sw	zero,60(a0)
9d014280:	03e00008 	jr	ra
9d014284:	00001025 	move	v0,zero

Disassembly of section .text.__vfscanf:

9d014288 <__vfscanf>:
9d014288:	27bdffe0 	addiu	sp,sp,-32
9d01428c:	afb00018 	sw	s0,24(sp)
9d014290:	afa60010 	sw	a2,16(sp)
9d014294:	00808025 	move	s0,a0
9d014298:	afbf001c 	sw	ra,28(sp)
9d01429c:	0f402ecd 	jal	9d00bb34 <__scanf_core>
9d0142a0:	27a60010 	addiu	a2,sp,16
9d0142a4:	8e030004 	lw	v1,4(s0)
9d0142a8:	8fbf001c 	lw	ra,28(sp)
9d0142ac:	2404ffff 	li	a0,-1
9d0142b0:	30630010 	andi	v1,v1,0x10
9d0142b4:	0083100b 	movn	v0,a0,v1
9d0142b8:	8fb00018 	lw	s0,24(sp)
9d0142bc:	03e00008 	jr	ra
9d0142c0:	27bd0020 	addiu	sp,sp,32

Disassembly of section .text.__vfprintf:

9d0142c4 <__vfprintf>:
9d0142c4:	27bdffe0 	addiu	sp,sp,-32
9d0142c8:	afb00018 	sw	s0,24(sp)
9d0142cc:	afa60010 	sw	a2,16(sp)
9d0142d0:	00808025 	move	s0,a0
9d0142d4:	afbf001c 	sw	ra,28(sp)
9d0142d8:	0f403263 	jal	9d00c98c <__printf_core>
9d0142dc:	27a60010 	addiu	a2,sp,16
9d0142e0:	8e030004 	lw	v1,4(s0)
9d0142e4:	8fbf001c 	lw	ra,28(sp)
9d0142e8:	2404ffff 	li	a0,-1
9d0142ec:	30630010 	andi	v1,v1,0x10
9d0142f0:	0083100b 	movn	v0,a0,v1
9d0142f4:	8fb00018 	lw	s0,24(sp)
9d0142f8:	03e00008 	jr	ra
9d0142fc:	27bd0020 	addiu	sp,sp,32

Disassembly of section .text.logbf:

9d014300 <logbf>:
9d014300:	27bdffe8 	addiu	sp,sp,-24
9d014304:	afbf0014 	sw	ra,20(sp)
9d014308:	0f404818 	jal	9d012060 <__truncdfsf2>
9d01430c:	00000000 	nop
9d014310:	0f404aac 	jal	9d012ab0 <__extendsfdf2>
9d014314:	00402025 	move	a0,v0
9d014318:	00402025 	move	a0,v0
9d01431c:	0f40470a 	jal	9d011c28 <logbl>
9d014320:	00602825 	move	a1,v1
9d014324:	00402025 	move	a0,v0
9d014328:	0f404818 	jal	9d012060 <__truncdfsf2>
9d01432c:	00602825 	move	a1,v1
9d014330:	8fbf0014 	lw	ra,20(sp)
9d014334:	03e00008 	jr	ra
9d014338:	27bd0018 	addiu	sp,sp,24

Disassembly of section .text:

9d01433c <__lshrdi3>:
9d01433c:	10c00008 	beqz	a2,9d014360 <__lshrdi3+0x24>
9d014340:	00801025 	move	v0,a0
9d014344:	24030020 	li	v1,32
9d014348:	00661823 	subu	v1,v1,a2
9d01434c:	1c600006 	bgtz	v1,9d014368 <__lshrdi3+0x2c>
9d014350:	00c52006 	srlv	a0,a1,a2
9d014354:	00002025 	move	a0,zero
9d014358:	00c51006 	srlv	v0,a1,a2
9d01435c:	00802825 	move	a1,a0
9d014360:	03e00008 	jr	ra
9d014364:	00a01825 	move	v1,a1
9d014368:	00c21006 	srlv	v0,v0,a2
9d01436c:	00652804 	sllv	a1,a1,v1
9d014370:	1000fffa 	b	9d01435c <__lshrdi3+0x20>
9d014374:	00451025 	or	v0,v0,a1

9d014378 <__ashldi3>:
9d014378:	10c00008 	beqz	a2,9d01439c <__ashldi3+0x24>
9d01437c:	00801025 	move	v0,a0
9d014380:	24040020 	li	a0,32
9d014384:	00862023 	subu	a0,a0,a2
9d014388:	5c800006 	bgtzl	a0,9d0143a4 <__ashldi3+0x2c>
9d01438c:	00c21804 	sllv	v1,v0,a2
9d014390:	00001825 	move	v1,zero
9d014394:	00c22804 	sllv	a1,v0,a2
9d014398:	00601025 	move	v0,v1
9d01439c:	03e00008 	jr	ra
9d0143a0:	00a01825 	move	v1,a1
9d0143a4:	00c52804 	sllv	a1,a1,a2
9d0143a8:	00821006 	srlv	v0,v0,a0
9d0143ac:	1000fffa 	b	9d014398 <__ashldi3+0x20>
9d0143b0:	00a22825 	or	a1,a1,v0

Disassembly of section .text.__expand_heap:

9d0143b4 <__expand_heap>:
9d0143b4:	8c840000 	lw	a0,0(a0)
9d0143b8:	04810003 	bgez	a0,9d0143c8 <__expand_heap+0x14>
9d0143bc:	00001025 	move	v0,zero
9d0143c0:	03e00008 	jr	ra
9d0143c4:	00000000 	nop
9d0143c8:	27bdffe8 	addiu	sp,sp,-24
9d0143cc:	afbf0014 	sw	ra,20(sp)
9d0143d0:	0f404a80 	jal	9d012a00 <_sbrk>
9d0143d4:	00000000 	nop
9d0143d8:	2403ffff 	li	v1,-1
9d0143dc:	50430001 	beql	v0,v1,9d0143e4 <__expand_heap+0x30>
9d0143e0:	00001025 	move	v0,zero
9d0143e4:	8fbf0014 	lw	ra,20(sp)
9d0143e8:	03e00008 	jr	ra
9d0143ec:	27bd0018 	addiu	sp,sp,24

Disassembly of section .text.__fclose:

9d0143f0 <__fclose>:
9d0143f0:	1080000b 	beqz	a0,9d014420 <__fclose+0x30>
9d0143f4:	00001025 	move	v0,zero
9d0143f8:	8c83001c 	lw	v1,28(a0)
9d0143fc:	10600008 	beqz	v1,9d014420 <__fclose+0x30>
9d014400:	00000000 	nop
9d014404:	27bdffe8 	addiu	sp,sp,-24
9d014408:	afbf0014 	sw	ra,20(sp)
9d01440c:	0060f809 	jalr	v1
9d014410:	00000000 	nop
9d014414:	8fbf0014 	lw	ra,20(sp)
9d014418:	03e00008 	jr	ra
9d01441c:	27bd0018 	addiu	sp,sp,24
9d014420:	03e00008 	jr	ra
9d014424:	00000000 	nop

Disassembly of section .text.__fwrite:

9d014428 <__fwrite>:
9d014428:	8c83002c 	lw	v1,44(a0)
9d01442c:	27bdffe8 	addiu	sp,sp,-24
9d014430:	10600006 	beqz	v1,9d01444c <__fwrite+0x24>
9d014434:	afbf0014 	sw	ra,20(sp)
9d014438:	0060f809 	jalr	v1
9d01443c:	00000000 	nop
9d014440:	8fbf0014 	lw	ra,20(sp)
9d014444:	03e00008 	jr	ra
9d014448:	27bd0018 	addiu	sp,sp,24
9d01444c:	0f404d39 	jal	9d0134e4 <write>
9d014450:	8c840000 	lw	a0,0(a0)
9d014454:	1000fffb 	b	9d014444 <__fwrite+0x1c>
9d014458:	8fbf0014 	lw	ra,20(sp)

Disassembly of section .text.finitef:

9d01445c <finitef>:
9d01445c:	27bdffe8 	addiu	sp,sp,-24
9d014460:	afbf0014 	sw	ra,20(sp)
9d014464:	0f404818 	jal	9d012060 <__truncdfsf2>
9d014468:	00000000 	nop
9d01446c:	0f404aac 	jal	9d012ab0 <__extendsfdf2>
9d014470:	00402025 	move	a0,v0
9d014474:	00031403 	sra	v0,v1,0x10
9d014478:	8fbf0014 	lw	ra,20(sp)
9d01447c:	30427ff0 	andi	v0,v0,0x7ff0
9d014480:	38427ff0 	xori	v0,v0,0x7ff0
9d014484:	0002102b 	sltu	v0,zero,v0
9d014488:	03e00008 	jr	ra
9d01448c:	27bd0018 	addiu	sp,sp,24

Disassembly of section .text.copysign:

9d014490 <copysign>:
9d014490:	00071c02 	srl	v1,a3,0x10
9d014494:	7c037004 	ins	v1,zero,0x0,0xf
9d014498:	7ca27400 	ext	v0,a1,0x10,0xf
9d01449c:	27bdfff8 	addiu	sp,sp,-8
9d0144a0:	00431025 	or	v0,v0,v1
9d0144a4:	afa50004 	sw	a1,4(sp)
9d0144a8:	afa40000 	sw	a0,0(sp)
9d0144ac:	a7a20006 	sh	v0,6(sp)
9d0144b0:	8fa30004 	lw	v1,4(sp)
9d0144b4:	8fa20000 	lw	v0,0(sp)
9d0144b8:	03e00008 	jr	ra
9d0144bc:	27bd0008 	addiu	sp,sp,8

Disassembly of section .text.strlen:

9d0144c0 <strlen>:
9d0144c0:	80820000 	lb	v0,0(a0)
9d0144c4:	10400008 	beqz	v0,9d0144e8 <strlen+0x28>
9d0144c8:	00000000 	nop
9d0144cc:	00801025 	move	v0,a0
9d0144d0:	24420001 	addiu	v0,v0,1
9d0144d4:	80430000 	lb	v1,0(v0)
9d0144d8:	5460fffe 	bnezl	v1,9d0144d4 <strlen+0x14>
9d0144dc:	24420001 	addiu	v0,v0,1
9d0144e0:	03e00008 	jr	ra
9d0144e4:	00441023 	subu	v0,v0,a0
9d0144e8:	03e00008 	jr	ra
9d0144ec:	00001025 	move	v0,zero

Disassembly of section .text.__sio_sscanf_deEfFgGn:

9d0144f0 <__sio_sscanf_deEfFgGn>:
9d0144f0:	27bdffe8 	addiu	sp,sp,-24
9d0144f4:	afbf0014 	sw	ra,20(sp)
9d0144f8:	0f404e53 	jal	9d01394c <__scan_d>
9d0144fc:	00000000 	nop
9d014500:	0f403939 	jal	9d00e4e4 <__scan_fp>
9d014504:	00000000 	nop
9d014508:	0f403e89 	jal	9d00fa24 <__scan_i>
9d01450c:	00000000 	nop
9d014510:	8fbf0014 	lw	ra,20(sp)
9d014514:	03e00008 	jr	ra
9d014518:	27bd0018 	addiu	sp,sp,24

Disassembly of section .text.strtoull:

9d01451c <strtoull>:
9d01451c:	27bdffe0 	addiu	sp,sp,-32
9d014520:	2402ffff 	li	v0,-1
9d014524:	2403ffff 	li	v1,-1
9d014528:	afa20010 	sw	v0,16(sp)
9d01452c:	afa30014 	sw	v1,20(sp)
9d014530:	afbf001c 	sw	ra,28(sp)
9d014534:	0f4049f9 	jal	9d0127e4 <strtox>
9d014538:	00000000 	nop
9d01453c:	8fbf001c 	lw	ra,28(sp)
9d014540:	03e00008 	jr	ra
9d014544:	27bd0020 	addiu	sp,sp,32

Disassembly of section .text.strtoll:

9d014548 <strtoll>:
9d014548:	27bdffe0 	addiu	sp,sp,-32
9d01454c:	00001025 	move	v0,zero
9d014550:	3c038000 	lui	v1,0x8000
9d014554:	afa20010 	sw	v0,16(sp)
9d014558:	afa30014 	sw	v1,20(sp)
9d01455c:	afbf001c 	sw	ra,28(sp)
9d014560:	0f4049f9 	jal	9d0127e4 <strtox>
9d014564:	00000000 	nop
9d014568:	8fbf001c 	lw	ra,28(sp)
9d01456c:	03e00008 	jr	ra
9d014570:	27bd0020 	addiu	sp,sp,32

Disassembly of section .text.strtoul:

9d014574 <strtoul>:
9d014574:	27bdffe0 	addiu	sp,sp,-32
9d014578:	2402ffff 	li	v0,-1
9d01457c:	00001825 	move	v1,zero
9d014580:	afa20010 	sw	v0,16(sp)
9d014584:	afa30014 	sw	v1,20(sp)
9d014588:	afbf001c 	sw	ra,28(sp)
9d01458c:	0f4049f9 	jal	9d0127e4 <strtox>
9d014590:	00000000 	nop
9d014594:	8fbf001c 	lw	ra,28(sp)
9d014598:	03e00008 	jr	ra
9d01459c:	27bd0020 	addiu	sp,sp,32

Disassembly of section .text.strtol:

9d0145a0 <strtol>:
9d0145a0:	27bdffe0 	addiu	sp,sp,-32
9d0145a4:	3c028000 	lui	v0,0x8000
9d0145a8:	00001825 	move	v1,zero
9d0145ac:	afa20010 	sw	v0,16(sp)
9d0145b0:	afa30014 	sw	v1,20(sp)
9d0145b4:	afbf001c 	sw	ra,28(sp)
9d0145b8:	0f4049f9 	jal	9d0127e4 <strtox>
9d0145bc:	00000000 	nop
9d0145c0:	8fbf001c 	lw	ra,28(sp)
9d0145c4:	03e00008 	jr	ra
9d0145c8:	27bd0020 	addiu	sp,sp,32

Disassembly of section .rodata:

9d0145cc <CSWTCH.35>:
9d0145cc:	fbceff6b 0000fbce                       k.......

9d0145d4 <CSWTCH.34>:
9d0145d4:	00353518                                .55.

9d0145d8 <p10s.2639>:
9d0145d8:	0000000a 00000064 000003e8 00002710     ....d........'..
9d0145e8:	000186a0 000f4240 00989680 05f5e100     ....@B..........

Disassembly of section .text.__shlim:

9d0145f8 <__shlim>:
9d0145f8:	8c830040 	lw	v1,64(a0)
9d0145fc:	8c86003c 	lw	a2,60(a0)
9d014600:	ac850050 	sw	a1,80(a0)
9d014604:	00661023 	subu	v0,v1,a2
9d014608:	10a00004 	beqz	a1,9d01461c <__shlim+0x24>
9d01460c:	ac820054 	sw	v0,84(a0)
9d014610:	00a2102a 	slt	v0,a1,v0
9d014614:	54400001 	bnezl	v0,9d01461c <__shlim+0x24>
9d014618:	00c51821 	addu	v1,a2,a1
9d01461c:	03e00008 	jr	ra
9d014620:	ac83004c 	sw	v1,76(a0)

Disassembly of section .text.__dummy:

9d014624 <__dummy>:
9d014624:	8c870014 	lw	a3,20(a0)
9d014628:	8c860018 	lw	a2,24(a0)
9d01462c:	8c830004 	lw	v1,4(a0)
9d014630:	00e61023 	subu	v0,a3,a2
9d014634:	30630040 	andi	v1,v1,0x40
9d014638:	aca20000 	sw	v0,0(a1)
9d01463c:	10600002 	beqz	v1,9d014648 <__dummy+0x24>
9d014640:	00001025 	move	v0,zero
9d014644:	00c7102b 	sltu	v0,a2,a3
9d014648:	03e00008 	jr	ra
9d01464c:	00000000 	nop

Disassembly of section .text.__init_stdio:

9d014650 <__init_stdio>:
9d014650:	27bdffe8 	addiu	sp,sp,-24
9d014654:	afbf0014 	sw	ra,20(sp)
9d014658:	0f4052fa 	jal	9d014be8 <__init_stderr>
9d01465c:	00000000 	nop
9d014660:	0f4052fa 	jal	9d014be8 <__init_stderr>
9d014664:	00000000 	nop
9d014668:	0f4052fa 	jal	9d014be8 <__init_stderr>
9d01466c:	00000000 	nop
9d014670:	8fbf0014 	lw	ra,20(sp)
9d014674:	03e00008 	jr	ra
9d014678:	27bd0018 	addiu	sp,sp,24

Disassembly of section .text.copysignl:

9d01467c <copysignl>:
9d01467c:	afa50004 	sw	a1,4(sp)
9d014680:	97a20006 	lhu	v0,6(sp)
9d014684:	00073c02 	srl	a3,a3,0x10
9d014688:	7c077004 	ins	a3,zero,0x0,0xf
9d01468c:	30427fff 	andi	v0,v0,0x7fff
9d014690:	00471025 	or	v0,v0,a3
9d014694:	a7a20006 	sh	v0,6(sp)
9d014698:	afa40000 	sw	a0,0(sp)
9d01469c:	8fa20000 	lw	v0,0(sp)
9d0146a0:	03e00008 	jr	ra
9d0146a4:	8fa30004 	lw	v1,4(sp)

Disassembly of section .text.memcpy:

9d0146a8 <memcpy>:
9d0146a8:	10c00008 	beqz	a2,9d0146cc <memcpy+0x24>
9d0146ac:	00801025 	move	v0,a0
9d0146b0:	00863021 	addu	a2,a0,a2
9d0146b4:	00801825 	move	v1,a0
9d0146b8:	24a50001 	addiu	a1,a1,1
9d0146bc:	90a7ffff 	lbu	a3,-1(a1)
9d0146c0:	24630001 	addiu	v1,v1,1
9d0146c4:	1466fffc 	bne	v1,a2,9d0146b8 <memcpy+0x10>
9d0146c8:	a067ffff 	sb	a3,-1(v1)
9d0146cc:	03e00008 	jr	ra
9d0146d0:	00000000 	nop

Disassembly of section .text._stub_sbd_memlayout:

9d0146d4 <_stub_sbd_memlayout>:
9d0146d4:	3c04a000 	lui	a0,0xa000
9d0146d8:	248223dc 	addiu	v0,a0,9180
9d0146dc:	24030001 	li	v1,1
9d0146e0:	ac430008 	sw	v1,8(v0)
9d0146e4:	3c03a000 	lui	v1,0xa000
9d0146e8:	24632410 	addiu	v1,v1,9232
9d0146ec:	ac8323dc 	sw	v1,9180(a0)
9d0146f0:	3c030000 	lui	v1,0x0
9d0146f4:	24630000 	addiu	v1,v1,0
9d0146f8:	03e00008 	jr	ra
9d0146fc:	ac430004 	sw	v1,4(v0)

Disassembly of section .rodata:

9d014700 <.rodata>:
9d014700:	32433249 	andi	v1,s2,0x3249
9d014704:	73614d20 	0x73614d20
9d014708:	3a726574 	xori	s2,s3,0x6574
9d01470c:	69616620 	0x69616620
9d014710:	2064656c 	addi	a0,v1,25964
9d014714:	72206f74 	0x72206f74
9d014718:	69656365 	0x69656365
9d01471c:	41206576 	0x41206576
9d014720:	0a0d4b43 	j	98352d0c <_bmxdudba_address+0x98342d0c>
9d014724:	00000000 	nop

Disassembly of section .text.__wrap_sprintf:

9d014728 <_dsprintf_deEfFgGnu>:
9d014728:	27bdffe0 	addiu	sp,sp,-32
9d01472c:	afa60028 	sw	a2,40(sp)
9d014730:	27a60028 	addiu	a2,sp,40
9d014734:	afbf001c 	sw	ra,28(sp)
9d014738:	afa7002c 	sw	a3,44(sp)
9d01473c:	0f4051e8 	jal	9d0147a0 <__vsprintf>
9d014740:	afa60010 	sw	a2,16(sp)
9d014744:	8fbf001c 	lw	ra,28(sp)
9d014748:	03e00008 	jr	ra
9d01474c:	27bd0020 	addiu	sp,sp,32

Disassembly of section .text.__wrap_sscanf:

9d014750 <_dsscanf_deEfFgGn>:
9d014750:	27bdffe0 	addiu	sp,sp,-32
9d014754:	afa60028 	sw	a2,40(sp)
9d014758:	27a60028 	addiu	a2,sp,40
9d01475c:	afbf001c 	sw	ra,28(sp)
9d014760:	afa7002c 	sw	a3,44(sp)
9d014764:	0f404ec3 	jal	9d013b0c <__vsscanf>
9d014768:	afa60010 	sw	a2,16(sp)
9d01476c:	8fbf001c 	lw	ra,28(sp)
9d014770:	03e00008 	jr	ra
9d014774:	27bd0020 	addiu	sp,sp,32

Disassembly of section .text.strtof:

9d014778 <strtof>:
9d014778:	27bdffe8 	addiu	sp,sp,-24
9d01477c:	afbf0014 	sw	ra,20(sp)
9d014780:	0f404b2b 	jal	9d012cac <strtox>
9d014784:	00003025 	move	a2,zero
9d014788:	00402025 	move	a0,v0
9d01478c:	0f404818 	jal	9d012060 <__truncdfsf2>
9d014790:	00602825 	move	a1,v1
9d014794:	8fbf0014 	lw	ra,20(sp)
9d014798:	03e00008 	jr	ra
9d01479c:	27bd0018 	addiu	sp,sp,24

Disassembly of section .text.__vsprintf:

9d0147a0 <__vsprintf>:
9d0147a0:	00c03825 	move	a3,a2
9d0147a4:	00a03025 	move	a2,a1
9d0147a8:	3c057fff 	lui	a1,0x7fff
9d0147ac:	27bdffe8 	addiu	sp,sp,-24
9d0147b0:	afbf0014 	sw	ra,20(sp)
9d0147b4:	0f404d5b 	jal	9d01356c <__vsnprintf>
9d0147b8:	34a5ffff 	ori	a1,a1,0xffff
9d0147bc:	8fbf0014 	lw	ra,20(sp)
9d0147c0:	03e00008 	jr	ra
9d0147c4:	27bd0018 	addiu	sp,sp,24

Disassembly of section .text.memset:

9d0147c8 <memset>:
9d0147c8:	10c00007 	beqz	a2,9d0147e8 <memset+0x20>
9d0147cc:	00801025 	move	v0,a0
9d0147d0:	7c052c20 	seb	a1,a1
9d0147d4:	00863021 	addu	a2,a0,a2
9d0147d8:	00801825 	move	v1,a0
9d0147dc:	24630001 	addiu	v1,v1,1
9d0147e0:	1466fffe 	bne	v1,a2,9d0147dc <memset+0x14>
9d0147e4:	a065ffff 	sb	a1,-1(v1)
9d0147e8:	03e00008 	jr	ra
9d0147ec:	00000000 	nop

Disassembly of section .text.strcpy:

9d0147f0 <strcpy>:
9d0147f0:	27bdffe8 	addiu	sp,sp,-24
9d0147f4:	afb00010 	sw	s0,16(sp)
9d0147f8:	afbf0014 	sw	ra,20(sp)
9d0147fc:	0f405206 	jal	9d014818 <stpcpy>
9d014800:	00808025 	move	s0,a0
9d014804:	8fbf0014 	lw	ra,20(sp)
9d014808:	02001025 	move	v0,s0
9d01480c:	8fb00010 	lw	s0,16(sp)
9d014810:	03e00008 	jr	ra
9d014814:	27bd0018 	addiu	sp,sp,24

Disassembly of section .text.stpcpy:

9d014818 <stpcpy>:
9d014818:	10000002 	b	9d014824 <stpcpy+0xc>
9d01481c:	00801025 	move	v0,a0
9d014820:	00c01025 	move	v0,a2
9d014824:	24a50001 	addiu	a1,a1,1
9d014828:	80a3ffff 	lb	v1,-1(a1)
9d01482c:	24460001 	addiu	a2,v0,1
9d014830:	1460fffb 	bnez	v1,9d014820 <stpcpy+0x8>
9d014834:	a0c3ffff 	sb	v1,-1(a2)
9d014838:	03e00008 	jr	ra
9d01483c:	00000000 	nop

Disassembly of section .text.__init_search_fl:

9d014840 <__init_search_fl>:
9d014840:	3c03a000 	lui	v1,0xa000
9d014844:	8c662408 	lw	a2,9224(v1)
9d014848:	14c00005 	bnez	a2,9d014860 <__init_search_fl+0x20>
9d01484c:	00001025 	move	v0,zero
9d014850:	ac642408 	sw	a0,9224(v1)
9d014854:	ac800010 	sw	zero,16(a0)
9d014858:	ac850000 	sw	a1,0(a0)
9d01485c:	24020001 	li	v0,1
9d014860:	03e00008 	jr	ra
9d014864:	00000000 	nop

Disassembly of section .text.isxdigit:

9d014868 <isxdigit>:
9d014868:	2483ffd0 	addiu	v1,a0,-48
9d01486c:	2c63000a 	sltiu	v1,v1,10
9d014870:	14600004 	bnez	v1,9d014884 <isxdigit+0x1c>
9d014874:	24020001 	li	v0,1
9d014878:	34840020 	ori	a0,a0,0x20
9d01487c:	2482ff9f 	addiu	v0,a0,-97
9d014880:	2c420006 	sltiu	v0,v0,6
9d014884:	03e00008 	jr	ra
9d014888:	00000000 	nop

Disassembly of section .text.__fwrite_min:

9d01488c <__stdio_write>:
9d01488c:	8c840000 	lw	a0,0(a0)
9d014890:	27bdffe8 	addiu	sp,sp,-24
9d014894:	afbf0014 	sw	ra,20(sp)
9d014898:	0f404d39 	jal	9d0134e4 <write>
9d01489c:	00000000 	nop
9d0148a0:	8fbf0014 	lw	ra,20(sp)
9d0148a4:	03e00008 	jr	ra
9d0148a8:	27bd0018 	addiu	sp,sp,24

Disassembly of section .text.__fseeko:

9d0148ac <__fseeko>:
9d0148ac:	8c820030 	lw	v0,48(a0)
9d0148b0:	27bdffe8 	addiu	sp,sp,-24
9d0148b4:	afbf0014 	sw	ra,20(sp)
9d0148b8:	0040f809 	jalr	v0
9d0148bc:	00000000 	nop
9d0148c0:	8fbf0014 	lw	ra,20(sp)
9d0148c4:	03e00008 	jr	ra
9d0148c8:	27bd0018 	addiu	sp,sp,24

Disassembly of section .text:

9d0148cc <__dinit_copy>:
9d0148cc:	908c0000 	lbu	t4,0(a0)
9d0148d0:	24c6ffff 	addiu	a2,a2,-1
9d0148d4:	24840001 	addiu	a0,a0,1
9d0148d8:	a0ac0000 	sb	t4,0(a1)
9d0148dc:	14c0fffb 	bnez	a2,9d0148cc <__dinit_copy>
9d0148e0:	24a50001 	addiu	a1,a1,1
9d0148e4:	03e00008 	jr	ra
9d0148e8:	00801025 	move	v0,a0

Disassembly of section .text.strtod:

9d0148ec <strtod>:
9d0148ec:	27bdffe8 	addiu	sp,sp,-24
9d0148f0:	afbf0014 	sw	ra,20(sp)
9d0148f4:	0f404b2b 	jal	9d012cac <strtox>
9d0148f8:	24060001 	li	a2,1
9d0148fc:	8fbf0014 	lw	ra,20(sp)
9d014900:	03e00008 	jr	ra
9d014904:	27bd0018 	addiu	sp,sp,24

Disassembly of section .text.strtold:

9d014908 <strtold>:
9d014908:	27bdffe8 	addiu	sp,sp,-24
9d01490c:	afbf0014 	sw	ra,20(sp)
9d014910:	0f404b2b 	jal	9d012cac <strtox>
9d014914:	24060002 	li	a2,2
9d014918:	8fbf0014 	lw	ra,20(sp)
9d01491c:	03e00008 	jr	ra
9d014920:	27bd0018 	addiu	sp,sp,24

Disassembly of section .text.strtoimax:

9d014924 <strtoimax>:
9d014924:	27bdffe8 	addiu	sp,sp,-24
9d014928:	afbf0014 	sw	ra,20(sp)
9d01492c:	0f405152 	jal	9d014548 <strtoll>
9d014930:	00000000 	nop
9d014934:	8fbf0014 	lw	ra,20(sp)
9d014938:	03e00008 	jr	ra
9d01493c:	27bd0018 	addiu	sp,sp,24

Disassembly of section .text.strtoumax:

9d014940 <strtoumax>:
9d014940:	27bdffe8 	addiu	sp,sp,-24
9d014944:	afbf0014 	sw	ra,20(sp)
9d014948:	0f405147 	jal	9d01451c <strtoull>
9d01494c:	00000000 	nop
9d014950:	8fbf0014 	lw	ra,20(sp)
9d014954:	03e00008 	jr	ra
9d014958:	27bd0018 	addiu	sp,sp,24

Disassembly of section .text.__isxdigit_l:

9d01495c <__isxdigit_l>:
9d01495c:	27bdffe8 	addiu	sp,sp,-24
9d014960:	afbf0014 	sw	ra,20(sp)
9d014964:	0f40521a 	jal	9d014868 <isxdigit>
9d014968:	00000000 	nop
9d01496c:	8fbf0014 	lw	ra,20(sp)
9d014970:	03e00008 	jr	ra
9d014974:	27bd0018 	addiu	sp,sp,24

Disassembly of section .text.tolower:

9d014978 <tolower>:
9d014978:	2483ffbf 	addiu	v1,a0,-65
9d01497c:	2c63001a 	sltiu	v1,v1,26
9d014980:	10600002 	beqz	v1,9d01498c <tolower+0x14>
9d014984:	00801025 	move	v0,a0
9d014988:	34820020 	ori	v0,a0,0x20
9d01498c:	03e00008 	jr	ra
9d014990:	00000000 	nop

Disassembly of section .text.__tolower_l:

9d014994 <__tolower_l>:
9d014994:	27bdffe8 	addiu	sp,sp,-24
9d014998:	afbf0014 	sw	ra,20(sp)
9d01499c:	0f40525e 	jal	9d014978 <tolower>
9d0149a0:	00000000 	nop
9d0149a4:	8fbf0014 	lw	ra,20(sp)
9d0149a8:	03e00008 	jr	ra
9d0149ac:	27bd0018 	addiu	sp,sp,24

Disassembly of section .text.do_read:

9d0149b0 <do_read>:
9d0149b0:	27bdffe8 	addiu	sp,sp,-24
9d0149b4:	afbf0014 	sw	ra,20(sp)
9d0149b8:	0f404b7c 	jal	9d012df0 <__string_read>
9d0149bc:	00000000 	nop
9d0149c0:	8fbf0014 	lw	ra,20(sp)
9d0149c4:	03e00008 	jr	ra
9d0149c8:	27bd0018 	addiu	sp,sp,24

Disassembly of section .text.__toread_needs_stdio_exit:

9d0149cc <__toread_needs_stdio_exit>:
9d0149cc:	27bdffe8 	addiu	sp,sp,-24
9d0149d0:	afbf0014 	sw	ra,20(sp)
9d0149d4:	0f404fc2 	jal	9d013f08 <__stdio_exit>
9d0149d8:	00000000 	nop
9d0149dc:	8fbf0014 	lw	ra,20(sp)
9d0149e0:	03e00008 	jr	ra
9d0149e4:	27bd0018 	addiu	sp,sp,24

Disassembly of section .text.putc:

9d0149e8 <putc>:
9d0149e8:	27bdffe8 	addiu	sp,sp,-24
9d0149ec:	afbf0014 	sw	ra,20(sp)
9d0149f0:	0f404e8b 	jal	9d013a2c <__putc>
9d0149f4:	00000000 	nop
9d0149f8:	8fbf0014 	lw	ra,20(sp)
9d0149fc:	03e00008 	jr	ra
9d014a00:	27bd0018 	addiu	sp,sp,24

Disassembly of section .text.__fopen:

9d014a04 <__fopen>:
9d014a04:	27bdffe8 	addiu	sp,sp,-24
9d014a08:	afbf0014 	sw	ra,20(sp)
9d014a0c:	0f404d17 	jal	9d01345c <__fopen_rw>
9d014a10:	00000000 	nop
9d014a14:	8fbf0014 	lw	ra,20(sp)
9d014a18:	03e00008 	jr	ra
9d014a1c:	27bd0018 	addiu	sp,sp,24

Disassembly of section .text.__ftello_adj:

9d014a20 <__ftello_adj>:
9d014a20:	27bdffe8 	addiu	sp,sp,-24
9d014a24:	afbf0014 	sw	ra,20(sp)
9d014a28:	0f40500b 	jal	9d01402c <__ftello_adj_rw>
9d014a2c:	00000000 	nop
9d014a30:	8fbf0014 	lw	ra,20(sp)
9d014a34:	03e00008 	jr	ra
9d014a38:	27bd0018 	addiu	sp,sp,24

Disassembly of section .text.logb:

9d014a3c <logb>:
9d014a3c:	27bdffe8 	addiu	sp,sp,-24
9d014a40:	afbf0014 	sw	ra,20(sp)
9d014a44:	0f40470a 	jal	9d011c28 <logbl>
9d014a48:	00000000 	nop
9d014a4c:	8fbf0014 	lw	ra,20(sp)
9d014a50:	03e00008 	jr	ra
9d014a54:	27bd0018 	addiu	sp,sp,24

Disassembly of section .text.drem:

9d014a58 <drem>:
9d014a58:	27bdffe8 	addiu	sp,sp,-24
9d014a5c:	afbf0014 	sw	ra,20(sp)
9d014a60:	0f4034fa 	jal	9d00d3e8 <dreml>
9d014a64:	00000000 	nop
9d014a68:	8fbf0014 	lw	ra,20(sp)
9d014a6c:	03e00008 	jr	ra
9d014a70:	27bd0018 	addiu	sp,sp,24

Disassembly of section .text.fabsl:

9d014a74 <fabsl>:
9d014a74:	27bdffe8 	addiu	sp,sp,-24
9d014a78:	afbf0014 	sw	ra,20(sp)
9d014a7c:	0f4052d3 	jal	9d014b4c <fabs>
9d014a80:	00000000 	nop
9d014a84:	8fbf0014 	lw	ra,20(sp)
9d014a88:	03e00008 	jr	ra
9d014a8c:	27bd0018 	addiu	sp,sp,24

Disassembly of section .text.scalbnl:

9d014a90 <scalbnl>:
9d014a90:	27bdffe8 	addiu	sp,sp,-24
9d014a94:	afbf0014 	sw	ra,20(sp)
9d014a98:	0f404858 	jal	9d012160 <scalbn>
9d014a9c:	00000000 	nop
9d014aa0:	8fbf0014 	lw	ra,20(sp)
9d014aa4:	03e00008 	jr	ra
9d014aa8:	27bd0018 	addiu	sp,sp,24

Disassembly of section .text:

9d014ac8 <_nmi_handler>:
9d014ac8:	401a6000 	mfc0	k0,c0_status
9d014acc:	3c1bffbf 	lui	k1,0xffbf
9d014ad0:	377bffff 	ori	k1,k1,0xffff
9d014ad4:	035bd024 	and	k0,k0,k1
9d014ad8:	409a6000 	mtc0	k0,c0_status
9d014adc:	42000018 	eret

Disassembly of section .rodata:

9d014ae0 <state_table>:
9d014ae0:	096c0768 906a834c c07aa074 88688000     h.l.L.j.t.z...h.
9d014af0:	826c8400 00008100                       ..l.....

Disassembly of section .text:

9d014af8 <__dinit_clear>:
9d014af8:	24c6ffff 	addiu	a2,a2,-1
9d014afc:	a0a00000 	sb	zero,0(a1)
9d014b00:	14c0fffd 	bnez	a2,9d014af8 <__dinit_clear>
9d014b04:	24a50001 	addiu	a1,a1,1
9d014b08:	03e00008 	jr	ra
9d014b0c:	00801025 	move	v0,a0

Disassembly of section .rodata:

9d014b10 <_dinit_func_table>:
9d014b10:	9d014af8 9d0148cc 9d0136ec 9d0136ec     .J...H...6...6..
9d014b20:	9d0136ec                                .6..

Disassembly of section .text.finitel:

9d014b24 <finitel>:
9d014b24:	00051403 	sra	v0,a1,0x10
9d014b28:	30427ff0 	andi	v0,v0,0x7ff0
9d014b2c:	38427ff0 	xori	v0,v0,0x7ff0
9d014b30:	03e00008 	jr	ra
9d014b34:	0002102b 	sltu	v0,zero,v0

Disassembly of section .text.finite:

9d014b38 <finite>:
9d014b38:	00051403 	sra	v0,a1,0x10
9d014b3c:	30427ff0 	andi	v0,v0,0x7ff0
9d014b40:	38427ff0 	xori	v0,v0,0x7ff0
9d014b44:	03e00008 	jr	ra
9d014b48:	0002102b 	sltu	v0,zero,v0

Disassembly of section .text.fabs:

9d014b4c <fabs>:
9d014b4c:	7ca6f000 	ext	a2,a1,0x0,0x1f
9d014b50:	00801025 	move	v0,a0
9d014b54:	03e00008 	jr	ra
9d014b58:	00c01825 	move	v1,a2

Disassembly of section .text.__get_stderr:

9d014b5c <__get_stderr>:
9d014b5c:	3c02a000 	lui	v0,0xa000
9d014b60:	03e00008 	jr	ra
9d014b64:	24421ff8 	addiu	v0,v0,8184

Disassembly of section .text.__get_stdout:

9d014b68 <__get_stdout>:
9d014b68:	3c02a000 	lui	v0,0xa000
9d014b6c:	03e00008 	jr	ra
9d014b70:	24422058 	addiu	v0,v0,8280

Disassembly of section .rodata:

9d014b78 <.rodata>:
9d014b78:	00000000 	nop
9d014b7c:	40080000 	mfc0	t0,c0_index

Disassembly of section .text._on_reset:

9d014b80 <_on_reset>:
9d014b80:	03e00008 	jr	ra
9d014b84:	00000000 	nop

Disassembly of section .text._on_bootstrap:

9d014b88 <_on_bootstrap>:
9d014b88:	03e00008 	jr	ra
9d014b8c:	00000000 	nop

Disassembly of section .text.__dummy_fmt3:

9d014b90 <__fmt_o>:
9d014b90:	03e00008 	jr	ra
9d014b94:	00001025 	move	v0,zero

Disassembly of section .text.__dummy_fmt4:

9d014b98 <__fmt_a>:
9d014b98:	03e00008 	jr	ra
9d014b9c:	00001025 	move	v0,zero

Disassembly of section .text.__dummy_fmts:

9d014ba0 <__fmt_s>:
9d014ba0:	03e00008 	jr	ra
9d014ba4:	00001025 	move	v0,zero

Disassembly of section .text.__dummy_scan:

9d014ba8 <__scan_a>:
9d014ba8:	03e00008 	jr	ra
9d014bac:	00001025 	move	v0,zero

Disassembly of section .text.__dummy_scan_s:

9d014bb0 <__scan_s>:
9d014bb0:	03e00008 	jr	ra
9d014bb4:	00001025 	move	v0,zero

Disassembly of section .text.__dummy:

9d014bb8 <__dummy>:
9d014bb8:	03e00008 	jr	ra
9d014bbc:	00000000 	nop

9d014bc0 <__stdio_exit_ofl>:
9d014bc0:	03e00008 	jr	ra
9d014bc4:	00000000 	nop

Disassembly of section .text.__dummy1:

9d014bc8 <__dummy1>:
9d014bc8:	03e00008 	jr	ra
9d014bcc:	00001025 	move	v0,zero

Disassembly of section .text.__dummy:

9d014bd0 <__dummy>:
9d014bd0:	03e00008 	jr	ra
9d014bd4:	00000000 	nop

9d014bd8 <__dummy>:
9d014bd8:	03e00008 	jr	ra
9d014bdc:	00001025 	move	v0,zero

Disassembly of section .text.__dummy:

9d014be0 <__dummy>:
9d014be0:	03e00008 	jr	ra
9d014be4:	00001025 	move	v0,zero

9d014be8 <__init_stderr>:
9d014be8:	03e00008 	jr	ra
9d014bec:	00000000 	nop

Disassembly of section .text.lseek:

9d014bf0 <lseek>:
9d014bf0:	03e00008 	jr	ra
9d014bf4:	00001025 	move	v0,zero

Disassembly of section .text.close:

9d014bf8 <close>:
9d014bf8:	03e00008 	jr	ra
9d014bfc:	00001025 	move	v0,zero

Disassembly of section .text.getpagesize:

9d014c00 <getpagesize>:
9d014c00:	03e00008 	jr	ra
9d014c04:	24020080 	li	v0,128

Disassembly of section .rodata:

9d011774 <.rodata>:
9d011774:	00006425 	0x6425
